Component: ARM Compiler 5.06 update 6 (build 750) Tool: armlink [4d35ed]

==============================================================================

Section Cross References

    startup_stm32f10x_md.o(RESET) refers to startup_stm32f10x_md.o(STACK) for __initial_sp
    startup_stm32f10x_md.o(RESET) refers to startup_stm32f10x_md.o(.text) for Reset_Handler
    startup_stm32f10x_md.o(RESET) refers to stm32f10x_it.o(i.NMI_Handler) for NMI_Handler
    startup_stm32f10x_md.o(RESET) refers to stm32f10x_it.o(i.HardFault_Handler) for HardFault_Handler
    startup_stm32f10x_md.o(RESET) refers to stm32f10x_it.o(i.MemManage_Handler) for MemManage_Handler
    startup_stm32f10x_md.o(RESET) refers to stm32f10x_it.o(i.BusFault_Handler) for BusFault_Handler
    startup_stm32f10x_md.o(RESET) refers to stm32f10x_it.o(i.UsageFault_Handler) for UsageFault_Handler
    startup_stm32f10x_md.o(RESET) refers to stm32f10x_it.o(i.SVC_Handler) for SVC_Handler
    startup_stm32f10x_md.o(RESET) refers to stm32f10x_it.o(i.DebugMon_Handler) for DebugMon_Handler
    startup_stm32f10x_md.o(RESET) refers to context_rvds.o(.text) for PendSV_Handler
    startup_stm32f10x_md.o(RESET) refers to stm32f10x_it.o(i.SysTick_Handler) for SysTick_Handler
    startup_stm32f10x_md.o(RESET) refers to rtc_system.o(i.RTC_IRQHandler) for RTC_IRQHandler
    startup_stm32f10x_md.o(RESET) refers to oled_command.o(i.DMA1_Channel6_IRQHandler) for DMA1_Channel6_IRQHandler
    startup_stm32f10x_md.o(RESET) refers to drive_timer.o(i.TIM2_IRQHandler) for TIM2_IRQHandler
    startup_stm32f10x_md.o(RESET) refers to drive_timer.o(i.TIM3_IRQHandler) for TIM3_IRQHandler
    startup_stm32f10x_md.o(RESET) refers to drive_usart.o(i.USART1_IRQHandler) for USART1_IRQHandler
    startup_stm32f10x_md.o(.text) refers to system_stm32f10x.o(i.SystemInit) for SystemInit
    startup_stm32f10x_md.o(.text) refers to entry.o(.ARM.Collect$$$$00000000) for __main
    system_stm32f10x.o(i.SetSysClock) refers to system_stm32f10x.o(i.SetSysClockTo72) for SetSysClockTo72
    system_stm32f10x.o(i.SystemCoreClockUpdate) refers to system_stm32f10x.o(.data) for SystemCoreClock
    system_stm32f10x.o(i.SystemInit) refers to system_stm32f10x.o(i.SetSysClock) for SetSysClock
    stm32f10x_adc.o(i.ADC_DeInit) refers to stm32f10x_rcc.o(i.RCC_APB2PeriphResetCmd) for RCC_APB2PeriphResetCmd
    stm32f10x_bkp.o(i.BKP_DeInit) refers to stm32f10x_rcc.o(i.RCC_BackupResetCmd) for RCC_BackupResetCmd
    stm32f10x_can.o(i.CAN_DeInit) refers to stm32f10x_rcc.o(i.RCC_APB1PeriphResetCmd) for RCC_APB1PeriphResetCmd
    stm32f10x_can.o(i.CAN_GetITStatus) refers to stm32f10x_can.o(i.CheckITStatus) for CheckITStatus
    stm32f10x_cec.o(i.CEC_DeInit) refers to stm32f10x_rcc.o(i.RCC_APB1PeriphResetCmd) for RCC_APB1PeriphResetCmd
    stm32f10x_dac.o(i.DAC_DeInit) refers to stm32f10x_rcc.o(i.RCC_APB1PeriphResetCmd) for RCC_APB1PeriphResetCmd
    stm32f10x_flash.o(i.FLASH_EnableWriteProtection) refers to stm32f10x_flash.o(i.FLASH_WaitForLastOperation) for FLASH_WaitForLastOperation
    stm32f10x_flash.o(i.FLASH_EraseAllBank1Pages) refers to stm32f10x_flash.o(i.FLASH_WaitForLastBank1Operation) for FLASH_WaitForLastBank1Operation
    stm32f10x_flash.o(i.FLASH_EraseAllPages) refers to stm32f10x_flash.o(i.FLASH_WaitForLastOperation) for FLASH_WaitForLastOperation
    stm32f10x_flash.o(i.FLASH_EraseOptionBytes) refers to stm32f10x_flash.o(i.FLASH_GetReadOutProtectionStatus) for FLASH_GetReadOutProtectionStatus
    stm32f10x_flash.o(i.FLASH_EraseOptionBytes) refers to stm32f10x_flash.o(i.FLASH_WaitForLastOperation) for FLASH_WaitForLastOperation
    stm32f10x_flash.o(i.FLASH_ErasePage) refers to stm32f10x_flash.o(i.FLASH_WaitForLastOperation) for FLASH_WaitForLastOperation
    stm32f10x_flash.o(i.FLASH_ProgramHalfWord) refers to stm32f10x_flash.o(i.FLASH_WaitForLastOperation) for FLASH_WaitForLastOperation
    stm32f10x_flash.o(i.FLASH_ProgramOptionByteData) refers to stm32f10x_flash.o(i.FLASH_WaitForLastOperation) for FLASH_WaitForLastOperation
    stm32f10x_flash.o(i.FLASH_ProgramWord) refers to stm32f10x_flash.o(i.FLASH_WaitForLastOperation) for FLASH_WaitForLastOperation
    stm32f10x_flash.o(i.FLASH_ReadOutProtection) refers to stm32f10x_flash.o(i.FLASH_WaitForLastOperation) for FLASH_WaitForLastOperation
    stm32f10x_flash.o(i.FLASH_UserOptionByteConfig) refers to stm32f10x_flash.o(i.FLASH_WaitForLastOperation) for FLASH_WaitForLastOperation
    stm32f10x_flash.o(i.FLASH_WaitForLastBank1Operation) refers to stm32f10x_flash.o(i.FLASH_GetBank1Status) for FLASH_GetBank1Status
    stm32f10x_flash.o(i.FLASH_WaitForLastOperation) refers to stm32f10x_flash.o(i.FLASH_GetBank1Status) for FLASH_GetBank1Status
    stm32f10x_gpio.o(i.GPIO_AFIODeInit) refers to stm32f10x_rcc.o(i.RCC_APB2PeriphResetCmd) for RCC_APB2PeriphResetCmd
    stm32f10x_gpio.o(i.GPIO_DeInit) refers to stm32f10x_rcc.o(i.RCC_APB2PeriphResetCmd) for RCC_APB2PeriphResetCmd
    stm32f10x_i2c.o(i.I2C_DeInit) refers to stm32f10x_rcc.o(i.RCC_APB1PeriphResetCmd) for RCC_APB1PeriphResetCmd
    stm32f10x_i2c.o(i.I2C_Init) refers to stm32f10x_rcc.o(i.RCC_GetClocksFreq) for RCC_GetClocksFreq
    stm32f10x_pwr.o(i.PWR_DeInit) refers to stm32f10x_rcc.o(i.RCC_APB1PeriphResetCmd) for RCC_APB1PeriphResetCmd
    stm32f10x_rcc.o(i.RCC_GetClocksFreq) refers to stm32f10x_rcc.o(.data) for APBAHBPrescTable
    stm32f10x_rcc.o(i.RCC_WaitForHSEStartUp) refers to stm32f10x_rcc.o(i.RCC_GetFlagStatus) for RCC_GetFlagStatus
    stm32f10x_rtc.o(i.RTC_SetAlarm) refers to stm32f10x_rtc.o(i.RTC_EnterConfigMode) for RTC_EnterConfigMode
    stm32f10x_rtc.o(i.RTC_SetAlarm) refers to stm32f10x_rtc.o(i.RTC_ExitConfigMode) for RTC_ExitConfigMode
    stm32f10x_rtc.o(i.RTC_SetCounter) refers to stm32f10x_rtc.o(i.RTC_EnterConfigMode) for RTC_EnterConfigMode
    stm32f10x_rtc.o(i.RTC_SetCounter) refers to stm32f10x_rtc.o(i.RTC_ExitConfigMode) for RTC_ExitConfigMode
    stm32f10x_rtc.o(i.RTC_SetPrescaler) refers to stm32f10x_rtc.o(i.RTC_EnterConfigMode) for RTC_EnterConfigMode
    stm32f10x_rtc.o(i.RTC_SetPrescaler) refers to stm32f10x_rtc.o(i.RTC_ExitConfigMode) for RTC_ExitConfigMode
    stm32f10x_spi.o(i.I2S_Init) refers to stm32f10x_rcc.o(i.RCC_GetClocksFreq) for RCC_GetClocksFreq
    stm32f10x_spi.o(i.SPI_I2S_DeInit) refers to stm32f10x_rcc.o(i.RCC_APB2PeriphResetCmd) for RCC_APB2PeriphResetCmd
    stm32f10x_spi.o(i.SPI_I2S_DeInit) refers to stm32f10x_rcc.o(i.RCC_APB1PeriphResetCmd) for RCC_APB1PeriphResetCmd
    stm32f10x_tim.o(i.TIM_DeInit) refers to stm32f10x_rcc.o(i.RCC_APB2PeriphResetCmd) for RCC_APB2PeriphResetCmd
    stm32f10x_tim.o(i.TIM_DeInit) refers to stm32f10x_rcc.o(i.RCC_APB1PeriphResetCmd) for RCC_APB1PeriphResetCmd
    stm32f10x_tim.o(i.TIM_ETRClockMode1Config) refers to stm32f10x_tim.o(i.TIM_ETRConfig) for TIM_ETRConfig
    stm32f10x_tim.o(i.TIM_ETRClockMode2Config) refers to stm32f10x_tim.o(i.TIM_ETRConfig) for TIM_ETRConfig
    stm32f10x_tim.o(i.TIM_ICInit) refers to stm32f10x_tim.o(i.TI1_Config) for TI1_Config
    stm32f10x_tim.o(i.TIM_ICInit) refers to stm32f10x_tim.o(i.TIM_SetIC1Prescaler) for TIM_SetIC1Prescaler
    stm32f10x_tim.o(i.TIM_ICInit) refers to stm32f10x_tim.o(i.TI2_Config) for TI2_Config
    stm32f10x_tim.o(i.TIM_ICInit) refers to stm32f10x_tim.o(i.TIM_SetIC2Prescaler) for TIM_SetIC2Prescaler
    stm32f10x_tim.o(i.TIM_ICInit) refers to stm32f10x_tim.o(i.TI3_Config) for TI3_Config
    stm32f10x_tim.o(i.TIM_ICInit) refers to stm32f10x_tim.o(i.TIM_SetIC3Prescaler) for TIM_SetIC3Prescaler
    stm32f10x_tim.o(i.TIM_ICInit) refers to stm32f10x_tim.o(i.TI4_Config) for TI4_Config
    stm32f10x_tim.o(i.TIM_ICInit) refers to stm32f10x_tim.o(i.TIM_SetIC4Prescaler) for TIM_SetIC4Prescaler
    stm32f10x_tim.o(i.TIM_ITRxExternalClockConfig) refers to stm32f10x_tim.o(i.TIM_SelectInputTrigger) for TIM_SelectInputTrigger
    stm32f10x_tim.o(i.TIM_PWMIConfig) refers to stm32f10x_tim.o(i.TI1_Config) for TI1_Config
    stm32f10x_tim.o(i.TIM_PWMIConfig) refers to stm32f10x_tim.o(i.TIM_SetIC1Prescaler) for TIM_SetIC1Prescaler
    stm32f10x_tim.o(i.TIM_PWMIConfig) refers to stm32f10x_tim.o(i.TI2_Config) for TI2_Config
    stm32f10x_tim.o(i.TIM_PWMIConfig) refers to stm32f10x_tim.o(i.TIM_SetIC2Prescaler) for TIM_SetIC2Prescaler
    stm32f10x_tim.o(i.TIM_TIxExternalClockConfig) refers to stm32f10x_tim.o(i.TI2_Config) for TI2_Config
    stm32f10x_tim.o(i.TIM_TIxExternalClockConfig) refers to stm32f10x_tim.o(i.TI1_Config) for TI1_Config
    stm32f10x_tim.o(i.TIM_TIxExternalClockConfig) refers to stm32f10x_tim.o(i.TIM_SelectInputTrigger) for TIM_SelectInputTrigger
    stm32f10x_usart.o(i.USART_DeInit) refers to stm32f10x_rcc.o(i.RCC_APB2PeriphResetCmd) for RCC_APB2PeriphResetCmd
    stm32f10x_usart.o(i.USART_DeInit) refers to stm32f10x_rcc.o(i.RCC_APB1PeriphResetCmd) for RCC_APB1PeriphResetCmd
    stm32f10x_usart.o(i.USART_Init) refers to stm32f10x_rcc.o(i.RCC_GetClocksFreq) for RCC_GetClocksFreq
    stm32f10x_wwdg.o(i.WWDG_DeInit) refers to stm32f10x_rcc.o(i.RCC_APB1PeriphResetCmd) for RCC_APB1PeriphResetCmd
    main.o(i.BoradInit) refers to usart_init.o(i.UsartInit) for UsartInit
    main.o(i.BoradInit) refers to button_system.o(i.AddButtonDevice) for AddButtonDevice
    main.o(i.BoradInit) refers to input_system.o(i.AddInputDevice) for AddInputDevice
    main.o(i.BoradInit) refers to input_system.o(i.InitInputDevice) for InitInputDevice
    main.o(i.BoradInit) refers to displaydev_init.o(i.DisplayDevInit) for DisplayDevInit
    main.o(i.BoradInit) refers to led_system.o(i.AddLedDevice) for AddLedDevice
    main.o(i.BoradInit) refers to beep_system.o(i.ADDBeepDevice) for ADDBeepDevice
    main.o(i.BoradInit) refers to option_manager.o(i.InitMenuOption) for InitMenuOption
    main.o(i.BoradInit) refers to drive_timer.o(i.STD_Timer3Config) for STD_Timer3Config
    main.o(i.BoradInit) refers to dht11_device.o(i.DHT11Init) for DHT11Init
    main.o(i.BoradInit) refers to game_system.o(i.GameThreadInit) for GameThreadInit
    main.o(i.BoradInit) refers to rtc_system.o(i.RTCInit) for RTCInit
    main.o(i.BoradInit) refers to option_manager.o(i.MenuThreadInit) for MenuThreadInit
    main.o(i.BoradInit) refers to player_system.o(i.PlayerThreadInit) for PlayerThreadInit
    main.o(i.BoradInit) refers to rtc_system.o(i.RTCThreadInit) for RTCThreadInit
    main.o(i.BoradInit) refers to logic_control.o(i.LogicThreadInit) for LogicThreadInit
    main.o(i.main) refers to main.o(i.BoradInit) for BoradInit
    main.o(i.main) refers to scheduler.o(i.rt_system_scheduler_init) for rt_system_scheduler_init
    main.o(i.main) refers to thread.o(i.rt_thread_init) for rt_thread_init
    main.o(i.main) refers to scheduler.o(i.rt_system_scheduler_start) for rt_system_scheduler_start
    main.o(i.main) refers to main.o(.bss) for LogicThreadStack
    main.o(i.main) refers to logic_control.o(i.LogicThreadEntry) for LogicThreadEntry
    main.o(i.main) refers to option_manager.o(i.MenuThreadEntry) for MenuThreadEntry
    main.o(i.main) refers to player_system.o(i.PlayerThreadEntry) for PlayerThreadEntry
    main.o(i.main) refers to game_system.o(i.GameThreadEntry) for GameThreadEntry
    main.o(i.main) refers to scheduler.o(.data) for g_ptScheduleThread
    stm32f10x_it.o(i.SysTick_Handler) refers to printf3.o(i.__0printf$3) for __2printf
    drive_gpio.o(i.STD_DHT11GpioConfigure) refers to stm32f10x_rcc.o(i.RCC_APB2PeriphClockCmd) for RCC_APB2PeriphClockCmd
    drive_gpio.o(i.STD_DHT11GpioConfigure) refers to stm32f10x_gpio.o(i.GPIO_Init) for GPIO_Init
    drive_gpio.o(i.STD_GPIOButtonConfig) refers to stm32f10x_rcc.o(i.RCC_APB2PeriphClockCmd) for RCC_APB2PeriphClockCmd
    drive_gpio.o(i.STD_GPIOButtonConfig) refers to stm32f10x_gpio.o(i.GPIO_Init) for GPIO_Init
    drive_gpio.o(i.STD_GPIOLedDevConfig) refers to stm32f10x_rcc.o(i.RCC_APB2PeriphClockCmd) for RCC_APB2PeriphClockCmd
    drive_gpio.o(i.STD_GPIOLedDevConfig) refers to stm32f10x_gpio.o(i.GPIO_Init) for GPIO_Init
    drive_timer.o(i.STD_Timer3Config) refers to stm32f10x_rcc.o(i.RCC_APB1PeriphClockCmd) for RCC_APB1PeriphClockCmd
    drive_timer.o(i.STD_Timer3Config) refers to stm32f10x_tim.o(i.TIM_TimeBaseInit) for TIM_TimeBaseInit
    drive_timer.o(i.STD_Timer3Config) refers to misc.o(i.NVIC_Init) for NVIC_Init
    drive_timer.o(i.STD_Timer3Config) refers to stm32f10x_tim.o(i.TIM_ITConfig) for TIM_ITConfig
    drive_timer.o(i.STD_Timer3Config) refers to stm32f10x_tim.o(i.TIM_ClearITPendingBit) for TIM_ClearITPendingBit
    drive_timer.o(i.STD_Timer3Config) refers to stm32f10x_tim.o(i.TIM_Cmd) for TIM_Cmd
    drive_timer.o(i.STD_TimerConfig) refers to stm32f10x_rcc.o(i.RCC_APB1PeriphClockCmd) for RCC_APB1PeriphClockCmd
    drive_timer.o(i.STD_TimerConfig) refers to stm32f10x_tim.o(i.TIM_TimeBaseInit) for TIM_TimeBaseInit
    drive_timer.o(i.STD_TimerConfig) refers to misc.o(i.NVIC_Init) for NVIC_Init
    drive_timer.o(i.STD_TimerConfig) refers to stm32f10x_tim.o(i.TIM_ITConfig) for TIM_ITConfig
    drive_timer.o(i.STD_TimerConfig) refers to stm32f10x_tim.o(i.TIM_ClearITPendingBit) for TIM_ClearITPendingBit
    drive_timer.o(i.STD_TimerConfig) refers to stm32f10x_tim.o(i.TIM_Cmd) for TIM_Cmd
    drive_timer.o(i.SetTimerProcessFunction) refers to drive_timer.o(.data) for g_fTimerProcessFunction
    drive_timer.o(i.TIM2_IRQHandler) refers to stm32f10x_tim.o(i.TIM_GetITStatus) for TIM_GetITStatus
    drive_timer.o(i.TIM2_IRQHandler) refers to stm32f10x_tim.o(i.TIM_ClearITPendingBit) for TIM_ClearITPendingBit
    drive_timer.o(i.TIM2_IRQHandler) refers to display_system.o(i.TimerFlushDisplayDev) for TimerFlushDisplayDev
    drive_timer.o(i.TIM2_IRQHandler) refers to drive_timer.o(.data) for g_fTimerProcessFunction
    drive_timer.o(i.TIM2_IRQHandler) refers to display_device.o(.data) for flush_start
    drive_timer.o(i.TIM3_IRQHandler) refers to stm32f10x_tim.o(i.TIM_GetITStatus) for TIM_GetITStatus
    drive_timer.o(i.TIM3_IRQHandler) refers to stm32f10x_tim.o(i.TIM_ClearITPendingBit) for TIM_ClearITPendingBit
    drive_timer.o(i.TIM3_IRQHandler) refers to drive_delay.o(i.TimingDelay_Decrement) for TimingDelay_Decrement
    drive_usart.o(i.NVIC_Configuration) refers to misc.o(i.NVIC_PriorityGroupConfig) for NVIC_PriorityGroupConfig
    drive_usart.o(i.NVIC_Configuration) refers to misc.o(i.NVIC_Init) for NVIC_Init
    drive_usart.o(i.USART1_IRQHandler) refers to stm32f10x_usart.o(i.USART_ReceiveData) for USART_ReceiveData
    drive_usart.o(i.USART1_IRQHandler) refers to ring_buffer.o(i.ring_buffer_write) for ring_buffer_write
    drive_usart.o(i.USART1_IRQHandler) refers to drive_usart.o(.bss) for usart1_ring_buffer
    drive_usart.o(i.USART_Config) refers to stm32f10x_rcc.o(i.RCC_APB2PeriphClockCmd) for RCC_APB2PeriphClockCmd
    drive_usart.o(i.USART_Config) refers to stm32f10x_gpio.o(i.GPIO_Init) for GPIO_Init
    drive_usart.o(i.USART_Config) refers to stm32f10x_usart.o(i.USART_Init) for USART_Init
    drive_usart.o(i.USART_Config) refers to drive_usart.o(i.NVIC_Configuration) for NVIC_Configuration
    drive_usart.o(i.USART_Config) refers to stm32f10x_usart.o(i.USART_ITConfig) for USART_ITConfig
    drive_usart.o(i.USART_Config) refers to stm32f10x_usart.o(i.USART_Cmd) for USART_Cmd
    drive_usart.o(i.Usart_SendByte) refers to stm32f10x_usart.o(i.USART_SendData) for USART_SendData
    drive_usart.o(i.Usart_SendByte) refers to stm32f10x_usart.o(i.USART_GetFlagStatus) for USART_GetFlagStatus
    drive_usart.o(i.Usart_SendString) refers to drive_usart.o(i.Usart_SendByte) for Usart_SendByte
    drive_usart.o(i.Usart_SendString) refers to stm32f10x_usart.o(i.USART_GetFlagStatus) for USART_GetFlagStatus
    drive_usart.o(i.fgetc) refers to ring_buffer.o(i.ring_buffer_read) for ring_buffer_read
    drive_usart.o(i.fgetc) refers to drive_usart.o(.bss) for usart1_ring_buffer
    drive_usart.o(i.fputc) refers to drive_usart.o(i.Usart_SendByte) for Usart_SendByte
    drive_i2c.o(i.STD_GPIOI2CDevConfig) refers to stm32f10x_rcc.o(i.RCC_APB1PeriphClockCmd) for RCC_APB1PeriphClockCmd
    drive_i2c.o(i.STD_GPIOI2CDevConfig) refers to stm32f10x_rcc.o(i.RCC_APB2PeriphClockCmd) for RCC_APB2PeriphClockCmd
    drive_i2c.o(i.STD_GPIOI2CDevConfig) refers to stm32f10x_gpio.o(i.GPIO_Init) for GPIO_Init
    drive_i2c.o(i.STD_GPIOI2CDevConfig) refers to stm32f10x_i2c.o(i.I2C_Init) for I2C_Init
    drive_i2c.o(i.STD_GPIOI2CDevConfig) refers to stm32f10x_i2c.o(i.I2C_Cmd) for I2C_Cmd
    drive_i2c.o(i.STD_I2CDMACfg) refers to stm32f10x_rcc.o(i.RCC_AHBPeriphClockCmd) for RCC_AHBPeriphClockCmd
    drive_i2c.o(i.STD_I2CDMACfg) refers to stm32f10x_dma.o(i.DMA_DeInit) for DMA_DeInit
    drive_i2c.o(i.STD_I2CDMACfg) refers to stm32f10x_dma.o(i.DMA_Init) for DMA_Init
    drive_i2c.o(i.STD_I2CDMACfg) refers to misc.o(i.NVIC_Init) for NVIC_Init
    drive_i2c.o(i.STD_I2CDMACfg) refers to stm32f10x_dma.o(i.DMA_ITConfig) for DMA_ITConfig
    drive_i2c.o(i.STD_I2CDMAEnable) refers to stm32f10x_dma.o(i.DMA_Cmd) for DMA_Cmd
    drive_i2c.o(i.STD_I2CDMAEnable) refers to stm32f10x_dma.o(i.DMA_SetCurrDataCounter) for DMA_SetCurrDataCounter
    drive_pwm.o(i.STD_BeepDevicePWMCfg) refers to stm32f10x_rcc.o(i.RCC_APB1PeriphClockCmd) for RCC_APB1PeriphClockCmd
    drive_pwm.o(i.STD_BeepDevicePWMCfg) refers to stm32f10x_tim.o(i.TIM_TimeBaseInit) for TIM_TimeBaseInit
    drive_pwm.o(i.STD_BeepDevicePWMCfg) refers to stm32f10x_tim.o(i.TIM_OC3Init) for TIM_OC3Init
    drive_pwm.o(i.STD_BeepDevicePWMCfg) refers to stm32f10x_tim.o(i.TIM_OC3PreloadConfig) for TIM_OC3PreloadConfig
    drive_pwm.o(i.STD_BeepDevicePWMCfg) refers to stm32f10x_tim.o(i.TIM_Cmd) for TIM_Cmd
    drive_pwm.o(i.STD_BeepDevicePWMOff) refers to drive_pwm.o(i.STD_BeepDevicePWMCfg) for STD_BeepDevicePWMCfg
    drive_pwm.o(i.STD_GPIOBeepDevConfig) refers to stm32f10x_rcc.o(i.RCC_APB2PeriphClockCmd) for RCC_APB2PeriphClockCmd
    drive_pwm.o(i.STD_GPIOBeepDevConfig) refers to stm32f10x_gpio.o(i.GPIO_Init) for GPIO_Init
    drive_delay.o(i.Delay_10us) refers to stm32f10x_tim.o(i.TIM_Cmd) for TIM_Cmd
    drive_delay.o(i.Delay_10us) refers to drive_delay.o(.data) for TimingDelay
    drive_delay.o(i.Delay_ms) refers to drive_delay.o(i.Delay_10us) for Delay_10us
    drive_delay.o(i.TimingDelay_Decrement) refers to drive_delay.o(.data) for TimingDelay
    drive_rtc.o(i.RtcNvicConfig) refers to misc.o(i.NVIC_Init) for NVIC_Init
    drive_rtc.o(i.RtcPeripheralConfig) refers to stm32f10x_rcc.o(i.RCC_APB1PeriphClockCmd) for RCC_APB1PeriphClockCmd
    drive_rtc.o(i.RtcPeripheralConfig) refers to stm32f10x_pwr.o(i.PWR_BackupAccessCmd) for PWR_BackupAccessCmd
    drive_rtc.o(i.RtcPeripheralConfig) refers to stm32f10x_bkp.o(i.BKP_DeInit) for BKP_DeInit
    drive_rtc.o(i.RtcPeripheralConfig) refers to stm32f10x_rcc.o(i.RCC_LSICmd) for RCC_LSICmd
    drive_rtc.o(i.RtcPeripheralConfig) refers to stm32f10x_rcc.o(i.RCC_GetFlagStatus) for RCC_GetFlagStatus
    drive_rtc.o(i.RtcPeripheralConfig) refers to stm32f10x_rcc.o(i.RCC_RTCCLKConfig) for RCC_RTCCLKConfig
    drive_rtc.o(i.RtcPeripheralConfig) refers to stm32f10x_rcc.o(i.RCC_RTCCLKCmd) for RCC_RTCCLKCmd
    drive_rtc.o(i.RtcPeripheralConfig) refers to stm32f10x_rtc.o(i.RTC_WaitForSynchro) for RTC_WaitForSynchro
    drive_rtc.o(i.RtcPeripheralConfig) refers to stm32f10x_rtc.o(i.RTC_WaitForLastTask) for RTC_WaitForLastTask
    drive_rtc.o(i.RtcPeripheralConfig) refers to stm32f10x_rtc.o(i.RTC_ITConfig) for RTC_ITConfig
    drive_rtc.o(i.RtcPeripheralConfig) refers to stm32f10x_rtc.o(i.RTC_EnterConfigMode) for RTC_EnterConfigMode
    drive_rtc.o(i.RtcPeripheralConfig) refers to stm32f10x_rtc.o(i.RTC_SetPrescaler) for RTC_SetPrescaler
    drive_rtc.o(i.RtcPeripheralConfig) refers to stm32f10x_rtc.o(i.RTC_ExitConfigMode) for RTC_ExitConfigMode
    cal_button.o(i.CAL_GPIOButtonInit) refers to drive_gpio.o(i.STD_GPIOButtonConfig) for STD_GPIOButtonConfig
    cal_timer.o(i.CAL_TimerInit) refers to drive_timer.o(i.STD_TimerConfig) for STD_TimerConfig
    cal_led.o(i.CAL_GPIOLedDevControl) refers to drive_gpio.o(i.STD_GPIOLedDevControl) for STD_GPIOLedDevControl
    cal_led.o(i.CAL_GPIOLedDevInit) refers to drive_gpio.o(i.STD_GPIOLedDevConfig) for STD_GPIOLedDevConfig
    cal_i2c.o(i.CAL_GPIOI2CDevInit) refers to drive_i2c.o(i.STD_GPIOI2CDevConfig) for STD_GPIOI2CDevConfig
    cal_i2c.o(i.CAL_I2CDMACfg) refers to drive_i2c.o(i.STD_I2CDMACfg) for STD_I2CDMACfg
    cal_i2c.o(i.CAL_I2CDMAEnable) refers to drive_i2c.o(i.STD_I2CDMAEnable) for STD_I2CDMAEnable
    cal_beep.o(i.CAL_BeepDevicePWMCfg) refers to drive_pwm.o(i.STD_BeepDevicePWMCfg) for STD_BeepDevicePWMCfg
    cal_beep.o(i.CAL_BeepDevicePWMOff) refers to drive_pwm.o(i.STD_BeepDevicePWMOff) for STD_BeepDevicePWMOff
    cal_beep.o(i.CAL_BeepDevicePWMOn) refers to drive_pwm.o(i.STD_BeepDevicePWMOff) for STD_BeepDevicePWMOff
    cal_beep.o(i.CAL_HardwareBeepDevInit) refers to drive_pwm.o(i.STD_GPIOBeepDevConfig) for STD_GPIOBeepDevConfig
    kal_button.o(i.KAL_GPIOButtonInit) refers to cal_button.o(i.CAL_GPIOButtonInit) for CAL_GPIOButtonInit
    kal_timer.o(i.KAL_TimerInit) refers to cal_timer.o(i.CAL_TimerInit) for CAL_TimerInit
    kal_led.o(i.KAL_GPIOLedDevControl) refers to cal_led.o(i.CAL_GPIOLedDevControl) for CAL_GPIOLedDevControl
    kal_led.o(i.KAL_GPIOLedDevInit) refers to cal_led.o(i.CAL_GPIOLedDevInit) for CAL_GPIOLedDevInit
    kal_i2c.o(i.KAL_GPIOI2CDevInit) refers to cal_i2c.o(i.CAL_GPIOI2CDevInit) for CAL_GPIOI2CDevInit
    kal_i2c.o(i.KAL_I2CDMACfg) refers to cal_i2c.o(i.CAL_I2CDMACfg) for CAL_I2CDMACfg
    kal_i2c.o(i.KAL_I2CDMAEnable) refers to cal_i2c.o(i.CAL_I2CDMAEnable) for CAL_I2CDMAEnable
    kal_beep.o(i.KAL_BeepDevicePWMCfg) refers to cal_beep.o(i.CAL_BeepDevicePWMCfg) for CAL_BeepDevicePWMCfg
    kal_beep.o(i.KAL_BeepDevicePWMOff) refers to cal_beep.o(i.CAL_BeepDevicePWMOff) for CAL_BeepDevicePWMOff
    kal_beep.o(i.KAL_BeepDevicePWMOn) refers to cal_beep.o(i.CAL_BeepDevicePWMOn) for CAL_BeepDevicePWMOn
    kal_beep.o(i.KAL_HardwareBeepDevInit) refers to cal_beep.o(i.CAL_HardwareBeepDevInit) for CAL_HardwareBeepDevInit
    convert.o(i.GetGregorianDay) refers to memcpya.o(.text) for __aeabi_memcpy4
    convert.o(i.GetGregorianDay) refers to convert.o(.constdata) for .constdata
    convert.o(i.GetNormalTime) refers to convert.o(i.GetGregorianDay) for GetGregorianDay
    convert.o(i.GetNormalTime) refers to convert.o(.data) for month_days
    rtc_device.o(i.RTCNormalTime) refers to stm32f10x_rtc.o(i.RTC_GetCounter) for RTC_GetCounter
    rtc_device.o(i.RTCNormalTime) refers to convert.o(i.GetNormalTime) for GetNormalTime
    rtc_device.o(i.RTCTimeStamp) refers to drive_rtc.o(i.RtcPeripheralConfig) for RtcPeripheralConfig
    rtc_device.o(i.RTCTimeStamp) refers to stm32f10x_rtc.o(i.RTC_WaitForLastTask) for RTC_WaitForLastTask
    rtc_device.o(i.RTCTimeStamp) refers to convert.o(i.GetUnixTime) for GetUnixTime
    rtc_device.o(i.RTCTimeStamp) refers to stm32f10x_rtc.o(i.RTC_SetCounter) for RTC_SetCounter
    rtc_device.o(i.RtcNvicInit) refers to drive_rtc.o(i.RtcNvicConfig) for RtcNvicConfig
    rtc_device.o(i.UartSetNormalTime) refers to _scanf_int.o(.text) for _scanf_int
    rtc_device.o(i.UartSetNormalTime) refers to printf3.o(i.__0printf$3) for __2printf
    rtc_device.o(i.UartSetNormalTime) refers to __0scanf.o(.text) for __0scanf
    rtc_device.o(i.UartSetNormalTime) refers to rtc_device.o(.conststring) for .conststring
    rtc_system.o(i.RTCInit) refers to rtc_device.o(i.RTCTimeStamp) for RTCTimeStamp
    rtc_system.o(i.RTCInit) refers to rtc_device.o(i.RtcNvicInit) for RtcNvicInit
    rtc_system.o(i.RTCInit) refers to rtc_system.o(.bss) for g_tNormTime
    rtc_system.o(i.RTCPublish) refers to message_manager.o(i.CoreProcss) for CoreProcss
    rtc_system.o(i.RTCThreadInit) refers to printf3.o(i.__0printf$3) for __2printf
    rtc_system.o(i.RTCThreadInit) refers to message_manager.o(i.RegisterMessage) for RegisterMessage
    rtc_system.o(i.RTC_IRQHandler) refers to stm32f10x_rtc.o(i.RTC_GetITStatus) for RTC_GetITStatus
    rtc_system.o(i.RTC_IRQHandler) refers to stm32f10x_rtc.o(i.RTC_ClearITPendingBit) for RTC_ClearITPendingBit
    rtc_system.o(i.RTC_IRQHandler) refers to stm32f10x_rtc.o(i.RTC_WaitForLastTask) for RTC_WaitForLastTask
    rtc_system.o(i.RTC_IRQHandler) refers to rtc_device.o(i.RTCNormalTime) for RTCNormalTime
    rtc_system.o(i.RTC_IRQHandler) refers to rtc_system.o(.bss) for g_tNormTime
    rtc_system.o(i.RTC_IRQHandler) refers to rtc_system.o(.data) for g_tPublisherrRTC
    rtc_system.o(i.rtc_test) refers to rtc_system.o(i.RTCInit) for RTCInit
    rtc_system.o(i.rtc_test) refers to printf3.o(i.__0printf$3) for __2printf
    rtc_system.o(i.rtc_test) refers to drive_delay.o(i.delay) for delay
    rtc_system.o(i.rtc_test) refers to rtc_system.o(.bss) for g_tNormTime
    rtc_system.o(.data) refers to rtc_system.o(.conststring) for .conststring
    rtc_system.o(.data) refers to rtc_system.o(.bss) for g_tNormTime
    rtc_system.o(.data) refers to rtc_system.o(i.RTCPublish) for RTCPublish
    led.o(i.AddLedDeviceToManager) refers to led_device.o(i.LedDeviceRegister) for LedDeviceRegister
    led.o(i.AddLedDeviceToManager) refers to led.o(.data) for LED_WHITE
    led.o(i.LedDeviceControl) refers to kal_led.o(i.KAL_GPIOLedDevControl) for KAL_GPIOLedDevControl
    led.o(i.LedDeviceInit) refers to kal_led.o(i.KAL_GPIOLedDevInit) for KAL_GPIOLedDevInit
    led.o(.data) refers to led.o(i.LedDeviceInit) for LedDeviceInit
    led.o(.data) refers to led.o(i.LedDeviceControl) for LedDeviceControl
    led_device.o(i.LedDeviceRegister) refers to led_device.o(.bss) for g_tLedDeviceManager
    led_device.o(i.__GetLedDevice) refers to strcmp.o(.text) for strcmp
    led_device.o(i.__GetLedDevice) refers to led_device.o(.bss) for g_tLedDeviceManager
    led_system.o(i.AddLedDevice) refers to led.o(i.AddLedDeviceToManager) for AddLedDeviceToManager
    led_system.o(i.GetLedDevice) refers to led_device.o(i.__GetLedDevice) for __GetLedDevice
    dht11_device.o(i.DHT11Init) refers to drive_gpio.o(i.STD_DHT11GpioConfigure) for STD_DHT11GpioConfigure
    dht11_device.o(i.DHT11ReceiveAck) refers to drive_delay.o(i.Delay_10us) for Delay_10us
    dht11_device.o(i.DHT11ReceiveAck) refers to stm32f10x_gpio.o(i.GPIO_ReadInputDataBit) for GPIO_ReadInputDataBit
    dht11_device.o(i.DHT11ReceiveByte) refers to stm32f10x_gpio.o(i.GPIO_ReadInputDataBit) for GPIO_ReadInputDataBit
    dht11_device.o(i.DHT11ReceiveByte) refers to drive_delay.o(i.Delay_10us) for Delay_10us
    dht11_device.o(i.DHT11ReceiveData) refers to dht11_device.o(i.DHT11Start) for DHT11Start
    dht11_device.o(i.DHT11ReceiveData) refers to dht11_device.o(i.DHT11ReceiveAck) for DHT11ReceiveAck
    dht11_device.o(i.DHT11ReceiveData) refers to dht11_device.o(i.DHT11ReceiveByte) for DHT11ReceiveByte
    dht11_device.o(i.DHT11ReceiveData) refers to printf3.o(i.__0printf$3) for __2printf
    dht11_device.o(i.DHT11Start) refers to drive_delay.o(i.Delay_10us) for Delay_10us
    dht11_device.o(i.DHT11Start) refers to stm32f10x_gpio.o(i.GPIO_WriteBit) for GPIO_WriteBit
    dht11_device.o(i.DHT11Start) refers to drive_delay.o(i.Delay_ms) for Delay_ms
    i2c.o(i.AddI2CDeviceI2C1) refers to i2c_device.o(i.I2CDeviceRegister) for I2CDeviceRegister
    i2c.o(i.AddI2CDeviceI2C1) refers to i2c.o(.data) for I2C1_DEV
    i2c.o(i.I2CDeviceDMACfg) refers to kal_i2c.o(i.KAL_I2CDMACfg) for KAL_I2CDMACfg
    i2c.o(i.I2CDeviceDMAEnable) refers to kal_i2c.o(i.KAL_I2CDMAEnable) for KAL_I2CDMAEnable
    i2c.o(i.I2CDeviceInit) refers to kal_i2c.o(i.KAL_GPIOI2CDevInit) for KAL_GPIOI2CDevInit
    i2c.o(.data) refers to i2c.o(i.I2CDeviceInit) for I2CDeviceInit
    i2c.o(.data) refers to i2c.o(i.I2CDeviceDMACfg) for I2CDeviceDMACfg
    i2c.o(.data) refers to i2c.o(i.I2CDeviceDMAEnable) for I2CDeviceDMAEnable
    i2c_device.o(i.I2CDeviceRegister) refers to i2c_device.o(.bss) for g_tI2CDeviceManager
    i2c_device.o(i.__GetI2CDevice) refers to strcmp.o(.text) for strcmp
    i2c_device.o(i.__GetI2CDevice) refers to i2c_device.o(.bss) for g_tI2CDeviceManager
    i2c_system.o(i.ADDI2CDevice) refers to i2c.o(i.AddI2CDeviceI2C1) for AddI2CDeviceI2C1
    i2c_system.o(i.GetI2CDevice) refers to i2c_device.o(i.__GetI2CDevice) for __GetI2CDevice
    button.o(i.AddButtonDeviceKEY) refers to button_device.o(i.ButtonRegister) for ButtonRegister
    button.o(i.AddButtonDeviceKEY) refers to button.o(.data) for button_1
    button.o(i.SetButtonInputDeviceCallBack) refers to button.o(.data) for g_fButtonCallBack
    button.o(i.button_cb) refers to button.o(.data) for g_fButtonCallBack
    button.o(.data) refers to button.o(i.button_cb) for button_cb
    button_device.o(i.ButtonRegister) refers to button_device.o(i.GPIOButtonInit) for GPIOButtonInit
    button_device.o(i.ButtonRegister) refers to button_device.o(.bss) for g_tButtonDevcieManager
    button_device.o(i.ButtonTimerInit) refers to kal_timer.o(i.KAL_TimerInit) for KAL_TimerInit
    button_device.o(i.ConstrcutorButtonManage) refers to malloc.o(i.malloc) for malloc
    button_device.o(i.ConstrcutorButtonManage) refers to button_device.o(.data) for ptManage
    button_device.o(i.ConstrcutorButtonManage) refers to button_device.o(i.ButtonTimerInit) for ButtonTimerInit
    button_device.o(i.GPIOButtonInit) refers to kal_button.o(i.KAL_GPIOButtonInit) for KAL_GPIOButtonInit
    button_device.o(i.__ButtonDevcieManagerInit) refers to button_device.o(i.ConstrcutorButtonManage) for ConstrcutorButtonManage
    button_device.o(i.__ButtonDevcieManagerInit) refers to memcpya.o(.text) for __aeabi_memcpy4
    button_device.o(i.__ButtonDevcieManagerInit) refers to drive_timer.o(i.SetTimerProcessFunction) for SetTimerProcessFunction
    button_device.o(i.__ButtonDevcieManagerInit) refers to button_device.o(.bss) for g_tButtonDevcieManager
    button_device.o(i.__ButtonDevcieManagerInit) refers to button_device.o(i.my_button_scan) for my_button_scan
    button_device.o(i.__GetButton) refers to strcmp.o(.text) for strcmp
    button_device.o(i.__GetButton) refers to button_device.o(.bss) for g_tButtonDevcieManager
    button_device.o(i.my_button_scan) refers to stm32f10x_gpio.o(i.GPIO_ReadInputDataBit) for GPIO_ReadInputDataBit
    button_device.o(i.my_button_scan) refers to button_device.o(.bss) for g_tButtonDevcieManager
    button_system.o(i.AddButtonDevice) refers to button_device.o(i.__ButtonDevcieManagerInit) for __ButtonDevcieManagerInit
    button_system.o(i.AddButtonDevice) refers to button.o(i.AddButtonDeviceKEY) for AddButtonDeviceKEY
    button_system.o(i.GetButtonDevice) refers to button_device.o(i.__GetButton) for __GetButton
    button_input.o(i.AddButtonInputDevice) refers to input_device.o(i.InputDeviceRegister) for InputDeviceRegister
    button_input.o(i.AddButtonInputDevice) refers to button_input.o(.data) for g_tButtonInputDevice
    button_input.o(i.ButtonInputDeviceCallBack) refers to input_buffer.o(i.PutInputBuffer) for PutInputBuffer
    button_input.o(i.ButtonInputDeviceCallBack) refers to printf3.o(i.__0printf$3) for __2printf
    button_input.o(i.ButtonInputDeviceCallBack) refers to scheduler.o(i.rt_schedule) for rt_schedule
    button_input.o(i.ButtonInputDeviceCallBack) refers to main.o(.bss) for g_tLogicThread
    button_input.o(i.ButtonInputInit) refers to button.o(i.SetButtonInputDeviceCallBack) for SetButtonInputDeviceCallBack
    button_input.o(i.ButtonInputInit) refers to button_input.o(i.ButtonInputDeviceCallBack) for ButtonInputDeviceCallBack
    button_input.o(.data) refers to button_input.o(.conststring) for .conststring
    button_input.o(.data) refers to button_input.o(i.ButtonInputInit) for ButtonInputInit
    input_device.o(i.InputDeviceRegister) refers to input_device.o(.data) for g_ptInputDeviceManager
    input_device.o(i.__GetInputDevice) refers to strcmp.o(.text) for strcmp
    input_device.o(i.__GetInputDevice) refers to input_device.o(.data) for g_ptInputDeviceManager
    input_device.o(i.__InitInputDevice) refers to input_device.o(.data) for g_ptInputDeviceManager
    input_system.o(i.AddInputDevice) refers to button_input.o(i.AddButtonInputDevice) for AddButtonInputDevice
    input_system.o(i.GetInputDevice) refers to input_device.o(i.__GetInputDevice) for __GetInputDevice
    input_system.o(i.InitInputDevice) refers to input_device.o(i.__InitInputDevice) for __InitInputDevice
    input_buffer.o(i.GetInputBuffer) refers to memcpya.o(.text) for __aeabi_memcpy4
    input_buffer.o(i.GetInputBuffer) refers to input_buffer.o(.bss) for g_tInputEventBuffer
    input_buffer.o(i.PutInputBuffer) refers to memcpya.o(.text) for __aeabi_memcpy4
    input_buffer.o(i.PutInputBuffer) refers to input_buffer.o(.bss) for g_tInputEventBuffer
    oled.o(i.AddDisplayDeviceOLED) refers to display_device.o(i.DisplayDeviceRegister) for DisplayDeviceRegister
    oled.o(i.AddDisplayDeviceOLED) refers to oled.o(.data) for g_tOLEDdev
    oled.o(i.OLEDDeviceFlush) refers to oled_command.o(i.oled_gram_refresh_dma) for oled_gram_refresh_dma
    oled.o(i.OLEDDeviceInit) refers to oled_command.o(i.oled_init) for oled_init
    oled.o(.data) refers to oled.o(.bss) for g_OLEDFrameBuffer
    oled.o(.data) refers to oled.o(i.OLEDDeviceInit) for OLEDDeviceInit
    oled.o(.data) refers to oled.o(i.OLEDDeviceFlush) for OLEDDeviceFlush
    oled.o(.data) refers to oled.o(i.OLEDDeviceSetPixel) for OLEDDeviceSetPixel
    display_device.o(i.DisplayDevTimerFlushControl) refers to display_device.o(.data) for flush_start
    display_device.o(i.DisplayDeviceRegister) refers to display_device.o(.data) for g_tDisplayDeviceManager
    display_device.o(i.__DisplayDevTimerFlushControl) refers to display_device.o(.data) for g_tDisplayDeviceManager
    display_device.o(i.__GetDisplayDevice) refers to strcmp.o(.text) for strcmp
    display_device.o(i.__GetDisplayDevice) refers to display_device.o(.data) for g_tDisplayDeviceManager
    display_device.o(.data) refers to display_device.o(i.DisplayDevTimerFlushControl) for DisplayDevTimerFlushControl
    display_system.o(i.ADDDisplayDevice) refers to oled.o(i.AddDisplayDeviceOLED) for AddDisplayDeviceOLED
    display_system.o(i.GetDisplayDevice) refers to display_device.o(i.__GetDisplayDevice) for __GetDisplayDevice
    display_system.o(i.SetDefaultDisplayDev) refers to display_system.o(i.ADDDisplayDevice) for ADDDisplayDevice
    display_system.o(i.SetDefaultDisplayDev) refers to display_system.o(i.GetDisplayDevice) for GetDisplayDevice
    display_system.o(i.SetDefaultDisplayDev) refers to printf3.o(i.__0printf$3) for __2printf
    display_system.o(i.SetDefaultDisplayDev) refers to display_system.o(.data) for g_ptFaultDisplayDev
    display_system.o(i.TimerFlushDisplayDev) refers to display_system.o(.data) for iFPS
    display_system.o(i.TimerFlushDisplayDevControl) refers to display_device.o(i.__DisplayDevTimerFlushControl) for __DisplayDevTimerFlushControl
    oled_command.o(i.DMA1_Channel6_IRQHandler) refers to stm32f10x_dma.o(i.DMA_GetFlagStatus) for DMA_GetFlagStatus
    oled_command.o(i.DMA1_Channel6_IRQHandler) refers to stm32f10x_dma.o(i.DMA_ClearFlag) for DMA_ClearFlag
    oled_command.o(i.DMA1_Channel6_IRQHandler) refers to stm32f10x_i2c.o(i.I2C_GenerateSTOP) for I2C_GenerateSTOP
    oled_command.o(i.DMA1_Channel6_IRQHandler) refers to oled_command.o(.data) for OLED_I2C1_DMA_BUSYFLAG
    oled_command.o(i.OLEDByteSend) refers to stm32f10x_i2c.o(i.I2C_GetFlagStatus) for I2C_GetFlagStatus
    oled_command.o(i.OLEDByteSend) refers to stm32f10x_i2c.o(i.I2C_GenerateSTART) for I2C_GenerateSTART
    oled_command.o(i.OLEDByteSend) refers to stm32f10x_i2c.o(i.I2C_CheckEvent) for I2C_CheckEvent
    oled_command.o(i.OLEDByteSend) refers to stm32f10x_i2c.o(i.I2C_Send7bitAddress) for I2C_Send7bitAddress
    oled_command.o(i.OLEDByteSend) refers to stm32f10x_i2c.o(i.I2C_SendData) for I2C_SendData
    oled_command.o(i.OLEDByteSend) refers to stm32f10x_i2c.o(i.I2C_GenerateSTOP) for I2C_GenerateSTOP
    oled_command.o(i.OLEDCommandSend) refers to oled_command.o(i.OLEDByteSend) for OLEDByteSend
    oled_command.o(i.OLEDDataSend) refers to oled_command.o(i.OLEDByteSend) for OLEDByteSend
    oled_command.o(i.OLEDInfDevInit) refers to i2c_system.o(i.ADDI2CDevice) for ADDI2CDevice
    oled_command.o(i.OLEDInfDevInit) refers to i2c_system.o(i.GetI2CDevice) for GetI2CDevice
    oled_command.o(i.OLEDInfDevInit) refers to oled_command.o(.data) for g_ptI2CDevice
    oled_command.o(i.WaitForI2CDMABusy) refers to oled_command.o(.data) for OLED_I2C1_DMA_BUSYFLAG
    oled_command.o(i.oled_clear) refers to oled_command.o(i.oled_setcursor) for oled_setcursor
    oled_command.o(i.oled_clear) refers to oled_command.o(i.OLEDDataSend) for OLEDDataSend
    oled_command.o(i.oled_gram_refresh) refers to oled_command.o(i.oled_setcursor) for oled_setcursor
    oled_command.o(i.oled_gram_refresh) refers to oled_command.o(i.OLEDDataSend) for OLEDDataSend
    oled_command.o(i.oled_gram_refresh_dma) refers to stm32f10x_i2c.o(i.I2C_GetFlagStatus) for I2C_GetFlagStatus
    oled_command.o(i.oled_gram_refresh_dma) refers to stm32f10x_i2c.o(i.I2C_GenerateSTART) for I2C_GenerateSTART
    oled_command.o(i.oled_gram_refresh_dma) refers to stm32f10x_i2c.o(i.I2C_CheckEvent) for I2C_CheckEvent
    oled_command.o(i.oled_gram_refresh_dma) refers to stm32f10x_i2c.o(i.I2C_Send7bitAddress) for I2C_Send7bitAddress
    oled_command.o(i.oled_gram_refresh_dma) refers to stm32f10x_i2c.o(i.I2C_SendData) for I2C_SendData
    oled_command.o(i.oled_gram_refresh_dma) refers to oled_command.o(.data) for OLED_I2C1_DMA_BUSYFLAG
    oled_command.o(i.oled_gram_refresh_dma) refers to display_system.o(.data) for iFPS
    oled_command.o(i.oled_gram_refresh_onetime) refers to oled_command.o(i.oled_setcursor) for oled_setcursor
    oled_command.o(i.oled_gram_refresh_onetime) refers to stm32f10x_i2c.o(i.I2C_GetFlagStatus) for I2C_GetFlagStatus
    oled_command.o(i.oled_gram_refresh_onetime) refers to stm32f10x_i2c.o(i.I2C_GenerateSTART) for I2C_GenerateSTART
    oled_command.o(i.oled_gram_refresh_onetime) refers to stm32f10x_i2c.o(i.I2C_CheckEvent) for I2C_CheckEvent
    oled_command.o(i.oled_gram_refresh_onetime) refers to stm32f10x_i2c.o(i.I2C_Send7bitAddress) for I2C_Send7bitAddress
    oled_command.o(i.oled_gram_refresh_onetime) refers to stm32f10x_i2c.o(i.I2C_SendData) for I2C_SendData
    oled_command.o(i.oled_gram_refresh_onetime) refers to stm32f10x_i2c.o(i.I2C_GenerateSTOP) for I2C_GenerateSTOP
    oled_command.o(i.oled_init) refers to oled_command.o(i.OLEDInfDevInit) for OLEDInfDevInit
    oled_command.o(i.oled_init) refers to oled_command.o(i.OLEDCommandSend) for OLEDCommandSend
    oled_command.o(i.oled_init) refers to stm32f10x_i2c.o(i.I2C_DMACmd) for I2C_DMACmd
    oled_command.o(i.oled_init) refers to oled_command.o(.data) for g_ptI2CDevice
    oled_command.o(i.oled_setcursor) refers to oled_command.o(i.OLEDCommandSend) for OLEDCommandSend
    ascii_fontlib.o(i.ASCIIGetFontBitMap) refers to memcpya.o(.text) for __aeabi_memcpy
    ascii_fontlib.o(i.ASCIIGetFontBitMap) refers to ascii_fontlib.o(.constdata) for ascii_font
    ascii_fontlib.o(i.AddFontLibASCII) refers to fontlib_manager.o(i.FontLibRegister) for FontLibRegister
    ascii_fontlib.o(i.AddFontLibASCII) refers to ascii_fontlib.o(.data) for g_tASCIIFontLib
    ascii_fontlib.o(.data) refers to ascii_fontlib.o(i.ASCIIGetFontSize) for ASCIIGetFontSize
    ascii_fontlib.o(.data) refers to ascii_fontlib.o(i.ASCIIGetFontBitMap) for ASCIIGetFontBitMap
    fontlib_manager.o(i.FontLibRegister) refers to fontlib_manager.o(.bss) for g_tFontLibManager
    fontlib_manager.o(i.__GetFontLib) refers to strcmp.o(.text) for strcmp
    fontlib_manager.o(i.__GetFontLib) refers to fontlib_manager.o(.bss) for g_tFontLibManager
    fontlib_system.o(i.ADDFontLib) refers to ascii_fontlib.o(i.AddFontLibASCII) for AddFontLibASCII
    fontlib_system.o(i.GetFontBitMap) refers to fontlib_system.o(.data) for g_ptFaultFontlib
    fontlib_system.o(i.GetFontLib) refers to fontlib_manager.o(i.__GetFontLib) for __GetFontLib
    fontlib_system.o(i.SetDefaultFontLib) refers to fontlib_system.o(i.ADDFontLib) for ADDFontLib
    fontlib_system.o(i.SetDefaultFontLib) refers to fontlib_system.o(i.GetFontLib) for GetFontLib
    fontlib_system.o(i.SetDefaultFontLib) refers to printf3.o(i.__0printf$3) for __2printf
    fontlib_system.o(i.SetDefaultFontLib) refers to fontlib_system.o(.data) for g_ptFaultFontlib
    show_text.o(i.DrawBitMapOnFrameBuffer) refers to show_text.o(i.GetPixelColorFromFrameBuffer) for GetPixelColorFromFrameBuffer
    show_text.o(i.ShowNumberInDisplayDev) refers to show_text.o(i.reverse) for reverse
    show_text.o(i.ShowNumberInDisplayDev) refers to show_text.o(i.ShowTextInDisplayDev) for ShowTextInDisplayDev
    show_text.o(i.ShowNumberInDisplayDev) refers to show_text.o(.bss) for s
    show_text.o(i.ShowTextInDisplayDev) refers to encode_str.o(i.EncodeStr) for EncodeStr
    show_text.o(i.ShowTextInDisplayDev) refers to fontlib_system.o(i.GetFontBitMap) for GetFontBitMap
    show_text.o(i.ShowTextInDisplayDev) refers to show_text.o(i.DrawBitMapOnFrameBuffer) for DrawBitMapOnFrameBuffer
    beep.o(i.AddBeepDeviceBeep) refers to beep_device.o(i.BeepDeviceRegister) for BeepDeviceRegister
    beep.o(i.AddBeepDeviceBeep) refers to beep.o(.data) for g_tBeepDevice
    beep.o(i.BeepDeviceInit) refers to kal_beep.o(i.KAL_HardwareBeepDevInit) for KAL_HardwareBeepDevInit
    beep.o(i.BeepDevicePWMCfg) refers to kal_beep.o(i.KAL_BeepDevicePWMCfg) for KAL_BeepDevicePWMCfg
    beep.o(i.BeepDevicePWMOff) refers to kal_beep.o(i.KAL_BeepDevicePWMOff) for KAL_BeepDevicePWMOff
    beep.o(i.BeepDevicePWMOn) refers to kal_beep.o(i.KAL_BeepDevicePWMOn) for KAL_BeepDevicePWMOn
    beep.o(.data) refers to beep.o(i.BeepDeviceInit) for BeepDeviceInit
    beep.o(.data) refers to beep.o(i.BeepDevicePWMCfg) for BeepDevicePWMCfg
    beep.o(.data) refers to beep.o(i.BeepDevicePWMOn) for BeepDevicePWMOn
    beep.o(.data) refers to beep.o(i.BeepDevicePWMOff) for BeepDevicePWMOff
    beep_device.o(i.BeepDeviceRegister) refers to printf3.o(i.__0printf$3) for __2printf
    beep_device.o(i.BeepDeviceRegister) refers to beep_device.o(.bss) for g_tBeepDeviceManager
    beep_device.o(i.__GetBeepDevice) refers to strcmp.o(.text) for strcmp
    beep_device.o(i.__GetBeepDevice) refers to printf3.o(i.__0printf$3) for __2printf
    beep_device.o(i.__GetBeepDevice) refers to beep_device.o(.bss) for g_tBeepDeviceManager
    beep_system.o(i.ADDBeepDevice) refers to beep.o(i.AddBeepDeviceBeep) for AddBeepDeviceBeep
    beep_system.o(i.GetBeepDevice) refers to beep_device.o(i.__GetBeepDevice) for __GetBeepDevice
    decode.o(i.BeepSongDecode) refers to decode.o(.constdata) for sign_table
    decode.o(i.BeepSongDecode) refers to decode.o(.bss) for freq_table_new
    decode.o(i.BeepSongDecodeInit) refers to decode.o(i.BeepSongNewFreqTable) for BeepSongNewFreqTable
    decode.o(i.BeepSongDecodeInit) refers to printf3.o(i.__0printf$3) for __2printf
    decode.o(i.BeepSongGetData) refers to decode.o(i.BeepSongDecode) for BeepSongDecode
    decode.o(i.BeepSongNewFreqTable) refers to decode.o(.constdata) for freq_table
    decode.o(i.BeepSongNewFreqTable) refers to decode.o(.bss) for freq_table_new
    player.o(i.PlayerInit) refers to player_system.o(i.PlayerAddSong) for PlayerAddSong
    player.o(i.PlayerInit) refers to player_system.o(i.PlayerStart) for PlayerStart
    player.o(i.PlayerInit) refers to player_system.o(i.PlayerControl) for PlayerControl
    player.o(i.PlayerInit) refers to player_system.o(i.PlayerShow) for PlayerShow
    player.o(i.PlayerInit) refers to player.o(i.audio_init) for audio_init
    player.o(i.PlayerInit) refers to player.o(.bss) for aduio
    player.o(i.PlayerInit) refers to player.o(i.audio_open) for audio_open
    player.o(i.PlayerInit) refers to player.o(i.audio_close) for audio_close
    player.o(i.PlayerInit) refers to player.o(i.audio_control) for audio_control
    player.o(i.PlayerInit) refers to player.o(i.audio_write) for audio_write
    player.o(i.PlayerInit) refers to player.o(i.decode_init) for decode_init
    player.o(i.PlayerInit) refers to player.o(i.decode_control) for decode_control
    player.o(i.PlayerInit) refers to player.o(i.decode_read) for decode_read
    player.o(i.PlayerInit) refers to player.o(.constdata) for song1
    player.o(i.audio_close) refers to player.o(.data) for g_ptPlayerPilotLed
    player.o(i.audio_control) refers to player.o(.data) for beep_volume
    player.o(i.audio_init) refers to led_system.o(i.GetLedDevice) for GetLedDevice
    player.o(i.audio_init) refers to beep_system.o(i.GetBeepDevice) for GetBeepDevice
    player.o(i.audio_init) refers to player.o(.data) for g_ptPlayerPilotLed
    player.o(i.audio_open) refers to player.o(.data) for g_ptPlayerPilotLed
    player.o(i.audio_write) refers to drive_delay.o(i.delay) for delay
    player.o(i.audio_write) refers to player.o(.data) for g_ptPlayerPilotLed
    player.o(i.decode_control) refers to decode.o(i.GetBeepSongName) for GetBeepSongName
    player.o(i.decode_control) refers to decode.o(i.GetBeepSongLen) for GetBeepSongLen
    player.o(i.decode_init) refers to decode.o(i.BeepSongDecodeInit) for BeepSongDecodeInit
    player.o(i.decode_read) refers to decode.o(i.BeepSongGetData) for BeepSongGetData
    player_system.o(i.DefaultPlayerControl) refers to player_system.o(i.PlayerPlay) for PlayerPlay
    player_system.o(i.DefaultPlayerControl) refers to player_system.o(i.PlayerStop) for PlayerStop
    player_system.o(i.DefaultPlayerControl) refers to player_system.o(i.PlayerLast) for PlayerLast
    player_system.o(i.DefaultPlayerControl) refers to player_system.o(i.PlayerNext) for PlayerNext
    player_system.o(i.DefaultPlayerControl) refers to player_system.o(.data) for g_ptPlayerDev
    player_system.o(i.PlayerControl) refers to player_system.o(i.PlayerPlay) for PlayerPlay
    player_system.o(i.PlayerControl) refers to player_system.o(i.PlayerStop) for PlayerStop
    player_system.o(i.PlayerControl) refers to player_system.o(i.PlayerLast) for PlayerLast
    player_system.o(i.PlayerControl) refers to player_system.o(i.PlayerNext) for PlayerNext
    player_system.o(i.PlayerLast) refers to player_system.o(i.PlayerPlay) for PlayerPlay
    player_system.o(i.PlayerNext) refers to player_system.o(i.PlayerPlay) for PlayerPlay
    player_system.o(i.PlayerPublish) refers to message_manager.o(i.CoreProcss) for CoreProcss
    player_system.o(i.PlayerShow) refers to printf3.o(i.__0printf$3) for __2printf
    player_system.o(i.PlayerStart) refers to player_system.o(.data) for inited
    player_system.o(i.PlayerThreadEntry) refers to printf3.o(i.__0printf$3) for __2printf
    player_system.o(i.PlayerThreadEntry) refers to player_system.o(i.PlayerNext) for PlayerNext
    player_system.o(i.PlayerThreadEntry) refers to player_system.o(i.PlayerShow) for PlayerShow
    player_system.o(i.PlayerThreadEntry) refers to drive_delay.o(i.delay) for delay
    player_system.o(i.PlayerThreadEntry) refers to player_system.o(.data) for g_ptPlayerDev
    player_system.o(i.PlayerThreadInit) refers to printf3.o(i.__0printf$3) for __2printf
    player_system.o(i.PlayerThreadInit) refers to player.o(i.PlayerInit) for PlayerInit
    player_system.o(i.PlayerThreadInit) refers to message_manager.o(i.RegisterMessage) for RegisterMessage
    player_system.o(i.PlayerThreadInit) refers to player_system.o(.data) for g_ptPlayerDev
    player_system.o(.data) refers to player_system.o(.conststring) for .conststring
    player_system.o(.data) refers to player_system.o(i.PlayerPublish) for PlayerPublish
    show_graph.o(i.ClearGraphInDisplayDev) refers to show_graph.o(i.ClearGraphBitMapOnFrameBuffer) for ClearGraphBitMapOnFrameBuffer
    show_graph.o(i.ClearGraphInDisplayDev) refers to oled_command.o(.data) for OLED_I2C1_DMA_BUSYFLAG
    show_graph.o(i.ClearInDisplayDev) refers to oled_command.o(.data) for OLED_I2C1_DMA_BUSYFLAG
    show_graph.o(i.DrawGraphBitMapOnFrameBuffer) refers to show_graph.o(i.GetGraphPixelColorFromFrameBuffer) for GetGraphPixelColorFromFrameBuffer
    show_graph.o(i.ShowGraphInDisplayDev) refers to show_graph.o(i.DrawGraphBitMapOnFrameBuffer) for DrawGraphBitMapOnFrameBuffer
    role.o(i.AddRoleToManager) refers to role_manager.o(i.RoleRegister) for RoleRegister
    role.o(i.AddRoleToManager) refers to role.o(.data) for g_tGameRoleCloud1
    role.o(i.clear_cactus) refers to show_graph.o(i.ClearGraphInDisplayDev) for ClearGraphInDisplayDev
    role.o(i.clear_cactus) refers to displaydev_init.o(.data) for g_ptOledDev
    role.o(i.clear_cloud) refers to show_graph.o(i.ClearGraphInDisplayDev) for ClearGraphInDisplayDev
    role.o(i.clear_cloud) refers to displaydev_init.o(.data) for g_ptOledDev
    role.o(i.clear_dinosaur) refers to show_graph.o(i.ClearGraphInDisplayDev) for ClearGraphInDisplayDev
    role.o(i.clear_dinosaur) refers to displaydev_init.o(.data) for g_ptOledDev
    role.o(i.excute_cactus1) refers to role.o(i.clear_cactus) for clear_cactus
    role.o(i.excute_cactus1) refers to role.o(i.move_cactus1) for move_cactus1
    role.o(i.excute_cactus1) refers to role.o(i.load_cactus) for load_cactus
    role.o(i.excute_cactus2) refers to role.o(i.clear_cactus) for clear_cactus
    role.o(i.excute_cactus2) refers to role.o(i.move_cactus2) for move_cactus2
    role.o(i.excute_cactus2) refers to role.o(i.load_cactus) for load_cactus
    role.o(i.excute_cloud) refers to role.o(i.clear_cloud) for clear_cloud
    role.o(i.excute_cloud) refers to role.o(i.move_cloud) for move_cloud
    role.o(i.excute_cloud) refers to role.o(i.load_cloud) for load_cloud
    role.o(i.excute_dinosaur) refers to role.o(i.clear_dinosaur) for clear_dinosaur
    role.o(i.excute_dinosaur) refers to role.o(i.move_dinosaur) for move_dinosaur
    role.o(i.excute_dinosaur) refers to role.o(i.load_dinosaur) for load_dinosaur
    role.o(i.excute_ground) refers to role.o(i.clear_ground) for clear_ground
    role.o(i.excute_ground) refers to role.o(i.move_ground) for move_ground
    role.o(i.excute_ground) refers to role.o(i.load_ground) for load_ground
    role.o(i.load_cactus) refers to show_graph.o(i.ShowGraphInDisplayDev) for ShowGraphInDisplayDev
    role.o(i.load_cactus) refers to displaydev_init.o(.data) for g_ptOledDev
    role.o(i.load_cloud) refers to show_graph.o(i.ShowGraphInDisplayDev) for ShowGraphInDisplayDev
    role.o(i.load_cloud) refers to displaydev_init.o(.data) for g_ptOledDev
    role.o(i.load_dinosaur) refers to show_graph.o(i.ShowGraphInDisplayDev) for ShowGraphInDisplayDev
    role.o(i.load_dinosaur) refers to displaydev_init.o(.data) for g_ptOledDev
    role.o(i.load_ground) refers to show_graph.o(i.ShowGraphInDisplayDev) for ShowGraphInDisplayDev
    role.o(i.load_ground) refers to displaydev_init.o(.data) for g_ptOledDev
    role.o(i.move_cactus1) refers to rand.o(.text) for rand
    role.o(i.move_cactus1) refers to role.o(.data) for cactus1_position
    role.o(i.move_cactus2) refers to rand.o(.text) for rand
    role.o(i.move_cactus2) refers to role.o(.data) for cactus2_position
    role.o(i.move_cloud) refers to rand.o(.text) for rand
    role.o(i.move_dinosaur) refers to role.o(.data) for speed_index
    role.o(.data) refers to graph_data.o(.constdata) for CLOUD
    role.o(.data) refers to role.o(.conststring) for .conststring
    role.o(.data) refers to role.o(i.excute_cloud) for excute_cloud
    role.o(.data) refers to role.o(i.recover_data) for recover_data
    role.o(.data) refers to role.o(i.excute_ground) for excute_ground
    role.o(.data) refers to role.o(i.excute_cactus1) for excute_cactus1
    role.o(.data) refers to role.o(i.excute_cactus2) for excute_cactus2
    role.o(.data) refers to role.o(i.control_dinosaur) for control_dinosaur
    role.o(.data) refers to role.o(i.excute_dinosaur) for excute_dinosaur
    role_manager.o(i.DefaultDinosaurCollisionEXCUTE) refers to role_manager.o(i.IndicateLedClose) for IndicateLedClose
    role_manager.o(i.DefaultDinosaurCollisionEXCUTE) refers to game_system.o(i.GameStop) for GameStop
    role_manager.o(i.DefaultDinosaurCollisionEXCUTE) refers to game.o(.bss) for g_tGame
    role_manager.o(i.IndicateLedClose) refers to led_system.o(i.GetLedDevice) for GetLedDevice
    role_manager.o(i.IndicateLedClose) refers to role_manager.o(.data) for g_ptIndicateLed
    role_manager.o(i.IndicateLedOpen) refers to led_system.o(i.GetLedDevice) for GetLedDevice
    role_manager.o(i.IndicateLedOpen) refers to role_manager.o(.data) for g_ptIndicateLed
    role_manager.o(i.RoleRegister) refers to printf3.o(i.__0printf$3) for __2printf
    role_manager.o(i.RoleRegister) refers to role_manager.o(.data) for g_tAggregate
    role_manager.o(i.__GetGameRole) refers to strcmp.o(.text) for strcmp
    role_manager.o(i.__GetGameRole) refers to role_manager.o(.data) for g_tAggregate
    role_manager.o(i.excute_item) refers to role_system.o(i.DefaultDinosaurCollisionJUDGE) for DefaultDinosaurCollisionJUDGE
    role_manager.o(i.excute_item) refers to role_manager.o(i.DefaultDinosaurCollisionEXCUTE) for DefaultDinosaurCollisionEXCUTE
    role_manager.o(i.traversal_recover_item) refers to role_system.o(i.RecoverSpeedIndex) for RecoverSpeedIndex
    role_manager.o(i.traversal_recover_item) refers to role_manager.o(i.IndicateLedOpen) for IndicateLedOpen
    role_manager.o(.data) refers to role_manager.o(i.excute_item) for excute_item
    role_manager.o(.data) refers to role_manager.o(i.recover_item) for recover_item
    role_manager.o(.data) refers to role_manager.o(i.traversal_excute_item) for traversal_excute_item
    role_manager.o(.data) refers to role_manager.o(i.traversal_recover_item) for traversal_recover_item
    role_system.o(i.AddRole) refers to role.o(i.AddRoleToManager) for AddRoleToManager
    role_system.o(i.AddRole) refers to role_system.o(i.SetDefaultPLAYERDinosaur) for SetDefaultPLAYERDinosaur
    role_system.o(i.DefaultDinosaurCollisionJUDGE) refers to role_system.o(.data) for g_ptDefaultPLAYERRole
    role_system.o(i.DefaultDinosaurJUMP) refers to role_system.o(.data) for g_ptDefaultPLAYERRole
    role_system.o(i.RecoverSpeedIndex) refers to role.o(.data) for speed_index
    role_system.o(i.SetDefaultPLAYERDinosaur) refers to printf3.o(i.__0printf$3) for __2printf
    role_system.o(i.SetDefaultPLAYERDinosaur) refers to role_manager.o(i.__GetGameRole) for __GetGameRole
    role_system.o(i.SetDefaultPLAYERDinosaur) refers to role_system.o(.data) for g_ptDefaultPLAYERRole
    game.o(i.__GetGame) refers to game.o(.data) for inited
    game.o(i.__GetGame) refers to game.o(.bss) for g_tGame
    game.o(i.__GetGame) refers to role_manager.o(.data) for g_tIterator
    game_system.o(i.DefaultGameControl) refers to role_system.o(i.DefaultDinosaurJUMP) for DefaultDinosaurJUMP
    game_system.o(i.DefaultGameControl) refers to game_system.o(i.GameRunning) for GameRunning
    game_system.o(i.DefaultGameControl) refers to game_system.o(.data) for g_ptGame
    game_system.o(i.GameControl) refers to role_system.o(i.DefaultDinosaurJUMP) for DefaultDinosaurJUMP
    game_system.o(i.GameControl) refers to game_system.o(i.GameRunning) for GameRunning
    game_system.o(i.GameRunning) refers to printf3.o(i.__0printf$3) for __2printf
    game_system.o(i.GameRunning) refers to show_graph.o(i.ClearInDisplayDev) for ClearInDisplayDev
    game_system.o(i.GameRunning) refers to displaydev_init.o(.data) for g_ptOledDev
    game_system.o(i.GameShow) refers to show_text.o(i.ShowTextInDisplayDev) for ShowTextInDisplayDev
    game_system.o(i.GameShow) refers to show_text.o(i.ShowNumberInDisplayDev) for ShowNumberInDisplayDev
    game_system.o(i.GameShow) refers to displaydev_init.o(.data) for g_ptOledDev
    game_system.o(i.GameStop) refers to show_graph.o(i.ShowGraphInDisplayDev) for ShowGraphInDisplayDev
    game_system.o(i.GameStop) refers to show_text.o(i.ShowTextInDisplayDev) for ShowTextInDisplayDev
    game_system.o(i.GameStop) refers to game_system.o(.data) for g_tGraphRESTART
    game_system.o(i.GameStop) refers to displaydev_init.o(.data) for g_ptOledDev
    game_system.o(i.GameThreadEntry) refers to show_graph.o(i.ShowGraphInDisplayDev) for ShowGraphInDisplayDev
    game_system.o(i.GameThreadEntry) refers to drive_delay.o(i.delay) for delay
    game_system.o(i.GameThreadEntry) refers to printf3.o(i.__0printf$3) for __2printf
    game_system.o(i.GameThreadEntry) refers to game_system.o(i.GameShow) for GameShow
    game_system.o(i.GameThreadEntry) refers to game_system.o(.data) for g_tGraphSTART
    game_system.o(i.GameThreadEntry) refers to displaydev_init.o(.data) for g_ptOledDev
    game_system.o(i.GameThreadInit) refers to role_system.o(i.AddRole) for AddRole
    game_system.o(i.GameThreadInit) refers to game_system.o(i.GetGame) for GetGame
    game_system.o(i.GameThreadInit) refers to game_system.o(.data) for g_ptGame
    game_system.o(i.GetGame) refers to game.o(i.__GetGame) for __GetGame
    game_system.o(.data) refers to graph_data.o(.constdata) for RESTART
    node_manager.o(i.GetNodeFirstChild) refers to node_manager.o(.bss) for g_tNodeTREE
    node_manager.o(i.GetNodeParent) refers to node_manager.o(.bss) for g_tNodeTREE
    node_manager.o(i.GetNodeRightSibling) refers to node_manager.o(.bss) for g_tNodeTREE
    node_manager.o(i.NodeRegisterToTREE) refers to node_manager.o(.bss) for g_tNodeTREE
    option.o(i.AddOptionToManager) refers to option_manager.o(i.OptionRegister) for OptionRegister
    option.o(i.AddOptionToManager) refers to option.o(.data) for g_tOptionHOME
    option.o(i.GAMEInfoOptionChooseFUN) refers to show_text.o(i.ShowTextInDisplayDev) for ShowTextInDisplayDev
    option.o(i.GAMEInfoOptionChooseFUN) refers to displaydev_init.o(.data) for g_ptOledDev
    option.o(i.GAMEInfoOptionEnterFUN) refers to printf3.o(i.__0printf$3) for __2printf
    option.o(i.GAMEInfoOptionEnterFUN) refers to option.o(.data) for inited
    option.o(i.GAMESetOptionChooseFUN) refers to show_text.o(i.ShowTextInDisplayDev) for ShowTextInDisplayDev
    option.o(i.GAMESetOptionChooseFUN) refers to displaydev_init.o(.data) for g_ptOledDev
    option.o(i.GAMESetOptionEnterFUN) refers to printf3.o(i.__0printf$3) for __2printf
    option.o(i.GAMESetOptionEnterFUN) refers to option.o(.data) for inited
    option.o(i.GAMEStartOptionChooseFUN) refers to show_graph.o(i.ClearInDisplayDev) for ClearInDisplayDev
    option.o(i.GAMEStartOptionChooseFUN) refers to show_text.o(i.ShowTextInDisplayDev) for ShowTextInDisplayDev
    option.o(i.GAMEStartOptionChooseFUN) refers to option.o(.data) for enter_node_count
    option.o(i.GAMEStartOptionChooseFUN) refers to displaydev_init.o(.data) for g_ptOledDev
    option.o(i.GAMEStartOptionEnterFUN) refers to option.o(.data) for enter_status_count
    option.o(i.GAMEStartOptionEnterFUN) refers to main.o(.bss) for g_tGameThread
    option.o(i.GAMEStartOptionEnterFUN) refers to scheduler.o(.data) for g_ptScheduleThread
    option.o(i.GameChooseFUN) refers to show_graph.o(i.ClearInDisplayDev) for ClearInDisplayDev
    option.o(i.GameChooseFUN) refers to show_graph.o(i.ShowGraphInDisplayDev) for ShowGraphInDisplayDev
    option.o(i.GameChooseFUN) refers to option.o(.data) for enter_node_count
    option.o(i.GameChooseFUN) refers to displaydev_init.o(.data) for g_ptOledDev
    option.o(i.GameEnterFUN) refers to printf3.o(i.__0printf$3) for __2printf
    option.o(i.HomeChooseFUN) refers to show_graph.o(i.ShowGraphInDisplayDev) for ShowGraphInDisplayDev
    option.o(i.HomeChooseFUN) refers to option.o(.data) for g_tMenuGraphSIGNAL
    option.o(i.HomeChooseFUN) refers to displaydev_init.o(.data) for g_ptOledDev
    option.o(i.HomeEnterFUN) refers to printf3.o(i.__0printf$3) for __2printf
    option.o(i.InfoChooseFUN) refers to show_graph.o(i.ClearInDisplayDev) for ClearInDisplayDev
    option.o(i.InfoChooseFUN) refers to show_graph.o(i.ShowGraphInDisplayDev) for ShowGraphInDisplayDev
    option.o(i.InfoChooseFUN) refers to displaydev_init.o(.data) for g_ptOledDev
    option.o(i.InfoChooseFUN) refers to option.o(.data) for g_tMenuGraphINFORMATION
    option.o(i.InfoEnterFUN) refers to printf3.o(i.__0printf$3) for __2printf
    option.o(i.InfoEnterFUN) refers to option.o(.data) for inited
    option.o(i.PlayerChooseFUN) refers to show_graph.o(i.ClearInDisplayDev) for ClearInDisplayDev
    option.o(i.PlayerChooseFUN) refers to show_graph.o(i.ShowGraphInDisplayDev) for ShowGraphInDisplayDev
    option.o(i.PlayerChooseFUN) refers to option.o(.data) for enter_node_count
    option.o(i.PlayerChooseFUN) refers to displaydev_init.o(.data) for g_ptOledDev
    option.o(i.PlayerEnterFUN) refers to show_graph.o(i.ClearInDisplayDev) for ClearInDisplayDev
    option.o(i.PlayerEnterFUN) refers to printf3.o(i.__0printf$3) for __2printf
    option.o(i.PlayerEnterFUN) refers to show_text.o(i.ShowTextInDisplayDev) for ShowTextInDisplayDev
    option.o(i.PlayerEnterFUN) refers to option.o(.data) for enter_node_count
    option.o(i.PlayerEnterFUN) refers to displaydev_init.o(.data) for g_ptOledDev
    option.o(i.PlayerEnterFUN) refers to main.o(.bss) for g_tPlayerThread
    option.o(i.PlayerEnterFUN) refers to scheduler.o(.data) for g_ptScheduleThread
    option.o(i.SetChooseFUN) refers to show_graph.o(i.ClearInDisplayDev) for ClearInDisplayDev
    option.o(i.SetChooseFUN) refers to show_graph.o(i.ShowGraphInDisplayDev) for ShowGraphInDisplayDev
    option.o(i.SetChooseFUN) refers to displaydev_init.o(.data) for g_ptOledDev
    option.o(i.SetChooseFUN) refers to option.o(.data) for g_tMenuGraphSETTING
    option.o(i.SetEnterFUN) refers to printf3.o(i.__0printf$3) for __2printf
    option.o(i.SetEnterFUN) refers to option.o(.data) for inited
    option.o(i.TempatureChooseFUN) refers to show_graph.o(i.ClearInDisplayDev) for ClearInDisplayDev
    option.o(i.TempatureChooseFUN) refers to show_graph.o(i.ShowGraphInDisplayDev) for ShowGraphInDisplayDev
    option.o(i.TempatureChooseFUN) refers to option.o(.data) for enter_node_count
    option.o(i.TempatureChooseFUN) refers to displaydev_init.o(.data) for g_ptOledDev
    option.o(i.TempatureEnterFUN) refers to led_system.o(i.GetLedDevice) for GetLedDevice
    option.o(i.TempatureEnterFUN) refers to printf3.o(i.__0printf$3) for __2printf
    option.o(i.TempatureEnterFUN) refers to show_graph.o(i.ClearInDisplayDev) for ClearInDisplayDev
    option.o(i.TempatureEnterFUN) refers to dht11_device.o(i.DHT11ReceiveData) for DHT11ReceiveData
    option.o(i.TempatureEnterFUN) refers to show_text.o(i.ShowTextInDisplayDev) for ShowTextInDisplayDev
    option.o(i.TempatureEnterFUN) refers to show_text.o(i.ShowNumberInDisplayDev) for ShowNumberInDisplayDev
    option.o(i.TempatureEnterFUN) refers to drive_delay.o(i.Delay_ms) for Delay_ms
    option.o(i.TempatureEnterFUN) refers to option.o(.data) for enter_node_count
    option.o(i.TempatureEnterFUN) refers to displaydev_init.o(.data) for g_ptOledDev
    option.o(.data) refers to graph_data.o(.constdata) for SIGNAL
    option.o(.data) refers to graph_data.o(.data) for BLUETOOTH
    option.o(.data) refers to option.o(i.HomeChooseFUN) for HomeChooseFUN
    option.o(.data) refers to option.o(i.HomeEnterFUN) for HomeEnterFUN
    option.o(.data) refers to option.o(i.TempatureChooseFUN) for TempatureChooseFUN
    option.o(.data) refers to option.o(i.TempatureEnterFUN) for TempatureEnterFUN
    option.o(.data) refers to option.o(i.GameChooseFUN) for GameChooseFUN
    option.o(.data) refers to option.o(i.GameEnterFUN) for GameEnterFUN
    option.o(.data) refers to option.o(i.PlayerChooseFUN) for PlayerChooseFUN
    option.o(.data) refers to option.o(i.PlayerEnterFUN) for PlayerEnterFUN
    option.o(.data) refers to option.o(i.SetChooseFUN) for SetChooseFUN
    option.o(.data) refers to option.o(i.SetEnterFUN) for SetEnterFUN
    option.o(.data) refers to option.o(i.InfoChooseFUN) for InfoChooseFUN
    option.o(.data) refers to option.o(i.InfoEnterFUN) for InfoEnterFUN
    option.o(.data) refers to option.o(i.GAMEStartOptionChooseFUN) for GAMEStartOptionChooseFUN
    option.o(.data) refers to option.o(i.GAMEStartOptionEnterFUN) for GAMEStartOptionEnterFUN
    option.o(.data) refers to option.o(i.GAMESetOptionChooseFUN) for GAMESetOptionChooseFUN
    option.o(.data) refers to option.o(i.GAMESetOptionEnterFUN) for GAMESetOptionEnterFUN
    option.o(.data) refers to option.o(i.GAMEInfoOptionChooseFUN) for GAMEInfoOptionChooseFUN
    option.o(.data) refers to option.o(i.GAMEInfoOptionEnterFUN) for GAMEInfoOptionEnterFUN
    option_manager.o(i.GetBackOption) refers to node_manager.o(i.GetNodeParent) for GetNodeParent
    option_manager.o(i.GetBackOption) refers to printf3.o(i.__0printf$3) for __2printf
    option_manager.o(i.GetBackOption) refers to option_manager.o(.data) for current_option
    option_manager.o(i.GetEnterOption) refers to node_manager.o(i.GetNodeFirstChild) for GetNodeFirstChild
    option_manager.o(i.GetEnterOption) refers to printf3.o(i.__0printf$3) for __2printf
    option_manager.o(i.GetEnterOption) refers to option_manager.o(.data) for current_option
    option_manager.o(i.GetNextOption) refers to node_manager.o(i.GetNodeRightSibling) for GetNodeRightSibling
    option_manager.o(i.GetNextOption) refers to printf3.o(i.__0printf$3) for __2printf
    option_manager.o(i.GetNextOption) refers to option_manager.o(.data) for current_option
    option_manager.o(i.InitMenuOption) refers to option.o(i.AddOptionToManager) for AddOptionToManager
    option_manager.o(i.InitMenuOption) refers to option_manager.o(i.__GetOption) for __GetOption
    option_manager.o(i.InitMenuOption) refers to option_manager.o(.data) for current_option
    option_manager.o(i.MenuPublish) refers to message_manager.o(i.CoreProcss) for CoreProcss
    option_manager.o(i.MenuThreadEntry) refers to printf3.o(i.__0printf$3) for __2printf
    option_manager.o(i.MenuThreadEntry) refers to option_manager.o(.data) for current_option
    option_manager.o(i.MenuThreadEntry) refers to option.o(.data) for enter_node_count
    option_manager.o(i.MenuThreadInit) refers to printf3.o(i.__0printf$3) for __2printf
    option_manager.o(i.MenuThreadInit) refers to message_manager.o(i.RegisterMessage) for RegisterMessage
    option_manager.o(i.OptionControl) refers to option_manager.o(i.GetBackOption) for GetBackOption
    option_manager.o(i.OptionControl) refers to option_manager.o(i.GetNextOption) for GetNextOption
    option_manager.o(i.OptionControl) refers to option_manager.o(i.GetEnterOption) for GetEnterOption
    option_manager.o(i.OptionControl) refers to option_manager.o(.data) for current_option
    option_manager.o(i.OptionRegister) refers to node_manager.o(i.NodeRegisterToTREE) for NodeRegisterToTREE
    option_manager.o(i.OptionRegister) refers to option_manager.o(.bss) for g_tOptionManager
    option_manager.o(i.__GetOption) refers to strcmp.o(.text) for strcmp
    option_manager.o(i.__GetOption) refers to printf3.o(i.__0printf$3) for __2printf
    option_manager.o(i.__GetOption) refers to option_manager.o(.bss) for g_tOptionManager
    option_manager.o(.data) refers to option_manager.o(.conststring) for .conststring
    option_manager.o(.data) refers to option_manager.o(i.MenuPublish) for MenuPublish
    message_manager.o(i.CoreProcss) refers to strcmp.o(.text) for strcmp
    message_manager.o(i.CoreProcss) refers to printf3.o(i.__0printf$3) for __2printf
    message_manager.o(i.CoreProcss) refers to message_manager.o(.bss) for g_ptTopicMessageTable
    message_manager.o(i.RegisterMessage) refers to strcmp.o(.text) for strcmp
    message_manager.o(i.RegisterMessage) refers to printf3.o(i.__0printf$3) for __2printf
    message_manager.o(i.RegisterMessage) refers to message_manager.o(.bss) for g_ptTopicMessageTable
    message_manager.o(i.RegisterSubscriber) refers to strcmp.o(.text) for strcmp
    message_manager.o(i.RegisterSubscriber) refers to printf3.o(i.__0printf$3) for __2printf
    message_manager.o(i.RegisterSubscriber) refers to message_manager.o(.bss) for g_ptTopicMessageTable
    logic_control.o(i.GameFirstKeyLongPressFun) refers to printf3.o(i.__0printf$3) for __2printf
    logic_control.o(i.GameFirstKeyShortPressFun) refers to printf3.o(i.__0printf$3) for __2printf
    logic_control.o(i.GameFirstKeyShortPressFun) refers to option_manager.o(i.OptionControl) for OptionControl
    logic_control.o(i.GameFirstKeyShortPressFun) refers to main.o(.bss) for g_tMenuThread
    logic_control.o(i.GameFirstKeyShortPressFun) refers to scheduler.o(.data) for g_ptScheduleThread
    logic_control.o(i.GameSecondKeyLongPressFun) refers to printf3.o(i.__0printf$3) for __2printf
    logic_control.o(i.GameSecondKeyShortPressFun) refers to printf3.o(i.__0printf$3) for __2printf
    logic_control.o(i.GameSecondKeyShortPressFun) refers to game_system.o(i.DefaultGameControl) for DefaultGameControl
    logic_control.o(i.GameThirdKeyLongPressFun) refers to printf3.o(i.__0printf$3) for __2printf
    logic_control.o(i.GameThirdKeyShortPressFun) refers to printf3.o(i.__0printf$3) for __2printf
    logic_control.o(i.GameThirdKeyShortPressFun) refers to game_system.o(i.DefaultGameControl) for DefaultGameControl
    logic_control.o(i.HandlerMenuMsg) refers to logic_control.o(.data) for tSubscribeMenuStatus
    logic_control.o(i.HandlerPlayerMsg) refers to printf3.o(i.__0printf$3) for __2printf
    logic_control.o(i.HandlerPlayerMsg) refers to logic_control.o(.data) for iSubscribePlayerStatus
    logic_control.o(i.HandlerRTCMsg) refers to memcpya.o(.text) for __aeabi_memcpy
    logic_control.o(i.HandlerRTCMsg) refers to show_text.o(i.ShowTextInDisplayDev) for ShowTextInDisplayDev
    logic_control.o(i.HandlerRTCMsg) refers to show_text.o(i.ShowNumberInDisplayDev) for ShowNumberInDisplayDev
    logic_control.o(i.HandlerRTCMsg) refers to logic_control.o(.bss) for tSubscribeRTCData
    logic_control.o(i.HandlerRTCMsg) refers to logic_control.o(.data) for rtc_enable
    logic_control.o(i.HandlerRTCMsg) refers to displaydev_init.o(.data) for g_ptOledDev
    logic_control.o(i.LogicThreadEntry) refers to printf3.o(i.__0printf$3) for __2printf
    logic_control.o(i.LogicThreadEntry) refers to input_buffer.o(i.GetInputBuffer) for GetInputBuffer
    logic_control.o(i.LogicThreadEntry) refers to scheduler.o(i.rt_schedule) for rt_schedule
    logic_control.o(i.LogicThreadEntry) refers to scheduler.o(.data) for g_ptScheduleThread
    logic_control.o(i.LogicThreadEntry) refers to main.o(.bss) for g_tMenuThread
    logic_control.o(i.LogicThreadEntry) refers to logic_control.o(.data) for g_tMenuElement
    logic_control.o(i.LogicThreadInit) refers to printf3.o(i.__0printf$3) for __2printf
    logic_control.o(i.LogicThreadInit) refers to logic_control.o(.data) for g_tMenuElement
    logic_control.o(i.MenuFirstKeyLongPressFun) refers to printf3.o(i.__0printf$3) for __2printf
    logic_control.o(i.MenuFirstKeyLongPressFun) refers to option_manager.o(i.OptionControl) for OptionControl
    logic_control.o(i.MenuFirstKeyShortPressFun) refers to printf3.o(i.__0printf$3) for __2printf
    logic_control.o(i.MenuFirstKeyShortPressFun) refers to option_manager.o(i.OptionControl) for OptionControl
    logic_control.o(i.MenuSecondKeyLongPressFun) refers to printf3.o(i.__0printf$3) for __2printf
    logic_control.o(i.MenuSecondKeyLongPressFun) refers to option_manager.o(i.OptionControl) for OptionControl
    logic_control.o(i.MenuSecondKeyShortPressFun) refers to printf3.o(i.__0printf$3) for __2printf
    logic_control.o(i.MenuSecondKeyShortPressFun) refers to option_manager.o(i.OptionControl) for OptionControl
    logic_control.o(i.MenuThirdKeyLongPressFun) refers to printf3.o(i.__0printf$3) for __2printf
    logic_control.o(i.MenuThirdKeyLongPressFun) refers to option_manager.o(i.OptionControl) for OptionControl
    logic_control.o(i.MenuThirdKeyShortPressFun) refers to printf3.o(i.__0printf$3) for __2printf
    logic_control.o(i.MenuThirdKeyShortPressFun) refers to option_manager.o(i.OptionControl) for OptionControl
    logic_control.o(i.PlayerFirstKeyLongPressFun) refers to printf3.o(i.__0printf$3) for __2printf
    logic_control.o(i.PlayerFirstKeyLongPressFun) refers to player_system.o(i.DefaultPlayerControl) for DefaultPlayerControl
    logic_control.o(i.PlayerFirstKeyLongPressFun) refers to logic_control.o(.data) for player_volume
    logic_control.o(i.PlayerFirstKeyShortPressFun) refers to printf3.o(i.__0printf$3) for __2printf
    logic_control.o(i.PlayerFirstKeyShortPressFun) refers to player_system.o(i.DefaultPlayerControl) for DefaultPlayerControl
    logic_control.o(i.PlayerFirstKeyShortPressFun) refers to logic_control.o(.data) for player_volume
    logic_control.o(i.PlayerSecondKeyLongPressFun) refers to printf3.o(i.__0printf$3) for __2printf
    logic_control.o(i.PlayerSecondKeyLongPressFun) refers to player_system.o(i.DefaultPlayerControl) for DefaultPlayerControl
    logic_control.o(i.PlayerSecondKeyLongPressFun) refers to option_manager.o(i.OptionControl) for OptionControl
    logic_control.o(i.PlayerSecondKeyLongPressFun) refers to logic_control.o(.data) for player_volume
    logic_control.o(i.PlayerSecondKeyLongPressFun) refers to main.o(.bss) for g_tMenuThread
    logic_control.o(i.PlayerSecondKeyLongPressFun) refers to scheduler.o(.data) for g_ptScheduleThread
    logic_control.o(i.PlayerSecondKeyShortPressFun) refers to printf3.o(i.__0printf$3) for __2printf
    logic_control.o(i.PlayerSecondKeyShortPressFun) refers to player_system.o(i.DefaultPlayerControl) for DefaultPlayerControl
    logic_control.o(i.PlayerSecondKeyShortPressFun) refers to logic_control.o(.data) for iSubscribePlayerStatus
    logic_control.o(i.PlayerThirdKeyLongPressFun) refers to printf3.o(i.__0printf$3) for __2printf
    logic_control.o(i.PlayerThirdKeyLongPressFun) refers to player_system.o(i.DefaultPlayerControl) for DefaultPlayerControl
    logic_control.o(i.PlayerThirdKeyLongPressFun) refers to logic_control.o(.data) for player_volume
    logic_control.o(i.PlayerThirdKeyShortPressFun) refers to printf3.o(i.__0printf$3) for __2printf
    logic_control.o(i.PlayerThirdKeyShortPressFun) refers to player_system.o(i.DefaultPlayerControl) for DefaultPlayerControl
    logic_control.o(i.PlayerThirdKeyShortPressFun) refers to logic_control.o(.data) for player_volume
    logic_control.o(i.SubscribeMsg) refers to message_manager.o(i.RegisterSubscriber) for RegisterSubscriber
    logic_control.o(.data) refers to logic_control.o(i.PlayerFirstKeyShortPressFun) for PlayerFirstKeyShortPressFun
    logic_control.o(.data) refers to logic_control.o(i.PlayerSecondKeyShortPressFun) for PlayerSecondKeyShortPressFun
    logic_control.o(.data) refers to logic_control.o(i.PlayerThirdKeyShortPressFun) for PlayerThirdKeyShortPressFun
    logic_control.o(.data) refers to logic_control.o(i.PlayerFirstKeyLongPressFun) for PlayerFirstKeyLongPressFun
    logic_control.o(.data) refers to logic_control.o(i.PlayerSecondKeyLongPressFun) for PlayerSecondKeyLongPressFun
    logic_control.o(.data) refers to logic_control.o(i.PlayerThirdKeyLongPressFun) for PlayerThirdKeyLongPressFun
    logic_control.o(.data) refers to logic_control.o(i.GameFirstKeyShortPressFun) for GameFirstKeyShortPressFun
    logic_control.o(.data) refers to logic_control.o(i.GameSecondKeyShortPressFun) for GameSecondKeyShortPressFun
    logic_control.o(.data) refers to logic_control.o(i.GameThirdKeyShortPressFun) for GameThirdKeyShortPressFun
    logic_control.o(.data) refers to logic_control.o(i.GameFirstKeyLongPressFun) for GameFirstKeyLongPressFun
    logic_control.o(.data) refers to logic_control.o(i.GameSecondKeyLongPressFun) for GameSecondKeyLongPressFun
    logic_control.o(.data) refers to logic_control.o(i.GameThirdKeyLongPressFun) for GameThirdKeyLongPressFun
    logic_control.o(.data) refers to logic_control.o(i.MenuFirstKeyShortPressFun) for MenuFirstKeyShortPressFun
    logic_control.o(.data) refers to logic_control.o(i.MenuSecondKeyShortPressFun) for MenuSecondKeyShortPressFun
    logic_control.o(.data) refers to logic_control.o(i.MenuThirdKeyShortPressFun) for MenuThirdKeyShortPressFun
    logic_control.o(.data) refers to logic_control.o(i.MenuFirstKeyLongPressFun) for MenuFirstKeyLongPressFun
    logic_control.o(.data) refers to logic_control.o(i.MenuSecondKeyLongPressFun) for MenuSecondKeyLongPressFun
    logic_control.o(.data) refers to logic_control.o(i.MenuThirdKeyLongPressFun) for MenuThirdKeyLongPressFun
    logic_control.o(.data) refers to logic_control.o(i.FKSPVisit) for FKSPVisit
    logic_control.o(.data) refers to logic_control.o(i.SKSPVisit) for SKSPVisit
    logic_control.o(.data) refers to logic_control.o(i.TKSPVisit) for TKSPVisit
    logic_control.o(.data) refers to logic_control.o(i.FKLPVisit) for FKLPVisit
    logic_control.o(.data) refers to logic_control.o(i.SKLPVisit) for SKLPVisit
    logic_control.o(.data) refers to logic_control.o(i.TKLPVisit) for TKLPVisit
    logic_control.o(.data) refers to logic_control.o(i.SubscribeMsg) for SubscribeMsg
    logic_control.o(.data) refers to logic_control.o(i.HandlerPlayerMsg) for HandlerPlayerMsg
    logic_control.o(.data) refers to logic_control.o(i.HandlerMenuMsg) for HandlerMenuMsg
    logic_control.o(.data) refers to logic_control.o(i.HandlerRTCMsg) for HandlerRTCMsg
    context_rvds.o(.text) refers to cpuport.o(.data) for rt_interrupt_to_thread
    scheduler.o(i.rt_schedule) refers to context_rvds.o(.text) for rt_hw_context_switch
    scheduler.o(i.rt_schedule) refers to scheduler.o(.data) for rt_current_thread
    scheduler.o(i.rt_system_scheduler_init) refers to scheduler.o(.data) for rt_current_thread
    scheduler.o(i.rt_system_scheduler_start) refers to context_rvds.o(.text) for rt_hw_context_switch_to
    scheduler.o(i.rt_system_scheduler_start) refers to scheduler.o(.data) for rt_current_thread
    thread.o(i.rt_thread_init) refers to cpuport.o(i.rt_hw_stack_init) for rt_hw_stack_init
    usart_init.o(i.UsartInit) refers to drive_usart.o(i.USART_Config) for USART_Config
    usart_init.o(i.UsartInit) refers to ring_buffer.o(i.ring_buffer_init) for ring_buffer_init
    usart_init.o(i.UsartInit) refers to drive_usart.o(i.Usart_SendByte) for Usart_SendByte
    usart_init.o(i.UsartInit) refers to drive_usart.o(i.Usart_SendString) for Usart_SendString
    usart_init.o(i.UsartInit) refers to printf3.o(i.__0printf$3) for __2printf
    usart_init.o(i.UsartInit) refers to drive_usart.o(.bss) for usart1_ring_buffer
    displaydev_init.o(i.DisplayDevInit) refers to display_system.o(i.SetDefaultDisplayDev) for SetDefaultDisplayDev
    displaydev_init.o(i.DisplayDevInit) refers to printf3.o(i.__0printf$3) for __2printf
    displaydev_init.o(i.DisplayDevInit) refers to oled_command.o(i.oled_clear) for oled_clear
    displaydev_init.o(i.DisplayDevInit) refers to fontlib_system.o(i.SetDefaultFontLib) for SetDefaultFontLib
    displaydev_init.o(i.DisplayDevInit) refers to show_text.o(i.ShowNumberInDisplayDev) for ShowNumberInDisplayDev
    displaydev_init.o(i.DisplayDevInit) refers to show_text.o(i.ShowTextInDisplayDev) for ShowTextInDisplayDev
    displaydev_init.o(i.DisplayDevInit) refers to drive_delay.o(i.delay) for delay
    displaydev_init.o(i.DisplayDevInit) refers to display_device.o(i.__DisplayDevTimerFlushControl) for __DisplayDevTimerFlushControl
    displaydev_init.o(i.DisplayDevInit) refers to displaydev_init.o(.data) for g_ptOledDev
    usart1_test.o(i.usart1_test) refers to drive_usart.o(i.USART_Config) for USART_Config
    usart1_test.o(i.usart1_test) refers to ring_buffer.o(i.ring_buffer_init) for ring_buffer_init
    usart1_test.o(i.usart1_test) refers to drive_usart.o(i.Usart_SendByte) for Usart_SendByte
    usart1_test.o(i.usart1_test) refers to drive_usart.o(i.Usart_SendString) for Usart_SendString
    usart1_test.o(i.usart1_test) refers to printf3.o(i.__0printf$3) for __2printf
    usart1_test.o(i.usart1_test) refers to drive_usart.o(.bss) for usart1_ring_buffer
    input_test.o(i.input_test) refers to button_system.o(i.AddButtonDevice) for AddButtonDevice
    input_test.o(i.input_test) refers to input_system.o(i.AddInputDevice) for AddInputDevice
    input_test.o(i.input_test) refers to input_system.o(i.InitInputDevice) for InitInputDevice
    input_test.o(i.input_test) refers to printf3.o(i.__0printf$3) for __2printf
    led_test.o(i.led_test) refers to led_system.o(i.AddLedDevice) for AddLedDevice
    led_test.o(i.led_test) refers to led_system.o(i.GetLedDevice) for GetLedDevice
    led_test.o(i.led_test) refers to drive_delay.o(i.delay) for delay
    display_test.o(i.display_test) refers to display_system.o(i.ADDDisplayDevice) for ADDDisplayDevice
    display_test.o(i.display_test) refers to display_system.o(i.GetDisplayDevice) for GetDisplayDevice
    display_test.o(i.display_test) refers to printf3.o(i.__0printf$3) for __2printf
    display_test.o(i.display_test) refers to oled_command.o(i.oled_clear) for oled_clear
    text_test.o(i.text_test) refers to display_system.o(i.SetDefaultDisplayDev) for SetDefaultDisplayDev
    text_test.o(i.text_test) refers to printf3.o(i.__0printf$3) for __2printf
    text_test.o(i.text_test) refers to oled_command.o(i.oled_clear) for oled_clear
    text_test.o(i.text_test) refers to fontlib_system.o(i.SetDefaultFontLib) for SetDefaultFontLib
    text_test.o(i.text_test) refers to show_text.o(i.ShowNumberInDisplayDev) for ShowNumberInDisplayDev
    text_test.o(i.text_test) refers to show_text.o(i.ShowTextInDisplayDev) for ShowTextInDisplayDev
    text_test.o(i.text_test) refers to drive_delay.o(i.delay) for delay
    text_test.o(i.text_test) refers to display_device.o(i.__DisplayDevTimerFlushControl) for __DisplayDevTimerFlushControl
    text_test.o(i.text_test) refers to displaydev_init.o(.data) for g_ptOledDev
    beep_test.o(i.beep_test) refers to beep_system.o(i.ADDBeepDevice) for ADDBeepDevice
    beep_test.o(i.beep_test) refers to beep_system.o(i.GetBeepDevice) for GetBeepDevice
    beep_test.o(i.beep_test) refers to drive_delay.o(i.delay) for delay
    beep_test.o(i.beep_test) refers to beep_test.o(.constdata) for .constdata
    decode_test.o(i.decode_test) refers to beep_system.o(i.ADDBeepDevice) for ADDBeepDevice
    decode_test.o(i.decode_test) refers to beep_system.o(i.GetBeepDevice) for GetBeepDevice
    decode_test.o(i.decode_test) refers to drive_delay.o(i.delay) for delay
    decode_test.o(i.decode_test) refers to printf3.o(i.__0printf$3) for __2printf
    decode_test.o(i.decode_test) refers to decode.o(i.BeepSongDecodeInit) for BeepSongDecodeInit
    decode_test.o(i.decode_test) refers to decode.o(i.GetBeepSongName) for GetBeepSongName
    decode_test.o(i.decode_test) refers to decode.o(i.GetBeepSongLen) for GetBeepSongLen
    decode_test.o(i.decode_test) refers to decode.o(i.BeepSongGetData) for BeepSongGetData
    decode_test.o(i.decode_test) refers to decode_test.o(.constdata) for .constdata
    player_test.o(i.player_test) refers to beep_system.o(i.ADDBeepDevice) for ADDBeepDevice
    player_test.o(i.player_test) refers to led_system.o(i.AddLedDevice) for AddLedDevice
    player_test.o(i.player_test) refers to player.o(i.PlayerInit) for PlayerInit
    player_test.o(i.player_test) refers to player_system.o(i.PlayerNext) for PlayerNext
    player_test.o(i.player_test) refers to player_system.o(i.PlayerShow) for PlayerShow
    player_test.o(i.player_test) refers to printf3.o(i.__0printf$3) for __2printf
    player_test.o(i.player_test) refers to input_buffer.o(i.GetInputBuffer) for GetInputBuffer
    player_test.o(i.player_test) refers to player_system.o(i.PlayerControl) for PlayerControl
    graph_test.o(i.graph_test) refers to printf3.o(i.__0printf$3) for __2printf
    graph_test.o(i.graph_test) refers to show_graph.o(i.ShowGraphInDisplayDev) for ShowGraphInDisplayDev
    graph_test.o(i.graph_test) refers to drive_delay.o(i.delay) for delay
    graph_test.o(i.graph_test) refers to show_graph.o(i.ClearGraphInDisplayDev) for ClearGraphInDisplayDev
    graph_test.o(i.graph_test) refers to graph_test.o(.data) for g_tGraphCloud
    graph_test.o(i.graph_test) refers to displaydev_init.o(.data) for g_ptOledDev
    graph_test.o(.data) refers to graph_data.o(.constdata) for CLOUD
    iterator_test.o(i.iterator_test) refers to printf3.o(i.__0printf$3) for __2printf
    iterator_test.o(i.iterator_test) refers to role_system.o(i.AddRole) for AddRole
    iterator_test.o(i.iterator_test) refers to drive_delay.o(i.delay) for delay
    iterator_test.o(i.iterator_test) refers to role_system.o(i.DefaultDinosaurJUMP) for DefaultDinosaurJUMP
    iterator_test.o(i.iterator_test) refers to role_manager.o(.data) for g_tIterator
    game_test.o(i.game_test) refers to game_system.o(i.GetGame) for GetGame
    game_test.o(i.game_test) refers to role_system.o(i.AddRole) for AddRole
    game_test.o(i.game_test) refers to printf3.o(i.__0printf$3) for __2printf
    game_test.o(i.game_test) refers to show_graph.o(i.ShowGraphInDisplayDev) for ShowGraphInDisplayDev
    game_test.o(i.game_test) refers to drive_delay.o(i.delay) for delay
    game_test.o(i.game_test) refers to display_device.o(i.__DisplayDevTimerFlushControl) for __DisplayDevTimerFlushControl
    game_test.o(i.game_test) refers to game_system.o(i.GameShow) for GameShow
    game_test.o(i.game_test) refers to show_text.o(i.ShowTextInDisplayDev) for ShowTextInDisplayDev
    game_test.o(i.game_test) refers to input_buffer.o(i.GetInputBuffer) for GetInputBuffer
    game_test.o(i.game_test) refers to game_system.o(i.GameControl) for GameControl
    game_test.o(i.game_test) refers to game_system.o(.data) for g_tGraphSTART
    game_test.o(i.game_test) refers to displaydev_init.o(.data) for g_ptOledDev
    menu_test.o(i.menu_test) refers to printf3.o(i.__0printf$3) for __2printf
    menu_test.o(i.menu_test) refers to option_manager.o(i.InitMenuOption) for InitMenuOption
    menu_test.o(i.menu_test) refers to option_manager.o(i.MenuThreadEntry) for MenuThreadEntry
    menu_test.o(i.menu_test) refers to input_buffer.o(i.GetInputBuffer) for GetInputBuffer
    menu_test.o(i.menu_test) refers to drive_delay.o(i.delay) for delay
    menu_test.o(i.menu_test) refers to option_manager.o(i.OptionControl) for OptionControl
    message_test.o(i.HandlerAsam) refers to printf3.o(i.__0printf$3) for __2printf
    message_test.o(i.HandlerAsam) refers to memcpya.o(.text) for __aeabi_memcpy
    message_test.o(i.HandlerTifa) refers to printf3.o(i.__0printf$3) for __2printf
    message_test.o(i.Publish) refers to message_manager.o(i.CoreProcss) for CoreProcss
    message_test.o(i.Subscribe) refers to message_manager.o(i.RegisterSubscriber) for RegisterSubscriber
    message_test.o(i.message_test) refers to printf3.o(i.__0printf$3) for __2printf
    message_test.o(i.message_test) refers to message_manager.o(i.RegisterMessage) for RegisterMessage
    message_test.o(i.message_test) refers to message_test.o(.data) for g_tSubcriberAsam
    message_test.o(.data) refers to message_test.o(i.Publish) for Publish
    message_test.o(.data) refers to message_test.o(.conststring) for .conststring
    message_test.o(.data) refers to message_test.o(i.Subscribe) for Subscribe
    message_test.o(.data) refers to message_test.o(i.HandlerAsam) for HandlerAsam
    message_test.o(.data) refers to message_test.o(i.HandlerTifa) for HandlerTifa
    entry.o(.ARM.Collect$$$$00000000) refers (Special) to entry10a.o(.ARM.Collect$$$$0000000D) for __rt_final_cpp
    entry.o(.ARM.Collect$$$$00000000) refers (Special) to entry11a.o(.ARM.Collect$$$$0000000F) for __rt_final_exit
    entry.o(.ARM.Collect$$$$00000000) refers (Special) to entry7b.o(.ARM.Collect$$$$00000008) for _main_clock
    entry.o(.ARM.Collect$$$$00000000) refers (Special) to entry8b.o(.ARM.Collect$$$$0000000A) for _main_cpp_init
    entry.o(.ARM.Collect$$$$00000000) refers (Special) to entry9a.o(.ARM.Collect$$$$0000000B) for _main_init
    entry.o(.ARM.Collect$$$$00000000) refers (Special) to entry5.o(.ARM.Collect$$$$00000004) for _main_scatterload
    entry.o(.ARM.Collect$$$$00000000) refers (Special) to entry2.o(.ARM.Collect$$$$00000001) for _main_stk
    rand.o(.text) refers to rand.o(.data) for .data
    printfb.o(i.__0fprintf$bare) refers to printfb.o(i._printf_core) for _printf_core
    printfb.o(i.__0fprintf$bare) refers to drive_usart.o(i.fputc) for fputc
    printfb.o(i.__0printf$bare) refers to printfb.o(i._printf_core) for _printf_core
    printfb.o(i.__0printf$bare) refers to drive_usart.o(i.fputc) for fputc
    printfb.o(i.__0printf$bare) refers to stdout.o(.data) for __stdout
    printfb.o(i.__0snprintf$bare) refers to printfb.o(i._printf_core) for _printf_core
    printfb.o(i.__0snprintf$bare) refers to printfb.o(i._snputc) for _snputc
    printfb.o(i.__0sprintf$bare) refers to printfb.o(i._printf_core) for _printf_core
    printfb.o(i.__0sprintf$bare) refers to printfb.o(i._sputc) for _sputc
    printfb.o(i.__0vfprintf$bare) refers to printfb.o(i._printf_core) for _printf_core
    printfb.o(i.__0vfprintf$bare) refers to drive_usart.o(i.fputc) for fputc
    printfb.o(i.__0vprintf$bare) refers to printfb.o(i._printf_core) for _printf_core
    printfb.o(i.__0vprintf$bare) refers to drive_usart.o(i.fputc) for fputc
    printfb.o(i.__0vprintf$bare) refers to stdout.o(.data) for __stdout
    printfb.o(i.__0vsnprintf$bare) refers to printfb.o(i._printf_core) for _printf_core
    printfb.o(i.__0vsnprintf$bare) refers to printfb.o(i._snputc) for _snputc
    printfb.o(i.__0vsprintf$bare) refers to printfb.o(i._printf_core) for _printf_core
    printfb.o(i.__0vsprintf$bare) refers to printfb.o(i._sputc) for _sputc
    printf0.o(i.__0fprintf$0) refers to printf0.o(i._printf_core) for _printf_core
    printf0.o(i.__0fprintf$0) refers to drive_usart.o(i.fputc) for fputc
    printf0.o(i.__0printf$0) refers to printf0.o(i._printf_core) for _printf_core
    printf0.o(i.__0printf$0) refers to drive_usart.o(i.fputc) for fputc
    printf0.o(i.__0printf$0) refers to stdout.o(.data) for __stdout
    printf0.o(i.__0snprintf$0) refers to printf0.o(i._printf_core) for _printf_core
    printf0.o(i.__0snprintf$0) refers to printf0.o(i._snputc) for _snputc
    printf0.o(i.__0sprintf$0) refers to printf0.o(i._printf_core) for _printf_core
    printf0.o(i.__0sprintf$0) refers to printf0.o(i._sputc) for _sputc
    printf0.o(i.__0vfprintf$0) refers to printf0.o(i._printf_core) for _printf_core
    printf0.o(i.__0vfprintf$0) refers to drive_usart.o(i.fputc) for fputc
    printf0.o(i.__0vprintf$0) refers to printf0.o(i._printf_core) for _printf_core
    printf0.o(i.__0vprintf$0) refers to drive_usart.o(i.fputc) for fputc
    printf0.o(i.__0vprintf$0) refers to stdout.o(.data) for __stdout
    printf0.o(i.__0vsnprintf$0) refers to printf0.o(i._printf_core) for _printf_core
    printf0.o(i.__0vsnprintf$0) refers to printf0.o(i._snputc) for _snputc
    printf0.o(i.__0vsprintf$0) refers to printf0.o(i._printf_core) for _printf_core
    printf0.o(i.__0vsprintf$0) refers to printf0.o(i._sputc) for _sputc
    printf1.o(i.__0fprintf$1) refers to printf1.o(i._printf_core) for _printf_core
    printf1.o(i.__0fprintf$1) refers to drive_usart.o(i.fputc) for fputc
    printf1.o(i.__0printf$1) refers to printf1.o(i._printf_core) for _printf_core
    printf1.o(i.__0printf$1) refers to drive_usart.o(i.fputc) for fputc
    printf1.o(i.__0printf$1) refers to stdout.o(.data) for __stdout
    printf1.o(i.__0snprintf$1) refers to printf1.o(i._printf_core) for _printf_core
    printf1.o(i.__0snprintf$1) refers to printf1.o(i._snputc) for _snputc
    printf1.o(i.__0sprintf$1) refers to printf1.o(i._printf_core) for _printf_core
    printf1.o(i.__0sprintf$1) refers to printf1.o(i._sputc) for _sputc
    printf1.o(i.__0vfprintf$1) refers to printf1.o(i._printf_core) for _printf_core
    printf1.o(i.__0vfprintf$1) refers to drive_usart.o(i.fputc) for fputc
    printf1.o(i.__0vprintf$1) refers to printf1.o(i._printf_core) for _printf_core
    printf1.o(i.__0vprintf$1) refers to drive_usart.o(i.fputc) for fputc
    printf1.o(i.__0vprintf$1) refers to stdout.o(.data) for __stdout
    printf1.o(i.__0vsnprintf$1) refers to printf1.o(i._printf_core) for _printf_core
    printf1.o(i.__0vsnprintf$1) refers to printf1.o(i._snputc) for _snputc
    printf1.o(i.__0vsprintf$1) refers to printf1.o(i._printf_core) for _printf_core
    printf1.o(i.__0vsprintf$1) refers to printf1.o(i._sputc) for _sputc
    printf1.o(i._printf_core) refers to uidiv.o(.text) for __aeabi_uidivmod
    printf2.o(i.__0fprintf$2) refers to printf2.o(i._printf_core) for _printf_core
    printf2.o(i.__0fprintf$2) refers to drive_usart.o(i.fputc) for fputc
    printf2.o(i.__0printf$2) refers to printf2.o(i._printf_core) for _printf_core
    printf2.o(i.__0printf$2) refers to drive_usart.o(i.fputc) for fputc
    printf2.o(i.__0printf$2) refers to stdout.o(.data) for __stdout
    printf2.o(i.__0snprintf$2) refers to printf2.o(i._printf_core) for _printf_core
    printf2.o(i.__0snprintf$2) refers to printf2.o(i._snputc) for _snputc
    printf2.o(i.__0sprintf$2) refers to printf2.o(i._printf_core) for _printf_core
    printf2.o(i.__0sprintf$2) refers to printf2.o(i._sputc) for _sputc
    printf2.o(i.__0vfprintf$2) refers to printf2.o(i._printf_core) for _printf_core
    printf2.o(i.__0vfprintf$2) refers to drive_usart.o(i.fputc) for fputc
    printf2.o(i.__0vprintf$2) refers to printf2.o(i._printf_core) for _printf_core
    printf2.o(i.__0vprintf$2) refers to drive_usart.o(i.fputc) for fputc
    printf2.o(i.__0vprintf$2) refers to stdout.o(.data) for __stdout
    printf2.o(i.__0vsnprintf$2) refers to printf2.o(i._printf_core) for _printf_core
    printf2.o(i.__0vsnprintf$2) refers to printf2.o(i._snputc) for _snputc
    printf2.o(i.__0vsprintf$2) refers to printf2.o(i._printf_core) for _printf_core
    printf2.o(i.__0vsprintf$2) refers to printf2.o(i._sputc) for _sputc
    printf3.o(i.__0fprintf$3) refers to printf3.o(i._printf_core) for _printf_core
    printf3.o(i.__0fprintf$3) refers to drive_usart.o(i.fputc) for fputc
    printf3.o(i.__0printf$3) refers to printf3.o(i._printf_core) for _printf_core
    printf3.o(i.__0printf$3) refers to drive_usart.o(i.fputc) for fputc
    printf3.o(i.__0printf$3) refers to stdout.o(.data) for __stdout
    printf3.o(i.__0snprintf$3) refers to printf3.o(i._printf_core) for _printf_core
    printf3.o(i.__0snprintf$3) refers to printf3.o(i._snputc) for _snputc
    printf3.o(i.__0sprintf$3) refers to printf3.o(i._printf_core) for _printf_core
    printf3.o(i.__0sprintf$3) refers to printf3.o(i._sputc) for _sputc
    printf3.o(i.__0vfprintf$3) refers to printf3.o(i._printf_core) for _printf_core
    printf3.o(i.__0vfprintf$3) refers to drive_usart.o(i.fputc) for fputc
    printf3.o(i.__0vprintf$3) refers to printf3.o(i._printf_core) for _printf_core
    printf3.o(i.__0vprintf$3) refers to drive_usart.o(i.fputc) for fputc
    printf3.o(i.__0vprintf$3) refers to stdout.o(.data) for __stdout
    printf3.o(i.__0vsnprintf$3) refers to printf3.o(i._printf_core) for _printf_core
    printf3.o(i.__0vsnprintf$3) refers to printf3.o(i._snputc) for _snputc
    printf3.o(i.__0vsprintf$3) refers to printf3.o(i._printf_core) for _printf_core
    printf3.o(i.__0vsprintf$3) refers to printf3.o(i._sputc) for _sputc
    printf3.o(i._printf_core) refers to uidiv.o(.text) for __aeabi_uidivmod
    printf4.o(i.__0fprintf$4) refers to printf4.o(i._printf_core) for _printf_core
    printf4.o(i.__0fprintf$4) refers to drive_usart.o(i.fputc) for fputc
    printf4.o(i.__0printf$4) refers to printf4.o(i._printf_core) for _printf_core
    printf4.o(i.__0printf$4) refers to drive_usart.o(i.fputc) for fputc
    printf4.o(i.__0printf$4) refers to stdout.o(.data) for __stdout
    printf4.o(i.__0snprintf$4) refers to printf4.o(i._printf_core) for _printf_core
    printf4.o(i.__0snprintf$4) refers to printf4.o(i._snputc) for _snputc
    printf4.o(i.__0sprintf$4) refers to printf4.o(i._printf_core) for _printf_core
    printf4.o(i.__0sprintf$4) refers to printf4.o(i._sputc) for _sputc
    printf4.o(i.__0vfprintf$4) refers to printf4.o(i._printf_core) for _printf_core
    printf4.o(i.__0vfprintf$4) refers to drive_usart.o(i.fputc) for fputc
    printf4.o(i.__0vprintf$4) refers to printf4.o(i._printf_core) for _printf_core
    printf4.o(i.__0vprintf$4) refers to drive_usart.o(i.fputc) for fputc
    printf4.o(i.__0vprintf$4) refers to stdout.o(.data) for __stdout
    printf4.o(i.__0vsnprintf$4) refers to printf4.o(i._printf_core) for _printf_core
    printf4.o(i.__0vsnprintf$4) refers to printf4.o(i._snputc) for _snputc
    printf4.o(i.__0vsprintf$4) refers to printf4.o(i._printf_core) for _printf_core
    printf4.o(i.__0vsprintf$4) refers to printf4.o(i._sputc) for _sputc
    printf4.o(i._printf_core) refers to uldiv.o(.text) for __aeabi_uldivmod
    printf5.o(i.__0fprintf$5) refers to printf5.o(i._printf_core) for _printf_core
    printf5.o(i.__0fprintf$5) refers to drive_usart.o(i.fputc) for fputc
    printf5.o(i.__0printf$5) refers to printf5.o(i._printf_core) for _printf_core
    printf5.o(i.__0printf$5) refers to drive_usart.o(i.fputc) for fputc
    printf5.o(i.__0printf$5) refers to stdout.o(.data) for __stdout
    printf5.o(i.__0snprintf$5) refers to printf5.o(i._printf_core) for _printf_core
    printf5.o(i.__0snprintf$5) refers to printf5.o(i._snputc) for _snputc
    printf5.o(i.__0sprintf$5) refers to printf5.o(i._printf_core) for _printf_core
    printf5.o(i.__0sprintf$5) refers to printf5.o(i._sputc) for _sputc
    printf5.o(i.__0vfprintf$5) refers to printf5.o(i._printf_core) for _printf_core
    printf5.o(i.__0vfprintf$5) refers to drive_usart.o(i.fputc) for fputc
    printf5.o(i.__0vprintf$5) refers to printf5.o(i._printf_core) for _printf_core
    printf5.o(i.__0vprintf$5) refers to drive_usart.o(i.fputc) for fputc
    printf5.o(i.__0vprintf$5) refers to stdout.o(.data) for __stdout
    printf5.o(i.__0vsnprintf$5) refers to printf5.o(i._printf_core) for _printf_core
    printf5.o(i.__0vsnprintf$5) refers to printf5.o(i._snputc) for _snputc
    printf5.o(i.__0vsprintf$5) refers to printf5.o(i._printf_core) for _printf_core
    printf5.o(i.__0vsprintf$5) refers to printf5.o(i._sputc) for _sputc
    printf5.o(i._printf_core) refers to uldiv.o(.text) for __aeabi_uldivmod
    printf6.o(i.__0fprintf$6) refers to printf6.o(i._printf_core) for _printf_core
    printf6.o(i.__0fprintf$6) refers to drive_usart.o(i.fputc) for fputc
    printf6.o(i.__0printf$6) refers to printf6.o(i._printf_core) for _printf_core
    printf6.o(i.__0printf$6) refers to drive_usart.o(i.fputc) for fputc
    printf6.o(i.__0printf$6) refers to stdout.o(.data) for __stdout
    printf6.o(i.__0snprintf$6) refers to printf6.o(i._printf_core) for _printf_core
    printf6.o(i.__0snprintf$6) refers to printf6.o(i._snputc) for _snputc
    printf6.o(i.__0sprintf$6) refers to printf6.o(i._printf_core) for _printf_core
    printf6.o(i.__0sprintf$6) refers to printf6.o(i._sputc) for _sputc
    printf6.o(i.__0vfprintf$6) refers to printf6.o(i._printf_core) for _printf_core
    printf6.o(i.__0vfprintf$6) refers to drive_usart.o(i.fputc) for fputc
    printf6.o(i.__0vprintf$6) refers to printf6.o(i._printf_core) for _printf_core
    printf6.o(i.__0vprintf$6) refers to drive_usart.o(i.fputc) for fputc
    printf6.o(i.__0vprintf$6) refers to stdout.o(.data) for __stdout
    printf6.o(i.__0vsnprintf$6) refers to printf6.o(i._printf_core) for _printf_core
    printf6.o(i.__0vsnprintf$6) refers to printf6.o(i._snputc) for _snputc
    printf6.o(i.__0vsprintf$6) refers to printf6.o(i._printf_core) for _printf_core
    printf6.o(i.__0vsprintf$6) refers to printf6.o(i._sputc) for _sputc
    printf6.o(i._printf_core) refers to printf6.o(i._printf_pre_padding) for _printf_pre_padding
    printf6.o(i._printf_core) refers to uidiv.o(.text) for __aeabi_uidivmod
    printf6.o(i._printf_core) refers to printf6.o(i._printf_post_padding) for _printf_post_padding
    printf7.o(i.__0fprintf$7) refers to printf7.o(i._printf_core) for _printf_core
    printf7.o(i.__0fprintf$7) refers to drive_usart.o(i.fputc) for fputc
    printf7.o(i.__0printf$7) refers to printf7.o(i._printf_core) for _printf_core
    printf7.o(i.__0printf$7) refers to drive_usart.o(i.fputc) for fputc
    printf7.o(i.__0printf$7) refers to stdout.o(.data) for __stdout
    printf7.o(i.__0snprintf$7) refers to printf7.o(i._printf_core) for _printf_core
    printf7.o(i.__0snprintf$7) refers to printf7.o(i._snputc) for _snputc
    printf7.o(i.__0sprintf$7) refers to printf7.o(i._printf_core) for _printf_core
    printf7.o(i.__0sprintf$7) refers to printf7.o(i._sputc) for _sputc
    printf7.o(i.__0vfprintf$7) refers to printf7.o(i._printf_core) for _printf_core
    printf7.o(i.__0vfprintf$7) refers to drive_usart.o(i.fputc) for fputc
    printf7.o(i.__0vprintf$7) refers to printf7.o(i._printf_core) for _printf_core
    printf7.o(i.__0vprintf$7) refers to drive_usart.o(i.fputc) for fputc
    printf7.o(i.__0vprintf$7) refers to stdout.o(.data) for __stdout
    printf7.o(i.__0vsnprintf$7) refers to printf7.o(i._printf_core) for _printf_core
    printf7.o(i.__0vsnprintf$7) refers to printf7.o(i._snputc) for _snputc
    printf7.o(i.__0vsprintf$7) refers to printf7.o(i._printf_core) for _printf_core
    printf7.o(i.__0vsprintf$7) refers to printf7.o(i._sputc) for _sputc
    printf7.o(i._printf_core) refers to printf7.o(i._printf_pre_padding) for _printf_pre_padding
    printf7.o(i._printf_core) refers to uldiv.o(.text) for __aeabi_uldivmod
    printf7.o(i._printf_core) refers to printf7.o(i._printf_post_padding) for _printf_post_padding
    printf8.o(i.__0fprintf$8) refers to printf8.o(i._printf_core) for _printf_core
    printf8.o(i.__0fprintf$8) refers to drive_usart.o(i.fputc) for fputc
    printf8.o(i.__0printf$8) refers to printf8.o(i._printf_core) for _printf_core
    printf8.o(i.__0printf$8) refers to drive_usart.o(i.fputc) for fputc
    printf8.o(i.__0printf$8) refers to stdout.o(.data) for __stdout
    printf8.o(i.__0snprintf$8) refers to printf8.o(i._printf_core) for _printf_core
    printf8.o(i.__0snprintf$8) refers to printf8.o(i._snputc) for _snputc
    printf8.o(i.__0sprintf$8) refers to printf8.o(i._printf_core) for _printf_core
    printf8.o(i.__0sprintf$8) refers to printf8.o(i._sputc) for _sputc
    printf8.o(i.__0vfprintf$8) refers to printf8.o(i._printf_core) for _printf_core
    printf8.o(i.__0vfprintf$8) refers to drive_usart.o(i.fputc) for fputc
    printf8.o(i.__0vprintf$8) refers to printf8.o(i._printf_core) for _printf_core
    printf8.o(i.__0vprintf$8) refers to drive_usart.o(i.fputc) for fputc
    printf8.o(i.__0vprintf$8) refers to stdout.o(.data) for __stdout
    printf8.o(i.__0vsnprintf$8) refers to printf8.o(i._printf_core) for _printf_core
    printf8.o(i.__0vsnprintf$8) refers to printf8.o(i._snputc) for _snputc
    printf8.o(i.__0vsprintf$8) refers to printf8.o(i._printf_core) for _printf_core
    printf8.o(i.__0vsprintf$8) refers to printf8.o(i._sputc) for _sputc
    printf8.o(i._printf_core) refers to printf8.o(i._printf_pre_padding) for _printf_pre_padding
    printf8.o(i._printf_core) refers to uldiv.o(.text) for __aeabi_uldivmod
    printf8.o(i._printf_core) refers to printf8.o(i._printf_post_padding) for _printf_post_padding
    printfa.o(i.__0fprintf) refers (Special) to iusefp.o(.text) for __I$use$fp
    printfa.o(i.__0fprintf) refers to printfa.o(i._printf_core) for _printf_core
    printfa.o(i.__0fprintf) refers to drive_usart.o(i.fputc) for fputc
    printfa.o(i.__0printf) refers (Special) to iusefp.o(.text) for __I$use$fp
    printfa.o(i.__0printf) refers to printfa.o(i._printf_core) for _printf_core
    printfa.o(i.__0printf) refers to drive_usart.o(i.fputc) for fputc
    printfa.o(i.__0printf) refers to stdout.o(.data) for __stdout
    printfa.o(i.__0snprintf) refers (Special) to iusefp.o(.text) for __I$use$fp
    printfa.o(i.__0snprintf) refers to printfa.o(i._printf_core) for _printf_core
    printfa.o(i.__0snprintf) refers to printfa.o(i._snputc) for _snputc
    printfa.o(i.__0sprintf) refers (Special) to iusefp.o(.text) for __I$use$fp
    printfa.o(i.__0sprintf) refers to printfa.o(i._printf_core) for _printf_core
    printfa.o(i.__0sprintf) refers to printfa.o(i._sputc) for _sputc
    printfa.o(i.__0vfprintf) refers (Special) to iusefp.o(.text) for __I$use$fp
    printfa.o(i.__0vfprintf) refers to printfa.o(i._printf_core) for _printf_core
    printfa.o(i.__0vfprintf) refers to drive_usart.o(i.fputc) for fputc
    printfa.o(i.__0vprintf) refers (Special) to iusefp.o(.text) for __I$use$fp
    printfa.o(i.__0vprintf) refers to printfa.o(i._printf_core) for _printf_core
    printfa.o(i.__0vprintf) refers to drive_usart.o(i.fputc) for fputc
    printfa.o(i.__0vprintf) refers to stdout.o(.data) for __stdout
    printfa.o(i.__0vsnprintf) refers (Special) to iusefp.o(.text) for __I$use$fp
    printfa.o(i.__0vsnprintf) refers to printfa.o(i._printf_core) for _printf_core
    printfa.o(i.__0vsnprintf) refers to printfa.o(i._snputc) for _snputc
    printfa.o(i.__0vsprintf) refers (Special) to iusefp.o(.text) for __I$use$fp
    printfa.o(i.__0vsprintf) refers to printfa.o(i._printf_core) for _printf_core
    printfa.o(i.__0vsprintf) refers to printfa.o(i._sputc) for _sputc
    printfa.o(i._fp_digits) refers (Special) to iusefp.o(.text) for __I$use$fp
    printfa.o(i._fp_digits) refers to dmul.o(.text) for __aeabi_dmul
    printfa.o(i._fp_digits) refers to ddiv.o(.text) for __aeabi_ddiv
    printfa.o(i._fp_digits) refers to cdrcmple.o(.text) for __aeabi_cdrcmple
    printfa.o(i._fp_digits) refers to dadd.o(.text) for __aeabi_dadd
    printfa.o(i._fp_digits) refers to dfixul.o(.text) for __aeabi_d2ulz
    printfa.o(i._fp_digits) refers to uldiv.o(.text) for __aeabi_uldivmod
    printfa.o(i._printf_core) refers (Special) to iusefp.o(.text) for __I$use$fp
    printfa.o(i._printf_core) refers to printfa.o(i._printf_pre_padding) for _printf_pre_padding
    printfa.o(i._printf_core) refers to uldiv.o(.text) for __aeabi_uldivmod
    printfa.o(i._printf_core) refers to printfa.o(i._printf_post_padding) for _printf_post_padding
    printfa.o(i._printf_core) refers to printfa.o(i._fp_digits) for _fp_digits
    printfa.o(i._printf_core) refers to uidiv.o(.text) for __aeabi_uidivmod
    printfa.o(i._printf_post_padding) refers (Special) to iusefp.o(.text) for __I$use$fp
    printfa.o(i._printf_pre_padding) refers (Special) to iusefp.o(.text) for __I$use$fp
    printfa.o(i._snputc) refers (Special) to iusefp.o(.text) for __I$use$fp
    printfa.o(i._sputc) refers (Special) to iusefp.o(.text) for __I$use$fp
    malloc.o(i.free) refers to mvars.o(.data) for __microlib_freelist
    malloc.o(i.malloc) refers to mvars.o(.data) for __microlib_freelist_initialised
    malloc.o(i.malloc) refers to mvars.o(.data) for __microlib_freelist
    malloc.o(i.malloc) refers to startup_stm32f10x_md.o(HEAP) for __heap_base
    mallocr.o(i.__free$realloc) refers to mvars.o(.data) for __microlib_freelist
    mallocr.o(i.__malloc$realloc) refers to mallocr.o(i.internal_alloc) for internal_alloc
    mallocr.o(i.__malloc$realloc) refers to mvars.o(.data) for __microlib_freelist_initialised
    mallocr.o(i.__malloc$realloc) refers to startup_stm32f10x_md.o(HEAP) for __heap_base
    mallocr.o(i.__malloc$realloc) refers to mvars.o(.data) for __microlib_freelist
    mallocr.o(i.internal_alloc) refers to memcpya.o(.text) for __aeabi_memcpy
    mallocr.o(i.internal_alloc) refers to mvars.o(.data) for __microlib_freelist
    mallocr.o(i.realloc) refers to mallocr.o(i.__free$realloc) for __free$realloc
    mallocr.o(i.realloc) refers to mallocr.o(i.internal_alloc) for internal_alloc
    mallocr.o(i.realloc) refers to mallocr.o(i.__malloc$realloc) for __malloc$realloc
    mallocr.o(i.realloc) refers to mvars.o(.data) for __microlib_freelist
    malloca.o(i.__aligned_malloc) refers to mvars.o(.data) for __microlib_freelist_initialised
    malloca.o(i.__aligned_malloc) refers to mvars.o(.data) for __microlib_freelist
    malloca.o(i.__aligned_malloc) refers to startup_stm32f10x_md.o(HEAP) for __heap_base
    malloca.o(i.__free$memalign) refers to mvars.o(.data) for __microlib_freelist
    malloca.o(i.__malloc$memalign) refers to malloca.o(i.__aligned_malloc) for __aligned_malloc
    mallocra.o(i.__aligned_malloc$realloc) refers to mallocra.o(i.internal_alloc) for internal_alloc
    mallocra.o(i.__aligned_malloc$realloc) refers to mvars.o(.data) for __microlib_freelist_initialised
    mallocra.o(i.__aligned_malloc$realloc) refers to startup_stm32f10x_md.o(HEAP) for __heap_base
    mallocra.o(i.__aligned_malloc$realloc) refers to mvars.o(.data) for __microlib_freelist
    mallocra.o(i.__free$realloc$memalign) refers to mvars.o(.data) for __microlib_freelist
    mallocra.o(i.__malloc$realloc$memalign) refers to mallocra.o(i.__aligned_malloc$realloc) for __aligned_malloc$realloc
    mallocra.o(i.__realloc$memalign) refers to mallocra.o(i.__free$realloc$memalign) for __free$realloc$memalign
    mallocra.o(i.__realloc$memalign) refers to mallocra.o(i.internal_alloc) for internal_alloc
    mallocra.o(i.__realloc$memalign) refers to mallocra.o(i.__malloc$realloc$memalign) for __malloc$realloc$memalign
    mallocra.o(i.__realloc$memalign) refers to mvars.o(.data) for __microlib_freelist
    mallocra.o(i.internal_alloc) refers to memcpya.o(.text) for __aeabi_memcpy
    mallocra.o(i.internal_alloc) refers to mvars.o(.data) for __microlib_freelist
    __0scanf.o(.text) refers to scanf_char_file.o(.text) for __vfscanf_char_file
    __0scanf.o(.text) refers to stdin.o(.data) for __stdin
    _scanf_int.o(.text) refers to _chval.o(.text) for _chval
    entry2.o(.ARM.Collect$$$$00000001) refers to entry2.o(.ARM.Collect$$$$00002712) for __lit__00000000
    entry2.o(.ARM.Collect$$$$00002712) refers to startup_stm32f10x_md.o(STACK) for __initial_sp
    entry2.o(__vectab_stack_and_reset_area) refers to startup_stm32f10x_md.o(STACK) for __initial_sp
    entry2.o(__vectab_stack_and_reset_area) refers to entry.o(.ARM.Collect$$$$00000000) for __main
    entry5.o(.ARM.Collect$$$$00000004) refers to init.o(.text) for __scatterload
    entry9a.o(.ARM.Collect$$$$0000000B) refers to main.o(i.main) for main
    entry9b.o(.ARM.Collect$$$$0000000C) refers to main.o(i.main) for main
    uldiv.o(.text) refers to llushr.o(.text) for __aeabi_llsr
    uldiv.o(.text) refers to llshl.o(.text) for __aeabi_llsl
    scanf_char_file.o(.text) refers to scanf_char.o(.text) for __vfscanf_char
    scanf_char_file.o(.text) refers to drive_usart.o(i.fgetc) for fgetc
    scanf_char_file.o(.text) refers to fgetc_b.o(.text) for __backspace
    dadd.o(.text) refers to llshl.o(.text) for __aeabi_llsl
    dadd.o(.text) refers to llsshr.o(.text) for __aeabi_lasr
    dadd.o(.text) refers to depilogue.o(.text) for _double_epilogue
    dmul.o(.text) refers to depilogue.o(.text) for _double_epilogue
    ddiv.o(.text) refers to depilogue.o(.text) for _double_round
    dfixul.o(.text) refers to llushr.o(.text) for __aeabi_llsr
    dfixul.o(.text) refers to llshl.o(.text) for __aeabi_llsl
    init.o(.text) refers to entry5.o(.ARM.Collect$$$$00000004) for __main_after_scatterload
    fgetc_b.o(.text) refers (Special) to iusesemig.o(.text) for __I$use$semihosting$fgetc
    fgetc_b.o(.text) refers (Special) to semi.o(.text) for __semihosting_library_function
    fgetc_b.o(.text) refers to fgetc_b.o(.data) for .data
    fgetc_b.o(.data) refers (Special) to iusesemig.o(.text) for __I$use$semihosting$fgetc
    fgetc_b.o(.data) refers (Special) to semi.o(.text) for __semihosting_library_function
    scanf_char.o(.text) refers to _scanf.o(.text) for __vfscanf
    scanf_char.o(.text) refers to isspace_c.o(.text) for isspace
    depilogue.o(.text) refers to llshl.o(.text) for __aeabi_llsl
    depilogue.o(.text) refers to llushr.o(.text) for __aeabi_llsr
    isspace_c.o(.text) refers to ctype_c.o(.text) for __ctype_lookup
    _scanf.o(.text) refers (Weak) to _scanf_int.o(.text) for _scanf_int
    ctype_c.o(.text) refers to ctype_c.o(.constdata) for .constdata


==============================================================================

Removing Unused input sections from the image.

    Removing core_cm3.o(.emb_text), (32 bytes).
    Removing system_stm32f10x.o(i.SystemCoreClockUpdate), (164 bytes).
    Removing system_stm32f10x.o(.data), (20 bytes).
    Removing misc.o(i.NVIC_SetVectorTable), (20 bytes).
    Removing misc.o(i.NVIC_SystemLPConfig), (32 bytes).
    Removing misc.o(i.SysTick_CLKSourceConfig), (40 bytes).
    Removing stm32f10x_adc.o(i.ADC_AnalogWatchdogCmd), (20 bytes).
    Removing stm32f10x_adc.o(i.ADC_AnalogWatchdogSingleChannelConfig), (16 bytes).
    Removing stm32f10x_adc.o(i.ADC_AnalogWatchdogThresholdsConfig), (6 bytes).
    Removing stm32f10x_adc.o(i.ADC_AutoInjectedConvCmd), (22 bytes).
    Removing stm32f10x_adc.o(i.ADC_ClearFlag), (6 bytes).
    Removing stm32f10x_adc.o(i.ADC_ClearITPendingBit), (10 bytes).
    Removing stm32f10x_adc.o(i.ADC_Cmd), (22 bytes).
    Removing stm32f10x_adc.o(i.ADC_DMACmd), (22 bytes).
    Removing stm32f10x_adc.o(i.ADC_DeInit), (92 bytes).
    Removing stm32f10x_adc.o(i.ADC_DiscModeChannelCountConfig), (24 bytes).
    Removing stm32f10x_adc.o(i.ADC_DiscModeCmd), (22 bytes).
    Removing stm32f10x_adc.o(i.ADC_ExternalTrigConvCmd), (22 bytes).
    Removing stm32f10x_adc.o(i.ADC_ExternalTrigInjectedConvCmd), (22 bytes).
    Removing stm32f10x_adc.o(i.ADC_ExternalTrigInjectedConvConfig), (16 bytes).
    Removing stm32f10x_adc.o(i.ADC_GetCalibrationStatus), (20 bytes).
    Removing stm32f10x_adc.o(i.ADC_GetConversionValue), (8 bytes).
    Removing stm32f10x_adc.o(i.ADC_GetDualModeConversionValue), (12 bytes).
    Removing stm32f10x_adc.o(i.ADC_GetFlagStatus), (18 bytes).
    Removing stm32f10x_adc.o(i.ADC_GetITStatus), (36 bytes).
    Removing stm32f10x_adc.o(i.ADC_GetInjectedConversionValue), (28 bytes).
    Removing stm32f10x_adc.o(i.ADC_GetResetCalibrationStatus), (20 bytes).
    Removing stm32f10x_adc.o(i.ADC_GetSoftwareStartConvStatus), (20 bytes).
    Removing stm32f10x_adc.o(i.ADC_GetSoftwareStartInjectedConvCmdStatus), (20 bytes).
    Removing stm32f10x_adc.o(i.ADC_ITConfig), (24 bytes).
    Removing stm32f10x_adc.o(i.ADC_Init), (80 bytes).
    Removing stm32f10x_adc.o(i.ADC_InjectedChannelConfig), (130 bytes).
    Removing stm32f10x_adc.o(i.ADC_InjectedDiscModeCmd), (22 bytes).
    Removing stm32f10x_adc.o(i.ADC_InjectedSequencerLengthConfig), (24 bytes).
    Removing stm32f10x_adc.o(i.ADC_RegularChannelConfig), (184 bytes).
    Removing stm32f10x_adc.o(i.ADC_ResetCalibration), (10 bytes).
    Removing stm32f10x_adc.o(i.ADC_SetInjectedOffset), (20 bytes).
    Removing stm32f10x_adc.o(i.ADC_SoftwareStartConvCmd), (22 bytes).
    Removing stm32f10x_adc.o(i.ADC_SoftwareStartInjectedConvCmd), (22 bytes).
    Removing stm32f10x_adc.o(i.ADC_StartCalibration), (10 bytes).
    Removing stm32f10x_adc.o(i.ADC_StructInit), (18 bytes).
    Removing stm32f10x_adc.o(i.ADC_TempSensorVrefintCmd), (36 bytes).
    Removing stm32f10x_bkp.o(i.BKP_ClearFlag), (20 bytes).
    Removing stm32f10x_bkp.o(i.BKP_ClearITPendingBit), (20 bytes).
    Removing stm32f10x_bkp.o(i.BKP_GetFlagStatus), (12 bytes).
    Removing stm32f10x_bkp.o(i.BKP_GetITStatus), (12 bytes).
    Removing stm32f10x_bkp.o(i.BKP_ITConfig), (12 bytes).
    Removing stm32f10x_bkp.o(i.BKP_RTCOutputConfig), (28 bytes).
    Removing stm32f10x_bkp.o(i.BKP_ReadBackupRegister), (28 bytes).
    Removing stm32f10x_bkp.o(i.BKP_SetRTCCalibrationValue), (28 bytes).
    Removing stm32f10x_bkp.o(i.BKP_TamperPinCmd), (12 bytes).
    Removing stm32f10x_bkp.o(i.BKP_TamperPinLevelConfig), (12 bytes).
    Removing stm32f10x_bkp.o(i.BKP_WriteBackupRegister), (28 bytes).
    Removing stm32f10x_can.o(i.CAN_CancelTransmit), (48 bytes).
    Removing stm32f10x_can.o(i.CAN_ClearFlag), (56 bytes).
    Removing stm32f10x_can.o(i.CAN_ClearITPendingBit), (168 bytes).
    Removing stm32f10x_can.o(i.CAN_DBGFreeze), (22 bytes).
    Removing stm32f10x_can.o(i.CAN_DeInit), (56 bytes).
    Removing stm32f10x_can.o(i.CAN_FIFORelease), (22 bytes).
    Removing stm32f10x_can.o(i.CAN_FilterInit), (264 bytes).
    Removing stm32f10x_can.o(i.CAN_GetFlagStatus), (120 bytes).
    Removing stm32f10x_can.o(i.CAN_GetITStatus), (288 bytes).
    Removing stm32f10x_can.o(i.CAN_GetLSBTransmitErrorCounter), (12 bytes).
    Removing stm32f10x_can.o(i.CAN_GetLastErrorCode), (12 bytes).
    Removing stm32f10x_can.o(i.CAN_GetReceiveErrorCounter), (10 bytes).
    Removing stm32f10x_can.o(i.CAN_ITConfig), (18 bytes).
    Removing stm32f10x_can.o(i.CAN_Init), (276 bytes).
    Removing stm32f10x_can.o(i.CAN_MessagePending), (30 bytes).
    Removing stm32f10x_can.o(i.CAN_OperatingModeRequest), (162 bytes).
    Removing stm32f10x_can.o(i.CAN_Receive), (240 bytes).
    Removing stm32f10x_can.o(i.CAN_SlaveStartBank), (52 bytes).
    Removing stm32f10x_can.o(i.CAN_Sleep), (30 bytes).
    Removing stm32f10x_can.o(i.CAN_StructInit), (32 bytes).
    Removing stm32f10x_can.o(i.CAN_TTComModeCmd), (118 bytes).
    Removing stm32f10x_can.o(i.CAN_Transmit), (294 bytes).
    Removing stm32f10x_can.o(i.CAN_TransmitStatus), (160 bytes).
    Removing stm32f10x_can.o(i.CAN_WakeUp), (48 bytes).
    Removing stm32f10x_can.o(i.CheckITStatus), (18 bytes).
    Removing stm32f10x_cec.o(i.CEC_ClearFlag), (36 bytes).
    Removing stm32f10x_cec.o(i.CEC_ClearITPendingBit), (36 bytes).
    Removing stm32f10x_cec.o(i.CEC_Cmd), (32 bytes).
    Removing stm32f10x_cec.o(i.CEC_DeInit), (22 bytes).
    Removing stm32f10x_cec.o(i.CEC_EndOfMessageCmd), (12 bytes).
    Removing stm32f10x_cec.o(i.CEC_GetFlagStatus), (48 bytes).
    Removing stm32f10x_cec.o(i.CEC_GetITStatus), (40 bytes).
    Removing stm32f10x_cec.o(i.CEC_ITConfig), (12 bytes).
    Removing stm32f10x_cec.o(i.CEC_Init), (32 bytes).
    Removing stm32f10x_cec.o(i.CEC_OwnAddressConfig), (12 bytes).
    Removing stm32f10x_cec.o(i.CEC_ReceiveDataByte), (12 bytes).
    Removing stm32f10x_cec.o(i.CEC_SendDataByte), (12 bytes).
    Removing stm32f10x_cec.o(i.CEC_SetPrescaler), (12 bytes).
    Removing stm32f10x_cec.o(i.CEC_StartOfMessage), (12 bytes).
    Removing stm32f10x_crc.o(i.CRC_CalcBlockCRC), (36 bytes).
    Removing stm32f10x_crc.o(i.CRC_CalcCRC), (16 bytes).
    Removing stm32f10x_crc.o(i.CRC_GetCRC), (12 bytes).
    Removing stm32f10x_crc.o(i.CRC_GetIDRegister), (12 bytes).
    Removing stm32f10x_crc.o(i.CRC_ResetDR), (12 bytes).
    Removing stm32f10x_crc.o(i.CRC_SetIDRegister), (12 bytes).
    Removing stm32f10x_dac.o(i.DAC_Cmd), (40 bytes).
    Removing stm32f10x_dac.o(i.DAC_DMACmd), (44 bytes).
    Removing stm32f10x_dac.o(i.DAC_DeInit), (22 bytes).
    Removing stm32f10x_dac.o(i.DAC_DualSoftwareTriggerCmd), (36 bytes).
    Removing stm32f10x_dac.o(i.DAC_GetDataOutputValue), (36 bytes).
    Removing stm32f10x_dac.o(i.DAC_Init), (52 bytes).
    Removing stm32f10x_dac.o(i.DAC_SetChannel1Data), (32 bytes).
    Removing stm32f10x_dac.o(i.DAC_SetChannel2Data), (32 bytes).
    Removing stm32f10x_dac.o(i.DAC_SetDualChannelData), (36 bytes).
    Removing stm32f10x_dac.o(i.DAC_SoftwareTriggerCmd), (44 bytes).
    Removing stm32f10x_dac.o(i.DAC_StructInit), (12 bytes).
    Removing stm32f10x_dac.o(i.DAC_WaveGenerationCmd), (40 bytes).
    Removing stm32f10x_dbgmcu.o(i.DBGMCU_Config), (32 bytes).
    Removing stm32f10x_dbgmcu.o(i.DBGMCU_GetDEVID), (16 bytes).
    Removing stm32f10x_dbgmcu.o(i.DBGMCU_GetREVID), (12 bytes).
    Removing stm32f10x_dma.o(i.DMA_ClearITPendingBit), (28 bytes).
    Removing stm32f10x_dma.o(i.DMA_GetCurrDataCounter), (8 bytes).
    Removing stm32f10x_dma.o(i.DMA_GetITStatus), (44 bytes).
    Removing stm32f10x_dma.o(i.DMA_StructInit), (26 bytes).
    Removing stm32f10x_exti.o(i.EXTI_ClearFlag), (12 bytes).
    Removing stm32f10x_exti.o(i.EXTI_ClearITPendingBit), (12 bytes).
    Removing stm32f10x_exti.o(i.EXTI_DeInit), (36 bytes).
    Removing stm32f10x_exti.o(i.EXTI_GenerateSWInterrupt), (16 bytes).
    Removing stm32f10x_exti.o(i.EXTI_GetFlagStatus), (24 bytes).
    Removing stm32f10x_exti.o(i.EXTI_GetITStatus), (40 bytes).
    Removing stm32f10x_exti.o(i.EXTI_Init), (148 bytes).
    Removing stm32f10x_exti.o(i.EXTI_StructInit), (16 bytes).
    Removing stm32f10x_flash.o(i.FLASH_ClearFlag), (12 bytes).
    Removing stm32f10x_flash.o(i.FLASH_EnableWriteProtection), (196 bytes).
    Removing stm32f10x_flash.o(i.FLASH_EraseAllBank1Pages), (72 bytes).
    Removing stm32f10x_flash.o(i.FLASH_EraseAllPages), (72 bytes).
    Removing stm32f10x_flash.o(i.FLASH_EraseOptionBytes), (168 bytes).
    Removing stm32f10x_flash.o(i.FLASH_ErasePage), (76 bytes).
    Removing stm32f10x_flash.o(i.FLASH_GetBank1Status), (52 bytes).
    Removing stm32f10x_flash.o(i.FLASH_GetFlagStatus), (48 bytes).
    Removing stm32f10x_flash.o(i.FLASH_GetPrefetchBufferStatus), (24 bytes).
    Removing stm32f10x_flash.o(i.FLASH_GetReadOutProtectionStatus), (24 bytes).
    Removing stm32f10x_flash.o(i.FLASH_GetStatus), (52 bytes).
    Removing stm32f10x_flash.o(i.FLASH_GetUserOptionByte), (12 bytes).
    Removing stm32f10x_flash.o(i.FLASH_GetWriteProtectionOptionByte), (12 bytes).
    Removing stm32f10x_flash.o(i.FLASH_HalfCycleAccessCmd), (28 bytes).
    Removing stm32f10x_flash.o(i.FLASH_ITConfig), (32 bytes).
    Removing stm32f10x_flash.o(i.FLASH_Lock), (20 bytes).
    Removing stm32f10x_flash.o(i.FLASH_LockBank1), (20 bytes).
    Removing stm32f10x_flash.o(i.FLASH_PrefetchBufferCmd), (28 bytes).
    Removing stm32f10x_flash.o(i.FLASH_ProgramHalfWord), (64 bytes).
    Removing stm32f10x_flash.o(i.FLASH_ProgramOptionByteData), (84 bytes).
    Removing stm32f10x_flash.o(i.FLASH_ProgramWord), (108 bytes).
    Removing stm32f10x_flash.o(i.FLASH_ReadOutProtection), (172 bytes).
    Removing stm32f10x_flash.o(i.FLASH_SetLatency), (24 bytes).
    Removing stm32f10x_flash.o(i.FLASH_Unlock), (24 bytes).
    Removing stm32f10x_flash.o(i.FLASH_UnlockBank1), (24 bytes).
    Removing stm32f10x_flash.o(i.FLASH_UserOptionByteConfig), (104 bytes).
    Removing stm32f10x_flash.o(i.FLASH_WaitForLastBank1Operation), (38 bytes).
    Removing stm32f10x_flash.o(i.FLASH_WaitForLastOperation), (38 bytes).
    Removing stm32f10x_fsmc.o(i.FSMC_ClearFlag), (64 bytes).
    Removing stm32f10x_fsmc.o(i.FSMC_ClearITPendingBit), (72 bytes).
    Removing stm32f10x_fsmc.o(i.FSMC_GetECC), (28 bytes).
    Removing stm32f10x_fsmc.o(i.FSMC_GetFlagStatus), (56 bytes).
    Removing stm32f10x_fsmc.o(i.FSMC_GetITStatus), (68 bytes).
    Removing stm32f10x_fsmc.o(i.FSMC_ITConfig), (128 bytes).
    Removing stm32f10x_fsmc.o(i.FSMC_NANDCmd), (92 bytes).
    Removing stm32f10x_fsmc.o(i.FSMC_NANDDeInit), (68 bytes).
    Removing stm32f10x_fsmc.o(i.FSMC_NANDECCCmd), (92 bytes).
    Removing stm32f10x_fsmc.o(i.FSMC_NANDInit), (136 bytes).
    Removing stm32f10x_fsmc.o(i.FSMC_NANDStructInit), (54 bytes).
    Removing stm32f10x_fsmc.o(i.FSMC_NORSRAMCmd), (52 bytes).
    Removing stm32f10x_fsmc.o(i.FSMC_NORSRAMDeInit), (54 bytes).
    Removing stm32f10x_fsmc.o(i.FSMC_NORSRAMInit), (230 bytes).
    Removing stm32f10x_fsmc.o(i.FSMC_NORSRAMStructInit), (114 bytes).
    Removing stm32f10x_fsmc.o(i.FSMC_PCCARDCmd), (48 bytes).
    Removing stm32f10x_fsmc.o(i.FSMC_PCCARDDeInit), (40 bytes).
    Removing stm32f10x_fsmc.o(i.FSMC_PCCARDInit), (132 bytes).
    Removing stm32f10x_fsmc.o(i.FSMC_PCCARDStructInit), (60 bytes).
    Removing stm32f10x_gpio.o(i.GPIO_AFIODeInit), (20 bytes).
    Removing stm32f10x_gpio.o(i.GPIO_DeInit), (200 bytes).
    Removing stm32f10x_gpio.o(i.GPIO_ETH_MediaInterfaceConfig), (12 bytes).
    Removing stm32f10x_gpio.o(i.GPIO_EXTILineConfig), (64 bytes).
    Removing stm32f10x_gpio.o(i.GPIO_EventOutputCmd), (12 bytes).
    Removing stm32f10x_gpio.o(i.GPIO_EventOutputConfig), (32 bytes).
    Removing stm32f10x_gpio.o(i.GPIO_PinLockConfig), (18 bytes).
    Removing stm32f10x_gpio.o(i.GPIO_PinRemapConfig), (144 bytes).
    Removing stm32f10x_gpio.o(i.GPIO_ReadInputData), (8 bytes).
    Removing stm32f10x_gpio.o(i.GPIO_ReadOutputData), (8 bytes).
    Removing stm32f10x_gpio.o(i.GPIO_ReadOutputDataBit), (18 bytes).
    Removing stm32f10x_gpio.o(i.GPIO_ResetBits), (4 bytes).
    Removing stm32f10x_gpio.o(i.GPIO_SetBits), (4 bytes).
    Removing stm32f10x_gpio.o(i.GPIO_StructInit), (16 bytes).
    Removing stm32f10x_gpio.o(i.GPIO_Write), (4 bytes).
    Removing stm32f10x_i2c.o(i.I2C_ARPCmd), (24 bytes).
    Removing stm32f10x_i2c.o(i.I2C_AcknowledgeConfig), (24 bytes).
    Removing stm32f10x_i2c.o(i.I2C_CalculatePEC), (24 bytes).
    Removing stm32f10x_i2c.o(i.I2C_ClearFlag), (12 bytes).
    Removing stm32f10x_i2c.o(i.I2C_ClearITPendingBit), (12 bytes).
    Removing stm32f10x_i2c.o(i.I2C_DMALastTransferCmd), (24 bytes).
    Removing stm32f10x_i2c.o(i.I2C_DeInit), (56 bytes).
    Removing stm32f10x_i2c.o(i.I2C_DualAddressCmd), (24 bytes).
    Removing stm32f10x_i2c.o(i.I2C_FastModeDutyCycleConfig), (28 bytes).
    Removing stm32f10x_i2c.o(i.I2C_GeneralCallCmd), (24 bytes).
    Removing stm32f10x_i2c.o(i.I2C_GetITStatus), (38 bytes).
    Removing stm32f10x_i2c.o(i.I2C_GetLastEvent), (26 bytes).
    Removing stm32f10x_i2c.o(i.I2C_GetPEC), (8 bytes).
    Removing stm32f10x_i2c.o(i.I2C_ITConfig), (18 bytes).
    Removing stm32f10x_i2c.o(i.I2C_NACKPositionConfig), (28 bytes).
    Removing stm32f10x_i2c.o(i.I2C_OwnAddress2Config), (22 bytes).
    Removing stm32f10x_i2c.o(i.I2C_PECPositionConfig), (28 bytes).
    Removing stm32f10x_i2c.o(i.I2C_ReadRegister), (22 bytes).
    Removing stm32f10x_i2c.o(i.I2C_ReceiveData), (8 bytes).
    Removing stm32f10x_i2c.o(i.I2C_SMBusAlertConfig), (28 bytes).
    Removing stm32f10x_i2c.o(i.I2C_SoftwareResetCmd), (22 bytes).
    Removing stm32f10x_i2c.o(i.I2C_StretchClockCmd), (24 bytes).
    Removing stm32f10x_i2c.o(i.I2C_StructInit), (30 bytes).
    Removing stm32f10x_i2c.o(i.I2C_TransmitPEC), (24 bytes).
    Removing stm32f10x_iwdg.o(i.IWDG_Enable), (16 bytes).
    Removing stm32f10x_iwdg.o(i.IWDG_GetFlagStatus), (24 bytes).
    Removing stm32f10x_iwdg.o(i.IWDG_ReloadCounter), (16 bytes).
    Removing stm32f10x_iwdg.o(i.IWDG_SetPrescaler), (12 bytes).
    Removing stm32f10x_iwdg.o(i.IWDG_SetReload), (12 bytes).
    Removing stm32f10x_iwdg.o(i.IWDG_WriteAccessCmd), (12 bytes).
    Removing stm32f10x_pwr.o(i.PWR_ClearFlag), (20 bytes).
    Removing stm32f10x_pwr.o(i.PWR_DeInit), (22 bytes).
    Removing stm32f10x_pwr.o(i.PWR_EnterSTANDBYMode), (52 bytes).
    Removing stm32f10x_pwr.o(i.PWR_EnterSTOPMode), (64 bytes).
    Removing stm32f10x_pwr.o(i.PWR_GetFlagStatus), (24 bytes).
    Removing stm32f10x_pwr.o(i.PWR_PVDCmd), (12 bytes).
    Removing stm32f10x_pwr.o(i.PWR_PVDLevelConfig), (24 bytes).
    Removing stm32f10x_pwr.o(i.PWR_WakeUpPinCmd), (12 bytes).
    Removing stm32f10x_rcc.o(i.RCC_ADCCLKConfig), (24 bytes).
    Removing stm32f10x_rcc.o(i.RCC_APB1PeriphResetCmd), (32 bytes).
    Removing stm32f10x_rcc.o(i.RCC_APB2PeriphResetCmd), (32 bytes).
    Removing stm32f10x_rcc.o(i.RCC_AdjustHSICalibrationValue), (24 bytes).
    Removing stm32f10x_rcc.o(i.RCC_ClearFlag), (20 bytes).
    Removing stm32f10x_rcc.o(i.RCC_ClearITPendingBit), (12 bytes).
    Removing stm32f10x_rcc.o(i.RCC_ClockSecuritySystemCmd), (12 bytes).
    Removing stm32f10x_rcc.o(i.RCC_DeInit), (76 bytes).
    Removing stm32f10x_rcc.o(i.RCC_GetITStatus), (24 bytes).
    Removing stm32f10x_rcc.o(i.RCC_GetSYSCLKSource), (16 bytes).
    Removing stm32f10x_rcc.o(i.RCC_HCLKConfig), (24 bytes).
    Removing stm32f10x_rcc.o(i.RCC_HSEConfig), (76 bytes).
    Removing stm32f10x_rcc.o(i.RCC_HSICmd), (12 bytes).
    Removing stm32f10x_rcc.o(i.RCC_ITConfig), (32 bytes).
    Removing stm32f10x_rcc.o(i.RCC_LSEConfig), (52 bytes).
    Removing stm32f10x_rcc.o(i.RCC_MCOConfig), (12 bytes).
    Removing stm32f10x_rcc.o(i.RCC_PCLK1Config), (24 bytes).
    Removing stm32f10x_rcc.o(i.RCC_PCLK2Config), (24 bytes).
    Removing stm32f10x_rcc.o(i.RCC_PLLCmd), (12 bytes).
    Removing stm32f10x_rcc.o(i.RCC_PLLConfig), (28 bytes).
    Removing stm32f10x_rcc.o(i.RCC_SYSCLKConfig), (24 bytes).
    Removing stm32f10x_rcc.o(i.RCC_USBCLKConfig), (12 bytes).
    Removing stm32f10x_rcc.o(i.RCC_WaitForHSEStartUp), (56 bytes).
    Removing stm32f10x_rtc.o(i.RTC_ClearFlag), (16 bytes).
    Removing stm32f10x_rtc.o(i.RTC_GetDivider), (24 bytes).
    Removing stm32f10x_rtc.o(i.RTC_GetFlagStatus), (24 bytes).
    Removing stm32f10x_rtc.o(i.RTC_SetAlarm), (28 bytes).
    Removing stm32f10x_sdio.o(i.SDIO_CEATAITCmd), (16 bytes).
    Removing stm32f10x_sdio.o(i.SDIO_ClearFlag), (12 bytes).
    Removing stm32f10x_sdio.o(i.SDIO_ClearITPendingBit), (12 bytes).
    Removing stm32f10x_sdio.o(i.SDIO_ClockCmd), (12 bytes).
    Removing stm32f10x_sdio.o(i.SDIO_CmdStructInit), (14 bytes).
    Removing stm32f10x_sdio.o(i.SDIO_CommandCompletionCmd), (12 bytes).
    Removing stm32f10x_sdio.o(i.SDIO_DMACmd), (12 bytes).
    Removing stm32f10x_sdio.o(i.SDIO_DataConfig), (48 bytes).
    Removing stm32f10x_sdio.o(i.SDIO_DataStructInit), (20 bytes).
    Removing stm32f10x_sdio.o(i.SDIO_DeInit), (36 bytes).
    Removing stm32f10x_sdio.o(i.SDIO_GetCommandResponse), (12 bytes).
    Removing stm32f10x_sdio.o(i.SDIO_GetDataCounter), (12 bytes).
    Removing stm32f10x_sdio.o(i.SDIO_GetFIFOCount), (12 bytes).
    Removing stm32f10x_sdio.o(i.SDIO_GetFlagStatus), (24 bytes).
    Removing stm32f10x_sdio.o(i.SDIO_GetITStatus), (24 bytes).
    Removing stm32f10x_sdio.o(i.SDIO_GetPowerState), (16 bytes).
    Removing stm32f10x_sdio.o(i.SDIO_GetResponse), (24 bytes).
    Removing stm32f10x_sdio.o(i.SDIO_ITConfig), (32 bytes).
    Removing stm32f10x_sdio.o(i.SDIO_Init), (48 bytes).
    Removing stm32f10x_sdio.o(i.SDIO_ReadData), (12 bytes).
    Removing stm32f10x_sdio.o(i.SDIO_SendCEATACmd), (12 bytes).
    Removing stm32f10x_sdio.o(i.SDIO_SendCommand), (44 bytes).
    Removing stm32f10x_sdio.o(i.SDIO_SendSDIOSuspendCmd), (12 bytes).
    Removing stm32f10x_sdio.o(i.SDIO_SetPowerState), (28 bytes).
    Removing stm32f10x_sdio.o(i.SDIO_SetSDIOOperation), (12 bytes).
    Removing stm32f10x_sdio.o(i.SDIO_SetSDIOReadWaitMode), (12 bytes).
    Removing stm32f10x_sdio.o(i.SDIO_StartSDIOReadWait), (12 bytes).
    Removing stm32f10x_sdio.o(i.SDIO_StopSDIOReadWait), (12 bytes).
    Removing stm32f10x_sdio.o(i.SDIO_StructInit), (16 bytes).
    Removing stm32f10x_sdio.o(i.SDIO_WriteData), (12 bytes).
    Removing stm32f10x_spi.o(i.I2S_Cmd), (24 bytes).
    Removing stm32f10x_spi.o(i.I2S_Init), (232 bytes).
    Removing stm32f10x_spi.o(i.I2S_StructInit), (20 bytes).
    Removing stm32f10x_spi.o(i.SPI_BiDirectionalLineConfig), (28 bytes).
    Removing stm32f10x_spi.o(i.SPI_CalculateCRC), (24 bytes).
    Removing stm32f10x_spi.o(i.SPI_Cmd), (24 bytes).
    Removing stm32f10x_spi.o(i.SPI_DataSizeConfig), (18 bytes).
    Removing stm32f10x_spi.o(i.SPI_GetCRC), (16 bytes).
    Removing stm32f10x_spi.o(i.SPI_GetCRCPolynomial), (6 bytes).
    Removing stm32f10x_spi.o(i.SPI_I2S_ClearFlag), (6 bytes).
    Removing stm32f10x_spi.o(i.SPI_I2S_ClearITPendingBit), (20 bytes).
    Removing stm32f10x_spi.o(i.SPI_I2S_DMACmd), (18 bytes).
    Removing stm32f10x_spi.o(i.SPI_I2S_DeInit), (88 bytes).
    Removing stm32f10x_spi.o(i.SPI_I2S_GetFlagStatus), (18 bytes).
    Removing stm32f10x_spi.o(i.SPI_I2S_GetITStatus), (52 bytes).
    Removing stm32f10x_spi.o(i.SPI_I2S_ITConfig), (32 bytes).
    Removing stm32f10x_spi.o(i.SPI_I2S_ReceiveData), (6 bytes).
    Removing stm32f10x_spi.o(i.SPI_I2S_SendData), (4 bytes).
    Removing stm32f10x_spi.o(i.SPI_Init), (60 bytes).
    Removing stm32f10x_spi.o(i.SPI_NSSInternalSoftwareConfig), (30 bytes).
    Removing stm32f10x_spi.o(i.SPI_SSOutputCmd), (24 bytes).
    Removing stm32f10x_spi.o(i.SPI_StructInit), (24 bytes).
    Removing stm32f10x_spi.o(i.SPI_TransmitCRC), (10 bytes).
    Removing stm32f10x_tim.o(i.TI1_Config), (128 bytes).
    Removing stm32f10x_tim.o(i.TI2_Config), (152 bytes).
    Removing stm32f10x_tim.o(i.TI3_Config), (144 bytes).
    Removing stm32f10x_tim.o(i.TI4_Config), (152 bytes).
    Removing stm32f10x_tim.o(i.TIM_ARRPreloadConfig), (24 bytes).
    Removing stm32f10x_tim.o(i.TIM_BDTRConfig), (32 bytes).
    Removing stm32f10x_tim.o(i.TIM_BDTRStructInit), (18 bytes).
    Removing stm32f10x_tim.o(i.TIM_CCPreloadControl), (24 bytes).
    Removing stm32f10x_tim.o(i.TIM_CCxCmd), (30 bytes).
    Removing stm32f10x_tim.o(i.TIM_CCxNCmd), (30 bytes).
    Removing stm32f10x_tim.o(i.TIM_ClearFlag), (6 bytes).
    Removing stm32f10x_tim.o(i.TIM_ClearOC1Ref), (18 bytes).
    Removing stm32f10x_tim.o(i.TIM_ClearOC2Ref), (24 bytes).
    Removing stm32f10x_tim.o(i.TIM_ClearOC3Ref), (18 bytes).
    Removing stm32f10x_tim.o(i.TIM_ClearOC4Ref), (24 bytes).
    Removing stm32f10x_tim.o(i.TIM_CounterModeConfig), (18 bytes).
    Removing stm32f10x_tim.o(i.TIM_CtrlPWMOutputs), (30 bytes).
    Removing stm32f10x_tim.o(i.TIM_DMACmd), (18 bytes).
    Removing stm32f10x_tim.o(i.TIM_DMAConfig), (10 bytes).
    Removing stm32f10x_tim.o(i.TIM_DeInit), (488 bytes).
    Removing stm32f10x_tim.o(i.TIM_ETRClockMode1Config), (54 bytes).
    Removing stm32f10x_tim.o(i.TIM_ETRClockMode2Config), (32 bytes).
    Removing stm32f10x_tim.o(i.TIM_ETRConfig), (28 bytes).
    Removing stm32f10x_tim.o(i.TIM_EncoderInterfaceConfig), (66 bytes).
    Removing stm32f10x_tim.o(i.TIM_ForcedOC1Config), (18 bytes).
    Removing stm32f10x_tim.o(i.TIM_ForcedOC2Config), (26 bytes).
    Removing stm32f10x_tim.o(i.TIM_ForcedOC3Config), (18 bytes).
    Removing stm32f10x_tim.o(i.TIM_ForcedOC4Config), (26 bytes).
    Removing stm32f10x_tim.o(i.TIM_GenerateEvent), (4 bytes).
    Removing stm32f10x_tim.o(i.TIM_GetCapture1), (6 bytes).
    Removing stm32f10x_tim.o(i.TIM_GetCapture2), (6 bytes).
    Removing stm32f10x_tim.o(i.TIM_GetCapture3), (6 bytes).
    Removing stm32f10x_tim.o(i.TIM_GetCapture4), (8 bytes).
    Removing stm32f10x_tim.o(i.TIM_GetCounter), (6 bytes).
    Removing stm32f10x_tim.o(i.TIM_GetFlagStatus), (18 bytes).
    Removing stm32f10x_tim.o(i.TIM_GetPrescaler), (6 bytes).
    Removing stm32f10x_tim.o(i.TIM_ICInit), (172 bytes).
    Removing stm32f10x_tim.o(i.TIM_ICStructInit), (18 bytes).
    Removing stm32f10x_tim.o(i.TIM_ITRxExternalClockConfig), (24 bytes).
    Removing stm32f10x_tim.o(i.TIM_InternalClockConfig), (12 bytes).
    Removing stm32f10x_tim.o(i.TIM_OC1FastConfig), (18 bytes).
    Removing stm32f10x_tim.o(i.TIM_OC1Init), (152 bytes).
    Removing stm32f10x_tim.o(i.TIM_OC1NPolarityConfig), (18 bytes).
    Removing stm32f10x_tim.o(i.TIM_OC1PolarityConfig), (18 bytes).
    Removing stm32f10x_tim.o(i.TIM_OC1PreloadConfig), (18 bytes).
    Removing stm32f10x_tim.o(i.TIM_OC2FastConfig), (26 bytes).
    Removing stm32f10x_tim.o(i.TIM_OC2Init), (164 bytes).
    Removing stm32f10x_tim.o(i.TIM_OC2NPolarityConfig), (26 bytes).
    Removing stm32f10x_tim.o(i.TIM_OC2PolarityConfig), (26 bytes).
    Removing stm32f10x_tim.o(i.TIM_OC2PreloadConfig), (26 bytes).
    Removing stm32f10x_tim.o(i.TIM_OC3FastConfig), (18 bytes).
    Removing stm32f10x_tim.o(i.TIM_OC3NPolarityConfig), (26 bytes).
    Removing stm32f10x_tim.o(i.TIM_OC3PolarityConfig), (26 bytes).
    Removing stm32f10x_tim.o(i.TIM_OC4FastConfig), (26 bytes).
    Removing stm32f10x_tim.o(i.TIM_OC4Init), (124 bytes).
    Removing stm32f10x_tim.o(i.TIM_OC4PolarityConfig), (26 bytes).
    Removing stm32f10x_tim.o(i.TIM_OC4PreloadConfig), (26 bytes).
    Removing stm32f10x_tim.o(i.TIM_OCStructInit), (20 bytes).
    Removing stm32f10x_tim.o(i.TIM_PWMIConfig), (124 bytes).
    Removing stm32f10x_tim.o(i.TIM_PrescalerConfig), (6 bytes).
    Removing stm32f10x_tim.o(i.TIM_SelectCCDMA), (24 bytes).
    Removing stm32f10x_tim.o(i.TIM_SelectCOM), (24 bytes).
    Removing stm32f10x_tim.o(i.TIM_SelectHallSensor), (24 bytes).
    Removing stm32f10x_tim.o(i.TIM_SelectInputTrigger), (18 bytes).
    Removing stm32f10x_tim.o(i.TIM_SelectMasterSlaveMode), (18 bytes).
    Removing stm32f10x_tim.o(i.TIM_SelectOCxM), (82 bytes).
    Removing stm32f10x_tim.o(i.TIM_SelectOnePulseMode), (18 bytes).
    Removing stm32f10x_tim.o(i.TIM_SelectOutputTrigger), (18 bytes).
    Removing stm32f10x_tim.o(i.TIM_SelectSlaveMode), (18 bytes).
    Removing stm32f10x_tim.o(i.TIM_SetAutoreload), (4 bytes).
    Removing stm32f10x_tim.o(i.TIM_SetClockDivision), (18 bytes).
    Removing stm32f10x_tim.o(i.TIM_SetCompare1), (4 bytes).
    Removing stm32f10x_tim.o(i.TIM_SetCompare2), (4 bytes).
    Removing stm32f10x_tim.o(i.TIM_SetCompare3), (4 bytes).
    Removing stm32f10x_tim.o(i.TIM_SetCompare4), (6 bytes).
    Removing stm32f10x_tim.o(i.TIM_SetCounter), (4 bytes).
    Removing stm32f10x_tim.o(i.TIM_SetIC1Prescaler), (18 bytes).
    Removing stm32f10x_tim.o(i.TIM_SetIC2Prescaler), (26 bytes).
    Removing stm32f10x_tim.o(i.TIM_SetIC3Prescaler), (18 bytes).
    Removing stm32f10x_tim.o(i.TIM_SetIC4Prescaler), (26 bytes).
    Removing stm32f10x_tim.o(i.TIM_TIxExternalClockConfig), (62 bytes).
    Removing stm32f10x_tim.o(i.TIM_TimeBaseStructInit), (18 bytes).
    Removing stm32f10x_tim.o(i.TIM_UpdateDisableConfig), (24 bytes).
    Removing stm32f10x_tim.o(i.TIM_UpdateRequestConfig), (24 bytes).
    Removing stm32f10x_usart.o(i.USART_ClearFlag), (18 bytes).
    Removing stm32f10x_usart.o(i.USART_ClearITPendingBit), (30 bytes).
    Removing stm32f10x_usart.o(i.USART_ClockInit), (34 bytes).
    Removing stm32f10x_usart.o(i.USART_ClockStructInit), (12 bytes).
    Removing stm32f10x_usart.o(i.USART_DMACmd), (18 bytes).
    Removing stm32f10x_usart.o(i.USART_DeInit), (156 bytes).
    Removing stm32f10x_usart.o(i.USART_GetITStatus), (84 bytes).
    Removing stm32f10x_usart.o(i.USART_HalfDuplexCmd), (24 bytes).
    Removing stm32f10x_usart.o(i.USART_IrDACmd), (24 bytes).
    Removing stm32f10x_usart.o(i.USART_IrDAConfig), (18 bytes).
    Removing stm32f10x_usart.o(i.USART_LINBreakDetectLengthConfig), (18 bytes).
    Removing stm32f10x_usart.o(i.USART_LINCmd), (24 bytes).
    Removing stm32f10x_usart.o(i.USART_OneBitMethodCmd), (24 bytes).
    Removing stm32f10x_usart.o(i.USART_OverSampling8Cmd), (22 bytes).
    Removing stm32f10x_usart.o(i.USART_ReceiverWakeUpCmd), (24 bytes).
    Removing stm32f10x_usart.o(i.USART_SendBreak), (10 bytes).
    Removing stm32f10x_usart.o(i.USART_SetAddress), (18 bytes).
    Removing stm32f10x_usart.o(i.USART_SetGuardTime), (16 bytes).
    Removing stm32f10x_usart.o(i.USART_SetPrescaler), (16 bytes).
    Removing stm32f10x_usart.o(i.USART_SmartCardCmd), (24 bytes).
    Removing stm32f10x_usart.o(i.USART_SmartCardNACKCmd), (24 bytes).
    Removing stm32f10x_usart.o(i.USART_StructInit), (24 bytes).
    Removing stm32f10x_usart.o(i.USART_WakeUpConfig), (18 bytes).
    Removing stm32f10x_wwdg.o(i.WWDG_ClearFlag), (12 bytes).
    Removing stm32f10x_wwdg.o(i.WWDG_DeInit), (22 bytes).
    Removing stm32f10x_wwdg.o(i.WWDG_Enable), (16 bytes).
    Removing stm32f10x_wwdg.o(i.WWDG_EnableIT), (12 bytes).
    Removing stm32f10x_wwdg.o(i.WWDG_GetFlagStatus), (12 bytes).
    Removing stm32f10x_wwdg.o(i.WWDG_SetCounter), (16 bytes).
    Removing stm32f10x_wwdg.o(i.WWDG_SetPrescaler), (24 bytes).
    Removing stm32f10x_wwdg.o(i.WWDG_SetWindowValue), (40 bytes).
    Removing drive_usart.o(i.fgetc), (28 bytes).
    Removing ring_buffer.o(i.ring_buffer_read), (46 bytes).
    Removing rtc_device.o(i.UartSetNormalTime), (1016 bytes).
    Removing rtc_device.o(.conststring), (65 bytes).
    Removing rtc_system.o(i.rtc_test), (84 bytes).
    Removing button_device.o(i.__GetButton), (48 bytes).
    Removing button_system.o(i.GetButtonDevice), (12 bytes).
    Removing input_device.o(i.__GetInputDevice), (40 bytes).
    Removing input_system.o(i.GetInputDevice), (12 bytes).
    Removing display_system.o(i.TimerFlushDisplayDevControl), (12 bytes).
    Removing oled_command.o(i.WaitForI2CDMABusy), (16 bytes).
    Removing oled_command.o(i.oled_gram_refresh), (32 bytes).
    Removing oled_command.o(i.oled_gram_refresh_onetime), (156 bytes).
    Removing game_system.o(i.GameControl), (40 bytes).
    Removing usart1_test.o(i.usart1_test), (92 bytes).
    Removing input_test.o(i.input_test), (40 bytes).
    Removing led_test.o(i.led_test), (76 bytes).
    Removing display_test.o(i.display_test), (212 bytes).
    Removing text_test.o(i.text_test), (524 bytes).
    Removing beep_test.o(i.beep_test), (92 bytes).
    Removing beep_test.o(.constdata), (14 bytes).
    Removing decode_test.o(i.decode_test), (256 bytes).
    Removing decode_test.o(.constdata), (546 bytes).
    Removing player_test.o(i.player_test), (268 bytes).
    Removing graph_test.o(i.graph_test), (176 bytes).
    Removing graph_test.o(.data), (128 bytes).
    Removing iterator_test.o(i.iterator_test), (68 bytes).
    Removing game_test.o(i.game_test), (408 bytes).
    Removing menu_test.o(i.menu_test), (164 bytes).
    Removing message_test.o(i.HandlerAsam), (144 bytes).
    Removing message_test.o(i.HandlerTifa), (36 bytes).
    Removing message_test.o(i.Publish), (12 bytes).
    Removing message_test.o(i.Subscribe), (16 bytes).
    Removing message_test.o(i.message_test), (88 bytes).
    Removing message_test.o(.conststring), (5 bytes).
    Removing message_test.o(.data), (56 bytes).
    Removing dadd.o(.text), (334 bytes).
    Removing dmul.o(.text), (228 bytes).
    Removing ddiv.o(.text), (222 bytes).
    Removing dfixul.o(.text), (48 bytes).
    Removing cdrcmple.o(.text), (48 bytes).
    Removing depilogue.o(.text), (186 bytes).

462 unused section(s) (total 22594 bytes) removed from the image.

==============================================================================

Image Symbol Table

    Local Symbols

    Symbol Name                              Value     Ov Type        Size  Object(Section)

    ../clib/../cmprslib/zerorunl2.c          0x00000000   Number         0  __dczerorl2.o ABSOLUTE
    ../clib/microlib/ctype/ctype.c           0x00000000   Number         0  ctype_c.o ABSOLUTE
    ../clib/microlib/ctype/ctype.c           0x00000000   Number         0  isspace_c.o ABSOLUTE
    ../clib/microlib/division.c              0x00000000   Number         0  uidiv.o ABSOLUTE
    ../clib/microlib/division.c              0x00000000   Number         0  uldiv.o ABSOLUTE
    ../clib/microlib/init/entry.s            0x00000000   Number         0  entry.o ABSOLUTE
    ../clib/microlib/init/entry.s            0x00000000   Number         0  entry9b.o ABSOLUTE
    ../clib/microlib/init/entry.s            0x00000000   Number         0  entry7b.o ABSOLUTE
    ../clib/microlib/init/entry.s            0x00000000   Number         0  entry8a.o ABSOLUTE
    ../clib/microlib/init/entry.s            0x00000000   Number         0  entry5.o ABSOLUTE
    ../clib/microlib/init/entry.s            0x00000000   Number         0  entry9a.o ABSOLUTE
    ../clib/microlib/init/entry.s            0x00000000   Number         0  entry10a.o ABSOLUTE
    ../clib/microlib/init/entry.s            0x00000000   Number         0  entry8b.o ABSOLUTE
    ../clib/microlib/init/entry.s            0x00000000   Number         0  entry2.o ABSOLUTE
    ../clib/microlib/init/entry.s            0x00000000   Number         0  entry11b.o ABSOLUTE
    ../clib/microlib/init/entry.s            0x00000000   Number         0  entry11a.o ABSOLUTE
    ../clib/microlib/init/entry.s            0x00000000   Number         0  entry10b.o ABSOLUTE
    ../clib/microlib/init/entry.s            0x00000000   Number         0  entry7a.o ABSOLUTE
    ../clib/microlib/longlong.c              0x00000000   Number         0  llsshr.o ABSOLUTE
    ../clib/microlib/longlong.c              0x00000000   Number         0  llushr.o ABSOLUTE
    ../clib/microlib/longlong.c              0x00000000   Number         0  llshl.o ABSOLUTE
    ../clib/microlib/malloc/malloc.c         0x00000000   Number         0  malloc.o ABSOLUTE
    ../clib/microlib/malloc/malloc.c         0x00000000   Number         0  mallocr.o ABSOLUTE
    ../clib/microlib/malloc/malloc.c         0x00000000   Number         0  malloca.o ABSOLUTE
    ../clib/microlib/malloc/malloc.c         0x00000000   Number         0  mallocra.o ABSOLUTE
    ../clib/microlib/malloc/mvars.c          0x00000000   Number         0  mvars.o ABSOLUTE
    ../clib/microlib/printf/printf.c         0x00000000   Number         0  printf6.o ABSOLUTE
    ../clib/microlib/printf/printf.c         0x00000000   Number         0  printf5.o ABSOLUTE
    ../clib/microlib/printf/printf.c         0x00000000   Number         0  printfa.o ABSOLUTE
    ../clib/microlib/printf/printf.c         0x00000000   Number         0  printf4.o ABSOLUTE
    ../clib/microlib/printf/printf.c         0x00000000   Number         0  printf3.o ABSOLUTE
    ../clib/microlib/printf/printf.c         0x00000000   Number         0  printf1.o ABSOLUTE
    ../clib/microlib/printf/printf.c         0x00000000   Number         0  printf0.o ABSOLUTE
    ../clib/microlib/printf/printf.c         0x00000000   Number         0  printfb.o ABSOLUTE
    ../clib/microlib/printf/printf.c         0x00000000   Number         0  printf8.o ABSOLUTE
    ../clib/microlib/printf/printf.c         0x00000000   Number         0  printf2.o ABSOLUTE
    ../clib/microlib/printf/printf.c         0x00000000   Number         0  printf7.o ABSOLUTE
    ../clib/microlib/printf/stubs.s          0x00000000   Number         0  stubs.o ABSOLUTE
    ../clib/microlib/stdio/fgetc.c           0x00000000   Number         0  fgetc_b.o ABSOLUTE
    ../clib/microlib/stdio/semi.s            0x00000000   Number         0  semi.o ABSOLUTE
    ../clib/microlib/stdio/streams.c         0x00000000   Number         0  stdin.o ABSOLUTE
    ../clib/microlib/stdio/streams.c         0x00000000   Number         0  stdout.o ABSOLUTE
    ../clib/microlib/stdlib/rand.c           0x00000000   Number         0  rand.o ABSOLUTE
    ../clib/microlib/string/memcpy.c         0x00000000   Number         0  memcpyb.o ABSOLUTE
    ../clib/microlib/string/memcpy.c         0x00000000   Number         0  memcpya.o ABSOLUTE
    ../clib/microlib/string/strcmp.c         0x00000000   Number         0  strcmp.o ABSOLUTE
    ../clib/microlib/stubs.s                 0x00000000   Number         0  iusefp.o ABSOLUTE
    ../clib/microlib/stubs.s                 0x00000000   Number         0  iusesemig.o ABSOLUTE
    ../clib/scanf.c                          0x00000000   Number         0  _scanf_int.o ABSOLUTE
    ../clib/scanf.c                          0x00000000   Number         0  scanf_char.o ABSOLUTE
    ../clib/scanf.c                          0x00000000   Number         0  scanf_char_file.o ABSOLUTE
    ../clib/scanf.c                          0x00000000   Number         0  _chval.o ABSOLUTE
    ../clib/scanf.c                          0x00000000   Number         0  __0scanf.o ABSOLUTE
    ../clib/scanf.c                          0x00000000   Number         0  _scanf.o ABSOLUTE
    ../fplib/microlib/fpadd.c                0x00000000   Number         0  dadd.o ABSOLUTE
    ../fplib/microlib/fpdiv.c                0x00000000   Number         0  ddiv.o ABSOLUTE
    ../fplib/microlib/fpepilogue.c           0x00000000   Number         0  depilogue.o ABSOLUTE
    ../fplib/microlib/fpfix.c                0x00000000   Number         0  dfixul.o ABSOLUTE
    ../fplib/microlib/fpmul.c                0x00000000   Number         0  dmul.o ABSOLUTE
    ..\Libraries\CMSIS\core_cm3.c            0x00000000   Number         0  core_cm3.o ABSOLUTE
    ..\Libraries\CMSIS\startup\startup_stm32f10x_md.s 0x00000000   Number         0  startup_stm32f10x_md.o ABSOLUTE
    ..\Libraries\CMSIS\system_stm32f10x.c    0x00000000   Number         0  system_stm32f10x.o ABSOLUTE
    ..\Libraries\STM32F10x_StdPeriph_Driver\src\misc.c 0x00000000   Number         0  misc.o ABSOLUTE
    ..\Libraries\STM32F10x_StdPeriph_Driver\src\stm32f10x_adc.c 0x00000000   Number         0  stm32f10x_adc.o ABSOLUTE
    ..\Libraries\STM32F10x_StdPeriph_Driver\src\stm32f10x_bkp.c 0x00000000   Number         0  stm32f10x_bkp.o ABSOLUTE
    ..\Libraries\STM32F10x_StdPeriph_Driver\src\stm32f10x_can.c 0x00000000   Number         0  stm32f10x_can.o ABSOLUTE
    ..\Libraries\STM32F10x_StdPeriph_Driver\src\stm32f10x_cec.c 0x00000000   Number         0  stm32f10x_cec.o ABSOLUTE
    ..\Libraries\STM32F10x_StdPeriph_Driver\src\stm32f10x_crc.c 0x00000000   Number         0  stm32f10x_crc.o ABSOLUTE
    ..\Libraries\STM32F10x_StdPeriph_Driver\src\stm32f10x_dac.c 0x00000000   Number         0  stm32f10x_dac.o ABSOLUTE
    ..\Libraries\STM32F10x_StdPeriph_Driver\src\stm32f10x_dbgmcu.c 0x00000000   Number         0  stm32f10x_dbgmcu.o ABSOLUTE
    ..\Libraries\STM32F10x_StdPeriph_Driver\src\stm32f10x_dma.c 0x00000000   Number         0  stm32f10x_dma.o ABSOLUTE
    ..\Libraries\STM32F10x_StdPeriph_Driver\src\stm32f10x_exti.c 0x00000000   Number         0  stm32f10x_exti.o ABSOLUTE
    ..\Libraries\STM32F10x_StdPeriph_Driver\src\stm32f10x_flash.c 0x00000000   Number         0  stm32f10x_flash.o ABSOLUTE
    ..\Libraries\STM32F10x_StdPeriph_Driver\src\stm32f10x_fsmc.c 0x00000000   Number         0  stm32f10x_fsmc.o ABSOLUTE
    ..\Libraries\STM32F10x_StdPeriph_Driver\src\stm32f10x_gpio.c 0x00000000   Number         0  stm32f10x_gpio.o ABSOLUTE
    ..\Libraries\STM32F10x_StdPeriph_Driver\src\stm32f10x_i2c.c 0x00000000   Number         0  stm32f10x_i2c.o ABSOLUTE
    ..\Libraries\STM32F10x_StdPeriph_Driver\src\stm32f10x_iwdg.c 0x00000000   Number         0  stm32f10x_iwdg.o ABSOLUTE
    ..\Libraries\STM32F10x_StdPeriph_Driver\src\stm32f10x_pwr.c 0x00000000   Number         0  stm32f10x_pwr.o ABSOLUTE
    ..\Libraries\STM32F10x_StdPeriph_Driver\src\stm32f10x_rcc.c 0x00000000   Number         0  stm32f10x_rcc.o ABSOLUTE
    ..\Libraries\STM32F10x_StdPeriph_Driver\src\stm32f10x_rtc.c 0x00000000   Number         0  stm32f10x_rtc.o ABSOLUTE
    ..\Libraries\STM32F10x_StdPeriph_Driver\src\stm32f10x_sdio.c 0x00000000   Number         0  stm32f10x_sdio.o ABSOLUTE
    ..\Libraries\STM32F10x_StdPeriph_Driver\src\stm32f10x_spi.c 0x00000000   Number         0  stm32f10x_spi.o ABSOLUTE
    ..\Libraries\STM32F10x_StdPeriph_Driver\src\stm32f10x_tim.c 0x00000000   Number         0  stm32f10x_tim.o ABSOLUTE
    ..\Libraries\STM32F10x_StdPeriph_Driver\src\stm32f10x_usart.c 0x00000000   Number         0  stm32f10x_usart.o ABSOLUTE
    ..\Libraries\STM32F10x_StdPeriph_Driver\src\stm32f10x_wwdg.c 0x00000000   Number         0  stm32f10x_wwdg.o ABSOLUTE
    ..\User\main.c                           0x00000000   Number         0  main.o ABSOLUTE
    ..\User\stm32f10x_it.c                   0x00000000   Number         0  stm32f10x_it.o ABSOLUTE
    ..\\Libraries\\CMSIS\\core_cm3.c         0x00000000   Number         0  core_cm3.o ABSOLUTE
    ..\watch\cal\cal_beep.c                  0x00000000   Number         0  cal_beep.o ABSOLUTE
    ..\watch\cal\cal_button.c                0x00000000   Number         0  cal_button.o ABSOLUTE
    ..\watch\cal\cal_i2c.c                   0x00000000   Number         0  cal_i2c.o ABSOLUTE
    ..\watch\cal\cal_led.c                   0x00000000   Number         0  cal_led.o ABSOLUTE
    ..\watch\cal\cal_timer.c                 0x00000000   Number         0  cal_timer.o ABSOLUTE
    ..\watch\dev\beep\beep.c                 0x00000000   Number         0  beep.o ABSOLUTE
    ..\watch\dev\beep\beep_device.c          0x00000000   Number         0  beep_device.o ABSOLUTE
    ..\watch\dev\beep\beep_system.c          0x00000000   Number         0  beep_system.o ABSOLUTE
    ..\watch\dev\button\button.c             0x00000000   Number         0  button.o ABSOLUTE
    ..\watch\dev\button\button_device.c      0x00000000   Number         0  button_device.o ABSOLUTE
    ..\watch\dev\button\button_system.c      0x00000000   Number         0  button_system.o ABSOLUTE
    ..\watch\dev\dht11\dht11_device.c        0x00000000   Number         0  dht11_device.o ABSOLUTE
    ..\watch\dev\display\display_device.c    0x00000000   Number         0  display_device.o ABSOLUTE
    ..\watch\dev\display\display_system.c    0x00000000   Number         0  display_system.o ABSOLUTE
    ..\watch\dev\display\oled.c              0x00000000   Number         0  oled.o ABSOLUTE
    ..\watch\dev\display\oled_command.c      0x00000000   Number         0  oled_command.o ABSOLUTE
    ..\watch\dev\i2c\i2c.c                   0x00000000   Number         0  i2c.o ABSOLUTE
    ..\watch\dev\i2c\i2c_device.c            0x00000000   Number         0  i2c_device.o ABSOLUTE
    ..\watch\dev\i2c\i2c_system.c            0x00000000   Number         0  i2c_system.o ABSOLUTE
    ..\watch\dev\led\led.c                   0x00000000   Number         0  led.o ABSOLUTE
    ..\watch\dev\led\led_device.c            0x00000000   Number         0  led_device.o ABSOLUTE
    ..\watch\dev\led\led_system.c            0x00000000   Number         0  led_system.o ABSOLUTE
    ..\watch\dev\player\decode.c             0x00000000   Number         0  decode.o ABSOLUTE
    ..\watch\dev\player\player.c             0x00000000   Number         0  player.o ABSOLUTE
    ..\watch\dev\player\player_system.c      0x00000000   Number         0  player_system.o ABSOLUTE
    ..\watch\dev\rtc\convert.c               0x00000000   Number         0  convert.o ABSOLUTE
    ..\watch\dev\rtc\rtc_device.c            0x00000000   Number         0  rtc_device.o ABSOLUTE
    ..\watch\dev\rtc\rtc_system.c            0x00000000   Number         0  rtc_system.o ABSOLUTE
    ..\watch\drive\drive_delay.c             0x00000000   Number         0  drive_delay.o ABSOLUTE
    ..\watch\drive\drive_gpio.c              0x00000000   Number         0  drive_gpio.o ABSOLUTE
    ..\watch\drive\drive_i2c.c               0x00000000   Number         0  drive_i2c.o ABSOLUTE
    ..\watch\drive\drive_pwm.c               0x00000000   Number         0  drive_pwm.o ABSOLUTE
    ..\watch\drive\drive_rtc.c               0x00000000   Number         0  drive_rtc.o ABSOLUTE
    ..\watch\drive\drive_timer.c             0x00000000   Number         0  drive_timer.o ABSOLUTE
    ..\watch\drive\drive_usart.c             0x00000000   Number         0  drive_usart.o ABSOLUTE
    ..\watch\drive\ring_buffer.c             0x00000000   Number         0  ring_buffer.o ABSOLUTE
    ..\watch\fontlib\ascii_fontlib.c         0x00000000   Number         0  ascii_fontlib.o ABSOLUTE
    ..\watch\fontlib\fontlib_manager.c       0x00000000   Number         0  fontlib_manager.o ABSOLUTE
    ..\watch\fontlib\fontlib_system.c        0x00000000   Number         0  fontlib_system.o ABSOLUTE
    ..\watch\game\game.c                     0x00000000   Number         0  game.o ABSOLUTE
    ..\watch\game\game_system.c              0x00000000   Number         0  game_system.o ABSOLUTE
    ..\watch\game\graph_data.c               0x00000000   Number         0  graph_data.o ABSOLUTE
    ..\watch\game\role.c                     0x00000000   Number         0  role.o ABSOLUTE
    ..\watch\game\role_manager.c             0x00000000   Number         0  role_manager.o ABSOLUTE
    ..\watch\game\role_system.c              0x00000000   Number         0  role_system.o ABSOLUTE
    ..\watch\game\show_graph.c               0x00000000   Number         0  show_graph.o ABSOLUTE
    ..\watch\input\button_input.c            0x00000000   Number         0  button_input.o ABSOLUTE
    ..\watch\input\input_buffer.c            0x00000000   Number         0  input_buffer.o ABSOLUTE
    ..\watch\input\input_device.c            0x00000000   Number         0  input_device.o ABSOLUTE
    ..\watch\input\input_system.c            0x00000000   Number         0  input_system.o ABSOLUTE
    ..\watch\kal\kal_beep.c                  0x00000000   Number         0  kal_beep.o ABSOLUTE
    ..\watch\kal\kal_button.c                0x00000000   Number         0  kal_button.o ABSOLUTE
    ..\watch\kal\kal_i2c.c                   0x00000000   Number         0  kal_i2c.o ABSOLUTE
    ..\watch\kal\kal_led.c                   0x00000000   Number         0  kal_led.o ABSOLUTE
    ..\watch\kal\kal_timer.c                 0x00000000   Number         0  kal_timer.o ABSOLUTE
    ..\watch\logic\logic_control.c           0x00000000   Number         0  logic_control.o ABSOLUTE
    ..\watch\menu\node_manager.c             0x00000000   Number         0  node_manager.o ABSOLUTE
    ..\watch\menu\option.c                   0x00000000   Number         0  option.o ABSOLUTE
    ..\watch\menu\option_manager.c           0x00000000   Number         0  option_manager.o ABSOLUTE
    ..\watch\message\message_manager.c       0x00000000   Number         0  message_manager.o ABSOLUTE
    ..\watch\text\encode_str.c               0x00000000   Number         0  encode_str.o ABSOLUTE
    ..\watch\text\show_text.c                0x00000000   Number         0  show_text.o ABSOLUTE
    ..\watch\thread\libcpu\context_rvds.s    0x00000000   Number         0  context_rvds.o ABSOLUTE
    ..\watch\thread\libcpu\cpuport.c         0x00000000   Number         0  cpuport.o ABSOLUTE
    ..\watch\thread\src\scheduler.c          0x00000000   Number         0  scheduler.o ABSOLUTE
    ..\watch\thread\src\thread.c             0x00000000   Number         0  thread.o ABSOLUTE
    ..\watch\unitinit\displaydev_init.c      0x00000000   Number         0  displaydev_init.o ABSOLUTE
    ..\watch\unitinit\usart_init.c           0x00000000   Number         0  usart_init.o ABSOLUTE
    ..\watch\unittest\beep_test.c            0x00000000   Number         0  beep_test.o ABSOLUTE
    ..\watch\unittest\decode_test.c          0x00000000   Number         0  decode_test.o ABSOLUTE
    ..\watch\unittest\display_test.c         0x00000000   Number         0  display_test.o ABSOLUTE
    ..\watch\unittest\game_test.c            0x00000000   Number         0  game_test.o ABSOLUTE
    ..\watch\unittest\graph_test.c           0x00000000   Number         0  graph_test.o ABSOLUTE
    ..\watch\unittest\input_test.c           0x00000000   Number         0  input_test.o ABSOLUTE
    ..\watch\unittest\iterator_test.c        0x00000000   Number         0  iterator_test.o ABSOLUTE
    ..\watch\unittest\led_test.c             0x00000000   Number         0  led_test.o ABSOLUTE
    ..\watch\unittest\menu_test.c            0x00000000   Number         0  menu_test.o ABSOLUTE
    ..\watch\unittest\message_test.c         0x00000000   Number         0  message_test.o ABSOLUTE
    ..\watch\unittest\player_test.c          0x00000000   Number         0  player_test.o ABSOLUTE
    ..\watch\unittest\text_test.c            0x00000000   Number         0  text_test.o ABSOLUTE
    ..\watch\unittest\usart1_test.c          0x00000000   Number         0  usart1_test.o ABSOLUTE
    cdrcmple.s                               0x00000000   Number         0  cdrcmple.o ABSOLUTE
    dc.s                                     0x00000000   Number         0  dc.o ABSOLUTE
    handlers.s                               0x00000000   Number         0  handlers.o ABSOLUTE
    init.s                                   0x00000000   Number         0  init.o ABSOLUTE
    RESET                                    0x08000000   Section      236  startup_stm32f10x_md.o(RESET)
    .ARM.Collect$$$$00000000                 0x080000ec   Section        0  entry.o(.ARM.Collect$$$$00000000)
    .ARM.Collect$$$$00000001                 0x080000ec   Section        4  entry2.o(.ARM.Collect$$$$00000001)
    .ARM.Collect$$$$00000004                 0x080000f0   Section        4  entry5.o(.ARM.Collect$$$$00000004)
    .ARM.Collect$$$$00000008                 0x080000f4   Section        0  entry7b.o(.ARM.Collect$$$$00000008)
    .ARM.Collect$$$$0000000A                 0x080000f4   Section        0  entry8b.o(.ARM.Collect$$$$0000000A)
    .ARM.Collect$$$$0000000B                 0x080000f4   Section        8  entry9a.o(.ARM.Collect$$$$0000000B)
    .ARM.Collect$$$$0000000D                 0x080000fc   Section        0  entry10a.o(.ARM.Collect$$$$0000000D)
    .ARM.Collect$$$$0000000F                 0x080000fc   Section        0  entry11a.o(.ARM.Collect$$$$0000000F)
    .ARM.Collect$$$$00002712                 0x080000fc   Section        4  entry2.o(.ARM.Collect$$$$00002712)
    __lit__00000000                          0x080000fc   Data           4  entry2.o(.ARM.Collect$$$$00002712)
    .text                                    0x08000100   Section       36  startup_stm32f10x_md.o(.text)
    .text                                    0x08000124   Section      176  context_rvds.o(.text)
    .text                                    0x080001d4   Section        0  rand.o(.text)
    .text                                    0x080001f8   Section        0  memcpya.o(.text)
    .text                                    0x0800021c   Section        0  strcmp.o(.text)
    .text                                    0x08000238   Section        0  uidiv.o(.text)
    .text                                    0x08000264   Section       36  init.o(.text)
    .text                                    0x08000288   Section        0  __dczerorl2.o(.text)
    i.ADDBeepDevice                          0x080002de   Section        0  beep_system.o(i.ADDBeepDevice)
    i.ADDDisplayDevice                       0x080002e6   Section        0  display_system.o(i.ADDDisplayDevice)
    i.ADDFontLib                             0x080002ee   Section        0  fontlib_system.o(i.ADDFontLib)
    i.ADDI2CDevice                           0x080002f6   Section        0  i2c_system.o(i.ADDI2CDevice)
    i.ASCIIGetFontBitMap                     0x08000300   Section        0  ascii_fontlib.o(i.ASCIIGetFontBitMap)
    i.ASCIIGetFontSize                       0x08000354   Section        0  ascii_fontlib.o(i.ASCIIGetFontSize)
    i.AddBeepDeviceBeep                      0x08000364   Section        0  beep.o(i.AddBeepDeviceBeep)
    i.AddButtonDevice                        0x08000384   Section        0  button_system.o(i.AddButtonDevice)
    i.AddButtonDeviceKEY                     0x08000390   Section        0  button.o(i.AddButtonDeviceKEY)
    i.AddButtonInputDevice                   0x080003d0   Section        0  button_input.o(i.AddButtonInputDevice)
    i.AddDisplayDeviceOLED                   0x080003e0   Section        0  oled.o(i.AddDisplayDeviceOLED)
    i.AddFontLibASCII                        0x080003f8   Section        0  ascii_fontlib.o(i.AddFontLibASCII)
    i.AddI2CDeviceI2C1                       0x08000410   Section        0  i2c.o(i.AddI2CDeviceI2C1)
    i.AddInputDevice                         0x08000428   Section        0  input_system.o(i.AddInputDevice)
    i.AddLedDevice                           0x08000430   Section        0  led_system.o(i.AddLedDevice)
    i.AddLedDeviceToManager                  0x08000438   Section        0  led.o(i.AddLedDeviceToManager)
    i.AddOptionToManager                     0x08000460   Section        0  option.o(i.AddOptionToManager)
    i.AddRole                                0x08000524   Section        0  role_system.o(i.AddRole)
    i.AddRoleToManager                       0x08000530   Section        0  role.o(i.AddRoleToManager)
    i.BKP_DeInit                             0x08000570   Section        0  stm32f10x_bkp.o(i.BKP_DeInit)
    i.BeepDeviceInit                         0x08000580   Section        0  beep.o(i.BeepDeviceInit)
    BeepDeviceInit                           0x08000581   Thumb Code    12  beep.o(i.BeepDeviceInit)
    i.BeepDevicePWMCfg                       0x0800058c   Section        0  beep.o(i.BeepDevicePWMCfg)
    BeepDevicePWMCfg                         0x0800058d   Thumb Code    20  beep.o(i.BeepDevicePWMCfg)
    i.BeepDevicePWMOff                       0x080005a0   Section        0  beep.o(i.BeepDevicePWMOff)
    BeepDevicePWMOff                         0x080005a1   Thumb Code    12  beep.o(i.BeepDevicePWMOff)
    i.BeepDevicePWMOn                        0x080005ac   Section        0  beep.o(i.BeepDevicePWMOn)
    BeepDevicePWMOn                          0x080005ad   Thumb Code    12  beep.o(i.BeepDevicePWMOn)
    i.BeepDeviceRegister                     0x080005b8   Section        0  beep_device.o(i.BeepDeviceRegister)
    i.BeepSongDecode                         0x08000604   Section        0  decode.o(i.BeepSongDecode)
    BeepSongDecode                           0x08000605   Thumb Code   208  decode.o(i.BeepSongDecode)
    i.BeepSongDecodeInit                     0x080006e0   Section        0  decode.o(i.BeepSongDecodeInit)
    i.BeepSongGetData                        0x0800070c   Section        0  decode.o(i.BeepSongGetData)
    i.BeepSongNewFreqTable                   0x08000738   Section        0  decode.o(i.BeepSongNewFreqTable)
    BeepSongNewFreqTable                     0x08000739   Thumb Code    96  decode.o(i.BeepSongNewFreqTable)
    i.BoradInit                              0x080007a0   Section        0  main.o(i.BoradInit)
    i.BusFault_Handler                       0x080007e4   Section        0  stm32f10x_it.o(i.BusFault_Handler)
    i.ButtonInputDeviceCallBack              0x080007e8   Section        0  button_input.o(i.ButtonInputDeviceCallBack)
    ButtonInputDeviceCallBack                0x080007e9   Thumb Code    80  button_input.o(i.ButtonInputDeviceCallBack)
    i.ButtonInputInit                        0x08000850   Section        0  button_input.o(i.ButtonInputInit)
    ButtonInputInit                          0x08000851   Thumb Code    12  button_input.o(i.ButtonInputInit)
    i.ButtonRegister                         0x08000860   Section        0  button_device.o(i.ButtonRegister)
    i.ButtonTimerInit                        0x08000894   Section        0  button_device.o(i.ButtonTimerInit)
    ButtonTimerInit                          0x08000895   Thumb Code     8  button_device.o(i.ButtonTimerInit)
    i.CAL_BeepDevicePWMCfg                   0x0800089c   Section        0  cal_beep.o(i.CAL_BeepDevicePWMCfg)
    i.CAL_BeepDevicePWMOff                   0x080008b0   Section        0  cal_beep.o(i.CAL_BeepDevicePWMOff)
    i.CAL_BeepDevicePWMOn                    0x080008bc   Section        0  cal_beep.o(i.CAL_BeepDevicePWMOn)
    i.CAL_GPIOButtonInit                     0x080008c8   Section        0  cal_button.o(i.CAL_GPIOButtonInit)
    i.CAL_GPIOI2CDevInit                     0x080008d4   Section        0  cal_i2c.o(i.CAL_GPIOI2CDevInit)
    i.CAL_GPIOLedDevControl                  0x080008e4   Section        0  cal_led.o(i.CAL_GPIOLedDevControl)
    i.CAL_GPIOLedDevInit                     0x080008f6   Section        0  cal_led.o(i.CAL_GPIOLedDevInit)
    i.CAL_HardwareBeepDevInit                0x08000904   Section        0  cal_beep.o(i.CAL_HardwareBeepDevInit)
    i.CAL_I2CDMACfg                          0x08000912   Section        0  cal_i2c.o(i.CAL_I2CDMACfg)
    i.CAL_I2CDMAEnable                       0x08000922   Section        0  cal_i2c.o(i.CAL_I2CDMAEnable)
    i.CAL_TimerInit                          0x0800092e   Section        0  cal_timer.o(i.CAL_TimerInit)
    i.ClearGraphBitMapOnFrameBuffer          0x08000936   Section        0  show_graph.o(i.ClearGraphBitMapOnFrameBuffer)
    ClearGraphBitMapOnFrameBuffer            0x08000937   Thumb Code    58  show_graph.o(i.ClearGraphBitMapOnFrameBuffer)
    i.ClearGraphInDisplayDev                 0x08000970   Section        0  show_graph.o(i.ClearGraphInDisplayDev)
    i.ClearInDisplayDev                      0x080009a4   Section        0  show_graph.o(i.ClearInDisplayDev)
    i.ConstrcutorButtonManage                0x080009f0   Section        0  button_device.o(i.ConstrcutorButtonManage)
    ConstrcutorButtonManage                  0x080009f1   Thumb Code    44  button_device.o(i.ConstrcutorButtonManage)
    i.CoreProcss                             0x08000a24   Section        0  message_manager.o(i.CoreProcss)
    i.DHT11Init                              0x08000af0   Section        0  dht11_device.o(i.DHT11Init)
    i.DHT11ReceiveAck                        0x08000b00   Section        0  dht11_device.o(i.DHT11ReceiveAck)
    DHT11ReceiveAck                          0x08000b01   Thumb Code    68  dht11_device.o(i.DHT11ReceiveAck)
    i.DHT11ReceiveByte                       0x08000b48   Section        0  dht11_device.o(i.DHT11ReceiveByte)
    DHT11ReceiveByte                         0x08000b49   Thumb Code    68  dht11_device.o(i.DHT11ReceiveByte)
    i.DHT11ReceiveData                       0x08000b90   Section        0  dht11_device.o(i.DHT11ReceiveData)
    i.DHT11Start                             0x08000c00   Section        0  dht11_device.o(i.DHT11Start)
    DHT11Start                               0x08000c01   Thumb Code    42  dht11_device.o(i.DHT11Start)
    i.DMA1_Channel6_IRQHandler               0x08000c30   Section        0  oled_command.o(i.DMA1_Channel6_IRQHandler)
    i.DMA_ClearFlag                          0x08000c5c   Section        0  stm32f10x_dma.o(i.DMA_ClearFlag)
    i.DMA_Cmd                                0x08000c78   Section        0  stm32f10x_dma.o(i.DMA_Cmd)
    i.DMA_DeInit                             0x08000c90   Section        0  stm32f10x_dma.o(i.DMA_DeInit)
    i.DMA_GetFlagStatus                      0x08000ddc   Section        0  stm32f10x_dma.o(i.DMA_GetFlagStatus)
    i.DMA_ITConfig                           0x08000e08   Section        0  stm32f10x_dma.o(i.DMA_ITConfig)
    i.DMA_Init                               0x08000e1a   Section        0  stm32f10x_dma.o(i.DMA_Init)
    i.DMA_SetCurrDataCounter                 0x08000e56   Section        0  stm32f10x_dma.o(i.DMA_SetCurrDataCounter)
    i.DebugMon_Handler                       0x08000e5a   Section        0  stm32f10x_it.o(i.DebugMon_Handler)
    i.DefaultDinosaurCollisionEXCUTE         0x08000e5c   Section        0  role_manager.o(i.DefaultDinosaurCollisionEXCUTE)
    DefaultDinosaurCollisionEXCUTE           0x08000e5d   Thumb Code    14  role_manager.o(i.DefaultDinosaurCollisionEXCUTE)
    i.DefaultDinosaurCollisionJUDGE          0x08000e70   Section        0  role_system.o(i.DefaultDinosaurCollisionJUDGE)
    i.DefaultDinosaurJUMP                    0x08000e88   Section        0  role_system.o(i.DefaultDinosaurJUMP)
    i.DefaultGameControl                     0x08000ea0   Section        0  game_system.o(i.DefaultGameControl)
    i.DefaultPlayerControl                   0x08000ed4   Section        0  player_system.o(i.DefaultPlayerControl)
    i.Delay_10us                             0x08000f4c   Section        0  drive_delay.o(i.Delay_10us)
    i.Delay_ms                               0x08000f78   Section        0  drive_delay.o(i.Delay_ms)
    i.DisplayDevInit                         0x08000f90   Section        0  displaydev_init.o(i.DisplayDevInit)
    i.DisplayDevTimerFlushControl            0x080011b4   Section        0  display_device.o(i.DisplayDevTimerFlushControl)
    i.DisplayDeviceRegister                  0x080011cc   Section        0  display_device.o(i.DisplayDeviceRegister)
    i.DrawBitMapOnFrameBuffer                0x080011f4   Section        0  show_text.o(i.DrawBitMapOnFrameBuffer)
    DrawBitMapOnFrameBuffer                  0x080011f5   Thumb Code    70  show_text.o(i.DrawBitMapOnFrameBuffer)
    i.DrawGraphBitMapOnFrameBuffer           0x0800123a   Section        0  show_graph.o(i.DrawGraphBitMapOnFrameBuffer)
    DrawGraphBitMapOnFrameBuffer             0x0800123b   Thumb Code    70  show_graph.o(i.DrawGraphBitMapOnFrameBuffer)
    i.EncodeStr                              0x08001280   Section        0  encode_str.o(i.EncodeStr)
    i.FKLPVisit                              0x08001286   Section        0  logic_control.o(i.FKLPVisit)
    FKLPVisit                                0x08001287   Thumb Code    10  logic_control.o(i.FKLPVisit)
    i.FKSPVisit                              0x08001290   Section        0  logic_control.o(i.FKSPVisit)
    FKSPVisit                                0x08001291   Thumb Code    10  logic_control.o(i.FKSPVisit)
    i.FontLibRegister                        0x0800129c   Section        0  fontlib_manager.o(i.FontLibRegister)
    i.GAMEInfoOptionChooseFUN                0x080012b8   Section        0  option.o(i.GAMEInfoOptionChooseFUN)
    i.GAMEInfoOptionEnterFUN                 0x08001324   Section        0  option.o(i.GAMEInfoOptionEnterFUN)
    i.GAMESetOptionChooseFUN                 0x0800134c   Section        0  option.o(i.GAMESetOptionChooseFUN)
    i.GAMESetOptionEnterFUN                  0x080013b8   Section        0  option.o(i.GAMESetOptionEnterFUN)
    i.GAMEStartOptionChooseFUN               0x080013e0   Section        0  option.o(i.GAMEStartOptionChooseFUN)
    i.GAMEStartOptionEnterFUN                0x08001498   Section        0  option.o(i.GAMEStartOptionEnterFUN)
    i.GPIOButtonInit                         0x080014bc   Section        0  button_device.o(i.GPIOButtonInit)
    GPIOButtonInit                           0x080014bd   Thumb Code    12  button_device.o(i.GPIOButtonInit)
    i.GPIO_Init                              0x080014c8   Section        0  stm32f10x_gpio.o(i.GPIO_Init)
    i.GPIO_ReadInputDataBit                  0x080015de   Section        0  stm32f10x_gpio.o(i.GPIO_ReadInputDataBit)
    i.GPIO_WriteBit                          0x080015f0   Section        0  stm32f10x_gpio.o(i.GPIO_WriteBit)
    i.GameChooseFUN                          0x080015fc   Section        0  option.o(i.GameChooseFUN)
    i.GameEnterFUN                           0x080016d0   Section        0  option.o(i.GameEnterFUN)
    i.GameFirstKeyLongPressFun               0x080016f8   Section        0  logic_control.o(i.GameFirstKeyLongPressFun)
    GameFirstKeyLongPressFun                 0x080016f9   Thumb Code    10  logic_control.o(i.GameFirstKeyLongPressFun)
    i.GameFirstKeyShortPressFun              0x08001724   Section        0  logic_control.o(i.GameFirstKeyShortPressFun)
    GameFirstKeyShortPressFun                0x08001725   Thumb Code    28  logic_control.o(i.GameFirstKeyShortPressFun)
    i.GameRunning                            0x08001788   Section        0  game_system.o(i.GameRunning)
    i.GameSecondKeyLongPressFun              0x080017d0   Section        0  logic_control.o(i.GameSecondKeyLongPressFun)
    GameSecondKeyLongPressFun                0x080017d1   Thumb Code    10  logic_control.o(i.GameSecondKeyLongPressFun)
    i.GameSecondKeyShortPressFun             0x080017fc   Section        0  logic_control.o(i.GameSecondKeyShortPressFun)
    GameSecondKeyShortPressFun               0x080017fd   Thumb Code    16  logic_control.o(i.GameSecondKeyShortPressFun)
    i.GameShow                               0x0800182c   Section        0  game_system.o(i.GameShow)
    i.GameStop                               0x08001864   Section        0  game_system.o(i.GameStop)
    i.GameThirdKeyLongPressFun               0x080018c8   Section        0  logic_control.o(i.GameThirdKeyLongPressFun)
    GameThirdKeyLongPressFun                 0x080018c9   Thumb Code    10  logic_control.o(i.GameThirdKeyLongPressFun)
    i.GameThirdKeyShortPressFun              0x080018f4   Section        0  logic_control.o(i.GameThirdKeyShortPressFun)
    GameThirdKeyShortPressFun                0x080018f5   Thumb Code    16  logic_control.o(i.GameThirdKeyShortPressFun)
    i.GameThreadEntry                        0x08001924   Section        0  game_system.o(i.GameThreadEntry)
    i.GameThreadInit                         0x080019c8   Section        0  game_system.o(i.GameThreadInit)
    i.GetBackOption                          0x080019dc   Section        0  option_manager.o(i.GetBackOption)
    GetBackOption                            0x080019dd   Thumb Code    62  option_manager.o(i.GetBackOption)
    i.GetBeepDevice                          0x08001a58   Section        0  beep_system.o(i.GetBeepDevice)
    i.GetBeepSongLen                         0x08001a64   Section        0  decode.o(i.GetBeepSongLen)
    i.GetBeepSongName                        0x08001a80   Section        0  decode.o(i.GetBeepSongName)
    i.GetDisplayDevice                       0x08001a96   Section        0  display_system.o(i.GetDisplayDevice)
    i.GetEnterOption                         0x08001aa4   Section        0  option_manager.o(i.GetEnterOption)
    GetEnterOption                           0x08001aa5   Thumb Code    44  option_manager.o(i.GetEnterOption)
    i.GetFontBitMap                          0x08001af0   Section        0  fontlib_system.o(i.GetFontBitMap)
    i.GetFontLib                             0x08001b08   Section        0  fontlib_system.o(i.GetFontLib)
    i.GetGame                                0x08001b14   Section        0  game_system.o(i.GetGame)
    i.GetGraphPixelColorFromFrameBuffer      0x08001b1c   Section        0  show_graph.o(i.GetGraphPixelColorFromFrameBuffer)
    GetGraphPixelColorFromFrameBuffer        0x08001b1d   Thumb Code    70  show_graph.o(i.GetGraphPixelColorFromFrameBuffer)
    i.GetGregorianDay                        0x08001b64   Section        0  convert.o(i.GetGregorianDay)
    GetGregorianDay                          0x08001b65   Thumb Code   146  convert.o(i.GetGregorianDay)
    i.GetI2CDevice                           0x08001bfc   Section        0  i2c_system.o(i.GetI2CDevice)
    i.GetInputBuffer                         0x08001c08   Section        0  input_buffer.o(i.GetInputBuffer)
    i.GetLedDevice                           0x08001c68   Section        0  led_system.o(i.GetLedDevice)
    i.GetNextOption                          0x08001c74   Section        0  option_manager.o(i.GetNextOption)
    GetNextOption                            0x08001c75   Thumb Code    60  option_manager.o(i.GetNextOption)
    i.GetNodeFirstChild                      0x08001cf4   Section        0  node_manager.o(i.GetNodeFirstChild)
    i.GetNodeParent                          0x08001d10   Section        0  node_manager.o(i.GetNodeParent)
    i.GetNodeRightSibling                    0x08001d2c   Section        0  node_manager.o(i.GetNodeRightSibling)
    i.GetNormalTime                          0x08001d48   Section        0  convert.o(i.GetNormalTime)
    i.GetPixelColorFromFrameBuffer           0x08001e24   Section        0  show_text.o(i.GetPixelColorFromFrameBuffer)
    GetPixelColorFromFrameBuffer             0x08001e25   Thumb Code    56  show_text.o(i.GetPixelColorFromFrameBuffer)
    i.GetUnixTime                            0x08001e5c   Section        0  convert.o(i.GetUnixTime)
    i.HandlerMenuMsg                         0x08001ed8   Section        0  logic_control.o(i.HandlerMenuMsg)
    i.HandlerPlayerMsg                       0x08001f04   Section        0  logic_control.o(i.HandlerPlayerMsg)
    i.HandlerRTCMsg                          0x08001f40   Section        0  logic_control.o(i.HandlerRTCMsg)
    i.HardFault_Handler                      0x08002040   Section        0  stm32f10x_it.o(i.HardFault_Handler)
    i.HomeChooseFUN                          0x08002044   Section        0  option.o(i.HomeChooseFUN)
    i.HomeEnterFUN                           0x080020e0   Section        0  option.o(i.HomeEnterFUN)
    i.I2CDeviceDMACfg                        0x08002108   Section        0  i2c.o(i.I2CDeviceDMACfg)
    I2CDeviceDMACfg                          0x08002109   Thumb Code    12  i2c.o(i.I2CDeviceDMACfg)
    i.I2CDeviceDMAEnable                     0x08002114   Section        0  i2c.o(i.I2CDeviceDMAEnable)
    I2CDeviceDMAEnable                       0x08002115   Thumb Code    12  i2c.o(i.I2CDeviceDMAEnable)
    i.I2CDeviceInit                          0x08002120   Section        0  i2c.o(i.I2CDeviceInit)
    I2CDeviceInit                            0x08002121   Thumb Code    12  i2c.o(i.I2CDeviceInit)
    i.I2CDeviceRegister                      0x0800212c   Section        0  i2c_device.o(i.I2CDeviceRegister)
    i.I2C_CheckEvent                         0x08002154   Section        0  stm32f10x_i2c.o(i.I2C_CheckEvent)
    i.I2C_Cmd                                0x0800217e   Section        0  stm32f10x_i2c.o(i.I2C_Cmd)
    i.I2C_DMACmd                             0x08002196   Section        0  stm32f10x_i2c.o(i.I2C_DMACmd)
    i.I2C_GenerateSTART                      0x080021ae   Section        0  stm32f10x_i2c.o(i.I2C_GenerateSTART)
    i.I2C_GenerateSTOP                       0x080021c6   Section        0  stm32f10x_i2c.o(i.I2C_GenerateSTOP)
    i.I2C_GetFlagStatus                      0x080021de   Section        0  stm32f10x_i2c.o(i.I2C_GetFlagStatus)
    i.I2C_Init                               0x08002218   Section        0  stm32f10x_i2c.o(i.I2C_Init)
    i.I2C_Send7bitAddress                    0x08002304   Section        0  stm32f10x_i2c.o(i.I2C_Send7bitAddress)
    i.I2C_SendData                           0x08002316   Section        0  stm32f10x_i2c.o(i.I2C_SendData)
    i.IndicateLedClose                       0x0800231c   Section        0  role_manager.o(i.IndicateLedClose)
    i.IndicateLedOpen                        0x08002344   Section        0  role_manager.o(i.IndicateLedOpen)
    i.InfoChooseFUN                          0x0800236c   Section        0  option.o(i.InfoChooseFUN)
    i.InfoEnterFUN                           0x0800239c   Section        0  option.o(i.InfoEnterFUN)
    i.InitInputDevice                        0x080023c0   Section        0  input_system.o(i.InitInputDevice)
    i.InitMenuOption                         0x080023c8   Section        0  option_manager.o(i.InitMenuOption)
    i.InputDeviceRegister                    0x080023e8   Section        0  input_device.o(i.InputDeviceRegister)
    i.KAL_BeepDevicePWMCfg                   0x080023f8   Section        0  kal_beep.o(i.KAL_BeepDevicePWMCfg)
    i.KAL_BeepDevicePWMOff                   0x08002418   Section        0  kal_beep.o(i.KAL_BeepDevicePWMOff)
    i.KAL_BeepDevicePWMOn                    0x08002424   Section        0  kal_beep.o(i.KAL_BeepDevicePWMOn)
    i.KAL_GPIOButtonInit                     0x08002430   Section        0  kal_button.o(i.KAL_GPIOButtonInit)
    i.KAL_GPIOI2CDevInit                     0x0800243c   Section        0  kal_i2c.o(i.KAL_GPIOI2CDevInit)
    i.KAL_GPIOLedDevControl                  0x08002448   Section        0  kal_led.o(i.KAL_GPIOLedDevControl)
    i.KAL_GPIOLedDevInit                     0x08002458   Section        0  kal_led.o(i.KAL_GPIOLedDevInit)
    i.KAL_HardwareBeepDevInit                0x08002464   Section        0  kal_beep.o(i.KAL_HardwareBeepDevInit)
    i.KAL_I2CDMACfg                          0x08002470   Section        0  kal_i2c.o(i.KAL_I2CDMACfg)
    i.KAL_I2CDMAEnable                       0x0800247c   Section        0  kal_i2c.o(i.KAL_I2CDMAEnable)
    i.KAL_TimerInit                          0x08002488   Section        0  kal_timer.o(i.KAL_TimerInit)
    i.LedDeviceControl                       0x08002490   Section        0  led.o(i.LedDeviceControl)
    LedDeviceControl                         0x08002491   Thumb Code    16  led.o(i.LedDeviceControl)
    i.LedDeviceInit                          0x080024a0   Section        0  led.o(i.LedDeviceInit)
    LedDeviceInit                            0x080024a1   Thumb Code    12  led.o(i.LedDeviceInit)
    i.LedDeviceRegister                      0x080024ac   Section        0  led_device.o(i.LedDeviceRegister)
    i.LogicThreadEntry                       0x080024d4   Section        0  logic_control.o(i.LogicThreadEntry)
    i.LogicThreadInit                        0x080026e0   Section        0  logic_control.o(i.LogicThreadInit)
    i.MemManage_Handler                      0x08002764   Section        0  stm32f10x_it.o(i.MemManage_Handler)
    i.MenuFirstKeyLongPressFun               0x08002768   Section        0  logic_control.o(i.MenuFirstKeyLongPressFun)
    MenuFirstKeyLongPressFun                 0x08002769   Thumb Code    16  logic_control.o(i.MenuFirstKeyLongPressFun)
    i.MenuFirstKeyShortPressFun              0x08002798   Section        0  logic_control.o(i.MenuFirstKeyShortPressFun)
    MenuFirstKeyShortPressFun                0x08002799   Thumb Code    16  logic_control.o(i.MenuFirstKeyShortPressFun)
    i.MenuPublish                            0x080027c8   Section        0  option_manager.o(i.MenuPublish)
    i.MenuSecondKeyLongPressFun              0x080027d4   Section        0  logic_control.o(i.MenuSecondKeyLongPressFun)
    MenuSecondKeyLongPressFun                0x080027d5   Thumb Code    16  logic_control.o(i.MenuSecondKeyLongPressFun)
    i.MenuSecondKeyShortPressFun             0x08002804   Section        0  logic_control.o(i.MenuSecondKeyShortPressFun)
    MenuSecondKeyShortPressFun               0x08002805   Thumb Code    16  logic_control.o(i.MenuSecondKeyShortPressFun)
    i.MenuThirdKeyLongPressFun               0x08002834   Section        0  logic_control.o(i.MenuThirdKeyLongPressFun)
    MenuThirdKeyLongPressFun                 0x08002835   Thumb Code    16  logic_control.o(i.MenuThirdKeyLongPressFun)
    i.MenuThirdKeyShortPressFun              0x08002864   Section        0  logic_control.o(i.MenuThirdKeyShortPressFun)
    MenuThirdKeyShortPressFun                0x08002865   Thumb Code    16  logic_control.o(i.MenuThirdKeyShortPressFun)
    i.MenuThreadEntry                        0x08002894   Section        0  option_manager.o(i.MenuThreadEntry)
    i.MenuThreadInit                         0x08002900   Section        0  option_manager.o(i.MenuThreadInit)
    i.NMI_Handler                            0x08002930   Section        0  stm32f10x_it.o(i.NMI_Handler)
    i.NVIC_Configuration                     0x08002932   Section        0  drive_usart.o(i.NVIC_Configuration)
    NVIC_Configuration                       0x08002933   Thumb Code    40  drive_usart.o(i.NVIC_Configuration)
    i.NVIC_Init                              0x0800295c   Section        0  misc.o(i.NVIC_Init)
    i.NVIC_PriorityGroupConfig               0x080029cc   Section        0  misc.o(i.NVIC_PriorityGroupConfig)
    i.NodeRegisterToTREE                     0x080029e0   Section        0  node_manager.o(i.NodeRegisterToTREE)
    i.OLEDByteSend                           0x080029f8   Section        0  oled_command.o(i.OLEDByteSend)
    OLEDByteSend                             0x080029f9   Thumb Code   126  oled_command.o(i.OLEDByteSend)
    i.OLEDCommandSend                        0x08002a84   Section        0  oled_command.o(i.OLEDCommandSend)
    i.OLEDDataSend                           0x08002a92   Section        0  oled_command.o(i.OLEDDataSend)
    i.OLEDDeviceFlush                        0x08002aa0   Section        0  oled.o(i.OLEDDeviceFlush)
    OLEDDeviceFlush                          0x08002aa1   Thumb Code    10  oled.o(i.OLEDDeviceFlush)
    i.OLEDDeviceInit                         0x08002aaa   Section        0  oled.o(i.OLEDDeviceInit)
    OLEDDeviceInit                           0x08002aab   Thumb Code    14  oled.o(i.OLEDDeviceInit)
    i.OLEDDeviceSetPixel                     0x08002ab8   Section        0  oled.o(i.OLEDDeviceSetPixel)
    OLEDDeviceSetPixel                       0x08002ab9   Thumb Code   120  oled.o(i.OLEDDeviceSetPixel)
    i.OLEDInfDevInit                         0x08002b30   Section        0  oled_command.o(i.OLEDInfDevInit)
    OLEDInfDevInit                           0x08002b31   Thumb Code    36  oled_command.o(i.OLEDInfDevInit)
    i.OptionControl                          0x08002b60   Section        0  option_manager.o(i.OptionControl)
    i.OptionRegister                         0x08002b98   Section        0  option_manager.o(i.OptionRegister)
    i.PWR_BackupAccessCmd                    0x08002bc0   Section        0  stm32f10x_pwr.o(i.PWR_BackupAccessCmd)
    i.PlayerAddSong                          0x08002bcc   Section        0  player_system.o(i.PlayerAddSong)
    i.PlayerChooseFUN                        0x08002bec   Section        0  option.o(i.PlayerChooseFUN)
    i.PlayerControl                          0x08002cc0   Section        0  player_system.o(i.PlayerControl)
    i.PlayerEnterFUN                         0x08002d1c   Section        0  option.o(i.PlayerEnterFUN)
    i.PlayerFirstKeyLongPressFun             0x08002d8c   Section        0  logic_control.o(i.PlayerFirstKeyLongPressFun)
    PlayerFirstKeyLongPressFun               0x08002d8d   Thumb Code    40  logic_control.o(i.PlayerFirstKeyLongPressFun)
    i.PlayerFirstKeyShortPressFun            0x08002dd8   Section        0  logic_control.o(i.PlayerFirstKeyShortPressFun)
    PlayerFirstKeyShortPressFun              0x08002dd9   Thumb Code    18  logic_control.o(i.PlayerFirstKeyShortPressFun)
    i.PlayerInit                             0x08002e10   Section        0  player.o(i.PlayerInit)
    i.PlayerLast                             0x08002ec4   Section        0  player_system.o(i.PlayerLast)
    i.PlayerNext                             0x08002f06   Section        0  player_system.o(i.PlayerNext)
    i.PlayerPlay                             0x08002f4a   Section        0  player_system.o(i.PlayerPlay)
    i.PlayerPublish                          0x08002f58   Section        0  player_system.o(i.PlayerPublish)
    i.PlayerSecondKeyLongPressFun            0x08002f64   Section        0  logic_control.o(i.PlayerSecondKeyLongPressFun)
    PlayerSecondKeyLongPressFun              0x08002f65   Thumb Code    36  logic_control.o(i.PlayerSecondKeyLongPressFun)
    i.PlayerSecondKeyShortPressFun           0x08002fd4   Section        0  logic_control.o(i.PlayerSecondKeyShortPressFun)
    PlayerSecondKeyShortPressFun             0x08002fd5   Thumb Code    54  logic_control.o(i.PlayerSecondKeyShortPressFun)
    i.PlayerShow                             0x08003040   Section        0  player_system.o(i.PlayerShow)
    i.PlayerStart                            0x0800314c   Section        0  player_system.o(i.PlayerStart)
    i.PlayerStop                             0x080031b4   Section        0  player_system.o(i.PlayerStop)
    i.PlayerThirdKeyLongPressFun             0x080031c4   Section        0  logic_control.o(i.PlayerThirdKeyLongPressFun)
    PlayerThirdKeyLongPressFun               0x080031c5   Thumb Code    40  logic_control.o(i.PlayerThirdKeyLongPressFun)
    i.PlayerThirdKeyShortPressFun            0x08003210   Section        0  logic_control.o(i.PlayerThirdKeyShortPressFun)
    PlayerThirdKeyShortPressFun              0x08003211   Thumb Code    18  logic_control.o(i.PlayerThirdKeyShortPressFun)
    i.PlayerThreadEntry                      0x08003248   Section        0  player_system.o(i.PlayerThreadEntry)
    i.PlayerThreadInit                       0x08003338   Section        0  player_system.o(i.PlayerThreadInit)
    i.PutInputBuffer                         0x0800337c   Section        0  input_buffer.o(i.PutInputBuffer)
    i.RCC_AHBPeriphClockCmd                  0x080033d0   Section        0  stm32f10x_rcc.o(i.RCC_AHBPeriphClockCmd)
    i.RCC_APB1PeriphClockCmd                 0x080033f0   Section        0  stm32f10x_rcc.o(i.RCC_APB1PeriphClockCmd)
    i.RCC_APB2PeriphClockCmd                 0x08003410   Section        0  stm32f10x_rcc.o(i.RCC_APB2PeriphClockCmd)
    i.RCC_BackupResetCmd                     0x08003430   Section        0  stm32f10x_rcc.o(i.RCC_BackupResetCmd)
    i.RCC_GetClocksFreq                      0x0800343c   Section        0  stm32f10x_rcc.o(i.RCC_GetClocksFreq)
    i.RCC_GetFlagStatus                      0x08003510   Section        0  stm32f10x_rcc.o(i.RCC_GetFlagStatus)
    i.RCC_LSICmd                             0x0800354c   Section        0  stm32f10x_rcc.o(i.RCC_LSICmd)
    i.RCC_RTCCLKCmd                          0x08003558   Section        0  stm32f10x_rcc.o(i.RCC_RTCCLKCmd)
    i.RCC_RTCCLKConfig                       0x08003564   Section        0  stm32f10x_rcc.o(i.RCC_RTCCLKConfig)
    i.RTCInit                                0x08003574   Section        0  rtc_system.o(i.RTCInit)
    i.RTCNormalTime                          0x0800359c   Section        0  rtc_device.o(i.RTCNormalTime)
    i.RTCPublish                             0x080035b0   Section        0  rtc_system.o(i.RTCPublish)
    i.RTCThreadInit                          0x080035bc   Section        0  rtc_system.o(i.RTCThreadInit)
    i.RTCTimeStamp                           0x080035ec   Section        0  rtc_device.o(i.RTCTimeStamp)
    i.RTC_ClearITPendingBit                  0x0800360c   Section        0  stm32f10x_rtc.o(i.RTC_ClearITPendingBit)
    i.RTC_EnterConfigMode                    0x0800361c   Section        0  stm32f10x_rtc.o(i.RTC_EnterConfigMode)
    i.RTC_ExitConfigMode                     0x08003630   Section        0  stm32f10x_rtc.o(i.RTC_ExitConfigMode)
    i.RTC_GetCounter                         0x08003644   Section        0  stm32f10x_rtc.o(i.RTC_GetCounter)
    i.RTC_GetITStatus                        0x08003658   Section        0  stm32f10x_rtc.o(i.RTC_GetITStatus)
    i.RTC_IRQHandler                         0x0800367c   Section        0  rtc_system.o(i.RTC_IRQHandler)
    i.RTC_ITConfig                           0x080036ac   Section        0  stm32f10x_rtc.o(i.RTC_ITConfig)
    i.RTC_SetCounter                         0x080036cc   Section        0  stm32f10x_rtc.o(i.RTC_SetCounter)
    i.RTC_SetPrescaler                       0x080036e8   Section        0  stm32f10x_rtc.o(i.RTC_SetPrescaler)
    i.RTC_WaitForLastTask                    0x08003708   Section        0  stm32f10x_rtc.o(i.RTC_WaitForLastTask)
    i.RTC_WaitForSynchro                     0x0800371c   Section        0  stm32f10x_rtc.o(i.RTC_WaitForSynchro)
    i.RecoverSpeedIndex                      0x08003740   Section        0  role_system.o(i.RecoverSpeedIndex)
    i.RegisterMessage                        0x0800374c   Section        0  message_manager.o(i.RegisterMessage)
    i.RegisterSubscriber                     0x08003810   Section        0  message_manager.o(i.RegisterSubscriber)
    i.RoleRegister                           0x08003908   Section        0  role_manager.o(i.RoleRegister)
    i.RtcNvicConfig                          0x08003960   Section        0  drive_rtc.o(i.RtcNvicConfig)
    i.RtcNvicInit                            0x08003980   Section        0  rtc_device.o(i.RtcNvicInit)
    i.RtcPeripheralConfig                    0x08003988   Section        0  drive_rtc.o(i.RtcPeripheralConfig)
    i.SKLPVisit                              0x080039e8   Section        0  logic_control.o(i.SKLPVisit)
    SKLPVisit                                0x080039e9   Thumb Code    10  logic_control.o(i.SKLPVisit)
    i.SKSPVisit                              0x080039f2   Section        0  logic_control.o(i.SKSPVisit)
    SKSPVisit                                0x080039f3   Thumb Code    10  logic_control.o(i.SKSPVisit)
    i.STD_BeepDevicePWMCfg                   0x080039fc   Section        0  drive_pwm.o(i.STD_BeepDevicePWMCfg)
    i.STD_BeepDevicePWMOff                   0x08003a66   Section        0  drive_pwm.o(i.STD_BeepDevicePWMOff)
    i.STD_DHT11GpioConfigure                 0x08003a78   Section        0  drive_gpio.o(i.STD_DHT11GpioConfigure)
    i.STD_GPIOBeepDevConfig                  0x08003aa2   Section        0  drive_pwm.o(i.STD_GPIOBeepDevConfig)
    i.STD_GPIOButtonConfig                   0x08003acc   Section        0  drive_gpio.o(i.STD_GPIOButtonConfig)
    i.STD_GPIOI2CDevConfig                   0x08003af8   Section        0  drive_i2c.o(i.STD_GPIOI2CDevConfig)
    i.STD_GPIOLedDevConfig                   0x08003b74   Section        0  drive_gpio.o(i.STD_GPIOLedDevConfig)
    i.STD_GPIOLedDevControl                  0x08003b9e   Section        0  drive_gpio.o(i.STD_GPIOLedDevControl)
    i.STD_I2CDMACfg                          0x08003bc0   Section        0  drive_i2c.o(i.STD_I2CDMACfg)
    i.STD_I2CDMAEnable                       0x08003c30   Section        0  drive_i2c.o(i.STD_I2CDMAEnable)
    i.STD_Timer3Config                       0x08003c50   Section        0  drive_timer.o(i.STD_Timer3Config)
    i.STD_TimerConfig                        0x08003cb4   Section        0  drive_timer.o(i.STD_TimerConfig)
    i.SVC_Handler                            0x08003d1c   Section        0  stm32f10x_it.o(i.SVC_Handler)
    i.SetButtonInputDeviceCallBack           0x08003d20   Section        0  button.o(i.SetButtonInputDeviceCallBack)
    i.SetChooseFUN                           0x08003d2c   Section        0  option.o(i.SetChooseFUN)
    i.SetDefaultDisplayDev                   0x08003d5c   Section        0  display_system.o(i.SetDefaultDisplayDev)
    i.SetDefaultFontLib                      0x08003ddc   Section        0  fontlib_system.o(i.SetDefaultFontLib)
    i.SetDefaultPLAYERDinosaur               0x08003e48   Section        0  role_system.o(i.SetDefaultPLAYERDinosaur)
    SetDefaultPLAYERDinosaur                 0x08003e49   Thumb Code    20  role_system.o(i.SetDefaultPLAYERDinosaur)
    i.SetEnterFUN                            0x08003e80   Section        0  option.o(i.SetEnterFUN)
    i.SetSysClock                            0x08003ea8   Section        0  system_stm32f10x.o(i.SetSysClock)
    SetSysClock                              0x08003ea9   Thumb Code     8  system_stm32f10x.o(i.SetSysClock)
    i.SetSysClockTo72                        0x08003eb0   Section        0  system_stm32f10x.o(i.SetSysClockTo72)
    SetSysClockTo72                          0x08003eb1   Thumb Code   214  system_stm32f10x.o(i.SetSysClockTo72)
    i.SetTimerProcessFunction                0x08003f90   Section        0  drive_timer.o(i.SetTimerProcessFunction)
    i.ShowGraphInDisplayDev                  0x08003f9c   Section        0  show_graph.o(i.ShowGraphInDisplayDev)
    i.ShowNumberInDisplayDev                 0x08003fc4   Section        0  show_text.o(i.ShowNumberInDisplayDev)
    i.ShowTextInDisplayDev                   0x08004014   Section        0  show_text.o(i.ShowTextInDisplayDev)
    i.SubscribeMsg                           0x0800405e   Section        0  logic_control.o(i.SubscribeMsg)
    SubscribeMsg                             0x0800405f   Thumb Code    16  logic_control.o(i.SubscribeMsg)
    i.SysTick_Handler                        0x08004070   Section        0  stm32f10x_it.o(i.SysTick_Handler)
    i.SystemInit                             0x08004084   Section        0  system_stm32f10x.o(i.SystemInit)
    i.TIM2_IRQHandler                        0x080040e4   Section        0  drive_timer.o(i.TIM2_IRQHandler)
    i.TIM3_IRQHandler                        0x0800411c   Section        0  drive_timer.o(i.TIM3_IRQHandler)
    i.TIM_ClearITPendingBit                  0x0800413c   Section        0  stm32f10x_tim.o(i.TIM_ClearITPendingBit)
    i.TIM_Cmd                                0x08004142   Section        0  stm32f10x_tim.o(i.TIM_Cmd)
    i.TIM_GetITStatus                        0x0800415a   Section        0  stm32f10x_tim.o(i.TIM_GetITStatus)
    i.TIM_ITConfig                           0x0800417c   Section        0  stm32f10x_tim.o(i.TIM_ITConfig)
    i.TIM_OC3Init                            0x08004190   Section        0  stm32f10x_tim.o(i.TIM_OC3Init)
    i.TIM_OC3PreloadConfig                   0x08004230   Section        0  stm32f10x_tim.o(i.TIM_OC3PreloadConfig)
    i.TIM_TimeBaseInit                       0x08004244   Section        0  stm32f10x_tim.o(i.TIM_TimeBaseInit)
    i.TKLPVisit                              0x080042e8   Section        0  logic_control.o(i.TKLPVisit)
    TKLPVisit                                0x080042e9   Thumb Code    10  logic_control.o(i.TKLPVisit)
    i.TKSPVisit                              0x080042f2   Section        0  logic_control.o(i.TKSPVisit)
    TKSPVisit                                0x080042f3   Thumb Code    10  logic_control.o(i.TKSPVisit)
    i.TempatureChooseFUN                     0x080042fc   Section        0  option.o(i.TempatureChooseFUN)
    i.TempatureEnterFUN                      0x080043d0   Section        0  option.o(i.TempatureEnterFUN)
    i.TimerFlushDisplayDev                   0x080044d8   Section        0  display_system.o(i.TimerFlushDisplayDev)
    i.TimingDelay_Decrement                  0x080044fc   Section        0  drive_delay.o(i.TimingDelay_Decrement)
    i.USART1_IRQHandler                      0x08004514   Section        0  drive_usart.o(i.USART1_IRQHandler)
    i.USART_Cmd                              0x08004530   Section        0  stm32f10x_usart.o(i.USART_Cmd)
    i.USART_Config                           0x08004548   Section        0  drive_usart.o(i.USART_Config)
    i.USART_GetFlagStatus                    0x080045d8   Section        0  stm32f10x_usart.o(i.USART_GetFlagStatus)
    i.USART_ITConfig                         0x080045f2   Section        0  stm32f10x_usart.o(i.USART_ITConfig)
    i.USART_Init                             0x0800463c   Section        0  stm32f10x_usart.o(i.USART_Init)
    i.USART_ReceiveData                      0x08004714   Section        0  stm32f10x_usart.o(i.USART_ReceiveData)
    i.USART_SendData                         0x0800471e   Section        0  stm32f10x_usart.o(i.USART_SendData)
    i.UsageFault_Handler                     0x08004726   Section        0  stm32f10x_it.o(i.UsageFault_Handler)
    i.UsartInit                              0x0800472c   Section        0  usart_init.o(i.UsartInit)
    i.Usart_SendByte                         0x080047a4   Section        0  drive_usart.o(i.Usart_SendByte)
    i.Usart_SendString                       0x080047c2   Section        0  drive_usart.o(i.Usart_SendString)
    i.__0printf$3                            0x080047ec   Section        0  printf3.o(i.__0printf$3)
    i.__ButtonDevcieManagerInit              0x0800480c   Section        0  button_device.o(i.__ButtonDevcieManagerInit)
    i.__DisplayDevTimerFlushControl          0x08004834   Section        0  display_device.o(i.__DisplayDevTimerFlushControl)
    i.__GetBeepDevice                        0x08004848   Section        0  beep_device.o(i.__GetBeepDevice)
    i.__GetDisplayDevice                     0x080048ac   Section        0  display_device.o(i.__GetDisplayDevice)
    i.__GetFontLib                           0x080048dc   Section        0  fontlib_manager.o(i.__GetFontLib)
    i.__GetGame                              0x0800490c   Section        0  game.o(i.__GetGame)
    i.__GetGameRole                          0x0800493c   Section        0  role_manager.o(i.__GetGameRole)
    i.__GetI2CDevice                         0x0800496c   Section        0  i2c_device.o(i.__GetI2CDevice)
    i.__GetLedDevice                         0x0800499c   Section        0  led_device.o(i.__GetLedDevice)
    i.__GetOption                            0x080049cc   Section        0  option_manager.o(i.__GetOption)
    i.__InitInputDevice                      0x08004a30   Section        0  input_device.o(i.__InitInputDevice)
    i.__scatterload_copy                     0x08004a48   Section       14  handlers.o(i.__scatterload_copy)
    i.__scatterload_null                     0x08004a56   Section        2  handlers.o(i.__scatterload_null)
    i.__scatterload_zeroinit                 0x08004a58   Section       14  handlers.o(i.__scatterload_zeroinit)
    i._printf_core                           0x08004a68   Section        0  printf3.o(i._printf_core)
    _printf_core                             0x08004a69   Thumb Code   436  printf3.o(i._printf_core)
    i.audio_close                            0x08004c20   Section        0  player.o(i.audio_close)
    audio_close                              0x08004c21   Thumb Code    32  player.o(i.audio_close)
    i.audio_control                          0x08004c48   Section        0  player.o(i.audio_control)
    audio_control                            0x08004c49   Thumb Code    44  player.o(i.audio_control)
    i.audio_init                             0x08004c78   Section        0  player.o(i.audio_init)
    audio_init                               0x08004c79   Thumb Code    26  player.o(i.audio_init)
    i.audio_open                             0x08004ca8   Section        0  player.o(i.audio_open)
    audio_open                               0x08004ca9   Thumb Code    20  player.o(i.audio_open)
    i.audio_write                            0x08004cc0   Section        0  player.o(i.audio_write)
    audio_write                              0x08004cc1   Thumb Code    80  player.o(i.audio_write)
    i.button_cb                              0x08004d1c   Section        0  button.o(i.button_cb)
    i.clear_cactus                           0x08004d34   Section        0  role.o(i.clear_cactus)
    clear_cactus                             0x08004d35   Thumb Code    24  role.o(i.clear_cactus)
    i.clear_cloud                            0x08004d50   Section        0  role.o(i.clear_cloud)
    clear_cloud                              0x08004d51   Thumb Code    24  role.o(i.clear_cloud)
    i.clear_dinosaur                         0x08004d6c   Section        0  role.o(i.clear_dinosaur)
    clear_dinosaur                           0x08004d6d   Thumb Code    24  role.o(i.clear_dinosaur)
    i.clear_ground                           0x08004d88   Section        0  role.o(i.clear_ground)
    clear_ground                             0x08004d89   Thumb Code     6  role.o(i.clear_ground)
    i.control_dinosaur                       0x08004d8e   Section        0  role.o(i.control_dinosaur)
    control_dinosaur                         0x08004d8f   Thumb Code    56  role.o(i.control_dinosaur)
    i.decode_control                         0x08004dc6   Section        0  player.o(i.decode_control)
    decode_control                           0x08004dc7   Thumb Code    36  player.o(i.decode_control)
    i.decode_init                            0x08004dea   Section        0  player.o(i.decode_init)
    decode_init                              0x08004deb   Thumb Code    10  player.o(i.decode_init)
    i.decode_read                            0x08004df4   Section        0  player.o(i.decode_read)
    decode_read                              0x08004df5   Thumb Code    28  player.o(i.decode_read)
    i.delay                                  0x08004e10   Section        0  drive_delay.o(i.delay)
    i.excute_cactus1                         0x08004e28   Section        0  role.o(i.excute_cactus1)
    excute_cactus1                           0x08004e29   Thumb Code    28  role.o(i.excute_cactus1)
    i.excute_cactus2                         0x08004e44   Section        0  role.o(i.excute_cactus2)
    excute_cactus2                           0x08004e45   Thumb Code    28  role.o(i.excute_cactus2)
    i.excute_cloud                           0x08004e60   Section        0  role.o(i.excute_cloud)
    excute_cloud                             0x08004e61   Thumb Code    28  role.o(i.excute_cloud)
    i.excute_dinosaur                        0x08004e7c   Section        0  role.o(i.excute_dinosaur)
    excute_dinosaur                          0x08004e7d   Thumb Code    28  role.o(i.excute_dinosaur)
    i.excute_ground                          0x08004e98   Section        0  role.o(i.excute_ground)
    excute_ground                            0x08004e99   Thumb Code    28  role.o(i.excute_ground)
    i.excute_item                            0x08004eb4   Section        0  role_manager.o(i.excute_item)
    excute_item                              0x08004eb5   Thumb Code    96  role_manager.o(i.excute_item)
    i.fputc                                  0x08004f14   Section        0  drive_usart.o(i.fputc)
    i.load_cactus                            0x08004f2c   Section        0  role.o(i.load_cactus)
    load_cactus                              0x08004f2d   Thumb Code    24  role.o(i.load_cactus)
    i.load_cloud                             0x08004f48   Section        0  role.o(i.load_cloud)
    load_cloud                               0x08004f49   Thumb Code    24  role.o(i.load_cloud)
    i.load_dinosaur                          0x08004f64   Section        0  role.o(i.load_dinosaur)
    load_dinosaur                            0x08004f65   Thumb Code    24  role.o(i.load_dinosaur)
    i.load_ground                            0x08004f80   Section        0  role.o(i.load_ground)
    load_ground                              0x08004f81   Thumb Code    24  role.o(i.load_ground)
    i.main                                   0x08004f9c   Section        0  main.o(i.main)
    i.malloc                                 0x08005078   Section        0  malloc.o(i.malloc)
    i.move_cactus1                           0x080050e4   Section        0  role.o(i.move_cactus1)
    move_cactus1                             0x080050e5   Thumb Code    86  role.o(i.move_cactus1)
    i.move_cactus2                           0x08005144   Section        0  role.o(i.move_cactus2)
    move_cactus2                             0x08005145   Thumb Code    86  role.o(i.move_cactus2)
    i.move_cloud                             0x080051a4   Section        0  role.o(i.move_cloud)
    move_cloud                               0x080051a5   Thumb Code    64  role.o(i.move_cloud)
    i.move_dinosaur                          0x080051e4   Section        0  role.o(i.move_dinosaur)
    move_dinosaur                            0x080051e5   Thumb Code   148  role.o(i.move_dinosaur)
    i.move_ground                            0x08005280   Section        0  role.o(i.move_ground)
    move_ground                              0x08005281   Thumb Code    34  role.o(i.move_ground)
    i.my_button_scan                         0x080052a4   Section        0  button_device.o(i.my_button_scan)
    i.oled_clear                             0x08005424   Section        0  oled_command.o(i.oled_clear)
    i.oled_gram_refresh_dma                  0x08005444   Section        0  oled_command.o(i.oled_gram_refresh_dma)
    i.oled_init                              0x080054e0   Section        0  oled_command.o(i.oled_init)
    i.oled_setcursor                         0x080055d0   Section        0  oled_command.o(i.oled_setcursor)
    i.recover_data                           0x080055f6   Section        0  role.o(i.recover_data)
    recover_data                             0x080055f7   Thumb Code    16  role.o(i.recover_data)
    i.recover_item                           0x08005606   Section        0  role_manager.o(i.recover_item)
    recover_item                             0x08005607   Thumb Code    36  role_manager.o(i.recover_item)
    i.reverse                                0x0800562a   Section        0  show_text.o(i.reverse)
    reverse                                  0x0800562b   Thumb Code    38  show_text.o(i.reverse)
    i.ring_buffer_init                       0x08005650   Section        0  ring_buffer.o(i.ring_buffer_init)
    i.ring_buffer_write                      0x0800565a   Section        0  ring_buffer.o(i.ring_buffer_write)
    i.rt_hw_stack_init                       0x0800567c   Section        0  cpuport.o(i.rt_hw_stack_init)
    i.rt_schedule                            0x080056bc   Section        0  scheduler.o(i.rt_schedule)
    i.rt_system_scheduler_init               0x080056dc   Section        0  scheduler.o(i.rt_system_scheduler_init)
    i.rt_system_scheduler_start              0x080056e8   Section        0  scheduler.o(i.rt_system_scheduler_start)
    i.rt_thread_init                         0x08005700   Section        0  thread.o(i.rt_thread_init)
    i.traversal_excute_item                  0x08005740   Section        0  role_manager.o(i.traversal_excute_item)
    traversal_excute_item                    0x08005741   Thumb Code    38  role_manager.o(i.traversal_excute_item)
    i.traversal_recover_item                 0x08005766   Section        0  role_manager.o(i.traversal_recover_item)
    traversal_recover_item                   0x08005767   Thumb Code    46  role_manager.o(i.traversal_recover_item)
    .constdata                               0x08005794   Section       48  convert.o(.constdata)
    .constdata                               0x080057c4   Section     2048  ascii_fontlib.o(.constdata)
    .constdata                               0x08005fc4   Section      104  decode.o(.constdata)
    freq_table                               0x08005fc4   Data          48  decode.o(.constdata)
    sign_table                               0x08005ff4   Data          28  decode.o(.constdata)
    length_tab                               0x08006010   Data          28  decode.o(.constdata)
    .constdata                               0x0800602c   Section     2650  player.o(.constdata)
    .constdata                               0x08006a86   Section     4772  graph_data.o(.constdata)
    .conststring                             0x08007d2c   Section       10  rtc_system.o(.conststring)
    .conststring                             0x08007d38   Section        7  button_input.o(.conststring)
    .conststring                             0x08007d40   Section       13  player_system.o(.conststring)
    .conststring                             0x08007d50   Section       49  role.o(.conststring)
    .conststring                             0x08007d84   Section       11  option_manager.o(.conststring)
    .data                                    0x20000000   Section       20  stm32f10x_rcc.o(.data)
    APBAHBPrescTable                         0x20000000   Data          16  stm32f10x_rcc.o(.data)
    ADCPrescTable                            0x20000010   Data           4  stm32f10x_rcc.o(.data)
    .data                                    0x20000014   Section        4  drive_timer.o(.data)
    g_fTimerProcessFunction                  0x20000014   Data           4  drive_timer.o(.data)
    .data                                    0x20000018   Section        4  drive_delay.o(.data)
    TimingDelay                              0x20000018   Data           4  drive_delay.o(.data)
    .data                                    0x2000001c   Section       48  convert.o(.data)
    month_days                               0x2000001c   Data          48  convert.o(.data)
    .data                                    0x2000004c   Section       12  rtc_system.o(.data)
    .data                                    0x20000058   Section       48  led.o(.data)
    LED_WHITE                                0x20000058   Data          24  led.o(.data)
    LED_RED                                  0x20000070   Data          24  led.o(.data)
    .data                                    0x20000088   Section       44  i2c.o(.data)
    I2C1_DEV                                 0x20000088   Data          44  i2c.o(.data)
    .data                                    0x200000b4   Section       88  button.o(.data)
    g_fButtonCallBack                        0x200000b4   Data           4  button.o(.data)
    button_1                                 0x200000b8   Data          28  button.o(.data)
    button_2                                 0x200000d4   Data          28  button.o(.data)
    button_3                                 0x200000f0   Data          28  button.o(.data)
    .data                                    0x2000010c   Section        4  button_device.o(.data)
    ptManage                                 0x2000010c   Data           4  button_device.o(.data)
    .data                                    0x20000110   Section       20  button_input.o(.data)
    g_tButtonInputDevice                     0x20000110   Data          20  button_input.o(.data)
    .data                                    0x20000124   Section        4  input_device.o(.data)
    g_ptInputDeviceManager                   0x20000124   Data           4  input_device.o(.data)
    .data                                    0x20000128   Section       36  oled.o(.data)
    g_tOLEDdev                               0x20000128   Data          36  oled.o(.data)
    .data                                    0x2000014c   Section       20  display_device.o(.data)
    g_tDisplayDeviceManager                  0x20000150   Data          16  display_device.o(.data)
    .data                                    0x20000160   Section        8  display_system.o(.data)
    .data                                    0x20000168   Section        8  oled_command.o(.data)
    g_ptI2CDevice                            0x20000168   Data           4  oled_command.o(.data)
    .data                                    0x20000170   Section       20  ascii_fontlib.o(.data)
    g_tASCIIFontLib                          0x20000170   Data          20  ascii_fontlib.o(.data)
    .data                                    0x20000184   Section        4  fontlib_system.o(.data)
    g_ptFaultFontlib                         0x20000184   Data           4  fontlib_system.o(.data)
    .data                                    0x20000188   Section       32  beep.o(.data)
    g_tBeepDevice                            0x20000188   Data          32  beep.o(.data)
    .data                                    0x200001a8   Section       12  player.o(.data)
    g_ptPlayerPilotLed                       0x200001a8   Data           4  player.o(.data)
    g_ptPlayerBeepDev                        0x200001ac   Data           4  player.o(.data)
    beep_volume                              0x200001b0   Data           4  player.o(.data)
    .data                                    0x200001b4   Section       24  player_system.o(.data)
    g_ptPlayerDev                            0x200001b4   Data           4  player_system.o(.data)
    inited                                   0x200001c8   Data           4  player_system.o(.data)
    .data                                    0x200001cc   Section      128  graph_data.o(.data)
    .data                                    0x2000024c   Section      448  role.o(.data)
    cactus1_position                         0x20000310   Data           4  role.o(.data)
    cactus2_position                         0x20000314   Data           4  role.o(.data)
    speed_table                              0x200003b0   Data           9  role.o(.data)
    .data                                    0x2000040c   Section       72  role_manager.o(.data)
    .data                                    0x20000454   Section        4  role_system.o(.data)
    .data                                    0x20000458   Section        4  game.o(.data)
    inited                                   0x20000458   Data           4  game.o(.data)
    .data                                    0x2000045c   Section       68  game_system.o(.data)
    g_ptGame                                 0x2000049c   Data           4  game_system.o(.data)
    .data                                    0x200004a0   Section      692  option.o(.data)
    inited                                   0x20000744   Data           4  option.o(.data)
    inited                                   0x20000748   Data           4  option.o(.data)
    inited                                   0x2000074c   Data           4  option.o(.data)
    inited                                   0x20000750   Data           4  option.o(.data)
    .data                                    0x20000754   Section       24  option_manager.o(.data)
    .data                                    0x2000076c   Section      164  logic_control.o(.data)
    player_volume                            0x2000076c   Data           4  logic_control.o(.data)
    g_ptCurrentVisitor                       0x200007dc   Data           4  logic_control.o(.data)
    g_ptCurrentElement                       0x200007e0   Data           4  logic_control.o(.data)
    rtc_enable                               0x200007f0   Data           4  logic_control.o(.data)
    visit_count                              0x2000080c   Data           4  logic_control.o(.data)
    .data                                    0x20000810   Section       12  cpuport.o(.data)
    .data                                    0x2000081c   Section        8  scheduler.o(.data)
    .data                                    0x20000824   Section        4  displaydev_init.o(.data)
    .data                                    0x20000828   Section        4  rand.o(.data)
    _rand_state                              0x20000828   Data           4  rand.o(.data)
    .data                                    0x2000082c   Section        4  stdout.o(.data)
    .data                                    0x20000830   Section        4  mvars.o(.data)
    .data                                    0x20000834   Section        4  mvars.o(.data)
    .bss                                     0x20000838   Section     2176  main.o(.bss)
    .bss                                     0x200010b8   Section     1032  drive_usart.o(.bss)
    .bss                                     0x200014c0   Section       28  rtc_system.o(.bss)
    g_tNormTime                              0x200014c0   Data          28  rtc_system.o(.bss)
    .bss                                     0x200014dc   Section       24  led_device.o(.bss)
    g_tLedDeviceManager                      0x200014dc   Data          24  led_device.o(.bss)
    .bss                                     0x200014f4   Section       12  i2c_device.o(.bss)
    g_tI2CDeviceManager                      0x200014f4   Data          12  i2c_device.o(.bss)
    .bss                                     0x20001500   Section       48  button_device.o(.bss)
    g_tButtonDevcieManager                   0x20001500   Data          48  button_device.o(.bss)
    .bss                                     0x20001530   Section      448  input_buffer.o(.bss)
    g_tInputEventBuffer                      0x20001530   Data         448  input_buffer.o(.bss)
    .bss                                     0x200016f0   Section     4096  oled.o(.bss)
    g_OLEDFrameBuffer                        0x200016f0   Data        4096  oled.o(.bss)
    .bss                                     0x200026f0   Section       20  fontlib_manager.o(.bss)
    g_tFontLibManager                        0x200026f0   Data          20  fontlib_manager.o(.bss)
    .bss                                     0x20002704   Section       20  show_text.o(.bss)
    s                                        0x20002704   Data          20  show_text.o(.bss)
    .bss                                     0x20002718   Section       12  beep_device.o(.bss)
    g_tBeepDeviceManager                     0x20002718   Data          12  beep_device.o(.bss)
    .bss                                     0x20002724   Section       48  decode.o(.bss)
    freq_table_new                           0x20002724   Data          48  decode.o(.bss)
    .bss                                     0x20002754   Section      104  player.o(.bss)
    aduio                                    0x20002754   Data          20  player.o(.bss)
    decode                                   0x20002768   Data          12  player.o(.bss)
    g_tPlayer                                0x20002774   Data          72  player.o(.bss)
    .bss                                     0x200027bc   Section       20  game.o(.bss)
    .bss                                     0x200027d0   Section       84  node_manager.o(.bss)
    g_tNodeTREE                              0x200027d0   Data          84  node_manager.o(.bss)
    .bss                                     0x20002824   Section       84  option_manager.o(.bss)
    g_tOptionManager                         0x20002824   Data          84  option_manager.o(.bss)
    .bss                                     0x20002878   Section      288  message_manager.o(.bss)
    g_ptTopicMessageTable                    0x20002878   Data          84  message_manager.o(.bss)
    g_ptTopicSubcriberTable                  0x200028cc   Data         204  message_manager.o(.bss)
    .bss                                     0x20002998   Section       28  logic_control.o(.bss)
    tSubscribeRTCData                        0x20002998   Data          28  logic_control.o(.bss)
    HEAP                                     0x200029b8   Section      512  startup_stm32f10x_md.o(HEAP)
    STACK                                    0x20002bb8   Section     3072  startup_stm32f10x_md.o(STACK)

    Global Symbols

    Symbol Name                              Value     Ov Type        Size  Object(Section)

    BuildAttributes$$THM_ISAv4$P$D$K$B$S$PE$A:L22UL41UL21$X:L11$S22US41US21$IEEE1$IW$USESV6$~STKCKD$USESV7$~SHL$OSPACE$ROPI$EBA8$MICROLIB$REQ8$PRES8$EABIv2 0x00000000   Number         0  anon$$obj.o ABSOLUTE
    __ARM_use_no_argv                        0x00000000   Number         0  main.o ABSOLUTE
    _printf_a                                0x00000000   Number         0  stubs.o ABSOLUTE
    _printf_c                                0x00000000   Number         0  stubs.o ABSOLUTE
    _printf_charcount                        0x00000000   Number         0  stubs.o ABSOLUTE
    _printf_d                                0x00000000   Number         0  stubs.o ABSOLUTE
    _printf_e                                0x00000000   Number         0  stubs.o ABSOLUTE
    _printf_f                                0x00000000   Number         0  stubs.o ABSOLUTE
    _printf_flags                            0x00000000   Number         0  stubs.o ABSOLUTE
    _printf_fp_dec                           0x00000000   Number         0  stubs.o ABSOLUTE
    _printf_fp_hex                           0x00000000   Number         0  stubs.o ABSOLUTE
    _printf_g                                0x00000000   Number         0  stubs.o ABSOLUTE
    _printf_i                                0x00000000   Number         0  stubs.o ABSOLUTE
    _printf_int_dec                          0x00000000   Number         0  stubs.o ABSOLUTE
    _printf_l                                0x00000000   Number         0  stubs.o ABSOLUTE
    _printf_lc                               0x00000000   Number         0  stubs.o ABSOLUTE
    _printf_ll                               0x00000000   Number         0  stubs.o ABSOLUTE
    _printf_lld                              0x00000000   Number         0  stubs.o ABSOLUTE
    _printf_lli                              0x00000000   Number         0  stubs.o ABSOLUTE
    _printf_llo                              0x00000000   Number         0  stubs.o ABSOLUTE
    _printf_llu                              0x00000000   Number         0  stubs.o ABSOLUTE
    _printf_llx                              0x00000000   Number         0  stubs.o ABSOLUTE
    _printf_longlong_dec                     0x00000000   Number         0  stubs.o ABSOLUTE
    _printf_longlong_hex                     0x00000000   Number         0  stubs.o ABSOLUTE
    _printf_longlong_oct                     0x00000000   Number         0  stubs.o ABSOLUTE
    _printf_ls                               0x00000000   Number         0  stubs.o ABSOLUTE
    _printf_mbtowc                           0x00000000   Number         0  stubs.o ABSOLUTE
    _printf_n                                0x00000000   Number         0  stubs.o ABSOLUTE
    _printf_o                                0x00000000   Number         0  stubs.o ABSOLUTE
    _printf_p                                0x00000000   Number         0  stubs.o ABSOLUTE
    _printf_percent                          0x00000000   Number         0  stubs.o ABSOLUTE
    _printf_pre_padding                      0x00000000   Number         0  stubs.o ABSOLUTE
    _printf_return_value                     0x00000000   Number         0  stubs.o ABSOLUTE
    _printf_s                                0x00000000   Number         0  stubs.o ABSOLUTE
    _printf_sizespec                         0x00000000   Number         0  stubs.o ABSOLUTE
    _printf_str                              0x00000000   Number         0  stubs.o ABSOLUTE
    _printf_truncate_signed                  0x00000000   Number         0  stubs.o ABSOLUTE
    _printf_truncate_unsigned                0x00000000   Number         0  stubs.o ABSOLUTE
    _printf_u                                0x00000000   Number         0  stubs.o ABSOLUTE
    _printf_wc                               0x00000000   Number         0  stubs.o ABSOLUTE
    _printf_wctomb                           0x00000000   Number         0  stubs.o ABSOLUTE
    _printf_widthprec                        0x00000000   Number         0  stubs.o ABSOLUTE
    _printf_x                                0x00000000   Number         0  stubs.o ABSOLUTE
    __cpp_initialize__aeabi_                  - Undefined Weak Reference
    __cxa_finalize                            - Undefined Weak Reference
    _clock_init                               - Undefined Weak Reference
    _microlib_exit                            - Undefined Weak Reference
    _scanf_longlong                           - Undefined Weak Reference
    _scanf_real                               - Undefined Weak Reference
    _scanf_string                             - Undefined Weak Reference
    __Vectors_Size                           0x000000ec   Number         0  startup_stm32f10x_md.o ABSOLUTE
    __Vectors                                0x08000000   Data           4  startup_stm32f10x_md.o(RESET)
    __Vectors_End                            0x080000ec   Data           0  startup_stm32f10x_md.o(RESET)
    __main                                   0x080000ed   Thumb Code     0  entry.o(.ARM.Collect$$$$00000000)
    _main_stk                                0x080000ed   Thumb Code     0  entry2.o(.ARM.Collect$$$$00000001)
    _main_scatterload                        0x080000f1   Thumb Code     0  entry5.o(.ARM.Collect$$$$00000004)
    __main_after_scatterload                 0x080000f5   Thumb Code     0  entry5.o(.ARM.Collect$$$$00000004)
    _main_clock                              0x080000f5   Thumb Code     0  entry7b.o(.ARM.Collect$$$$00000008)
    _main_cpp_init                           0x080000f5   Thumb Code     0  entry8b.o(.ARM.Collect$$$$0000000A)
    _main_init                               0x080000f5   Thumb Code     0  entry9a.o(.ARM.Collect$$$$0000000B)
    __rt_final_cpp                           0x080000fd   Thumb Code     0  entry10a.o(.ARM.Collect$$$$0000000D)
    __rt_final_exit                          0x080000fd   Thumb Code     0  entry11a.o(.ARM.Collect$$$$0000000F)
    Reset_Handler                            0x08000101   Thumb Code     8  startup_stm32f10x_md.o(.text)
    ADC1_2_IRQHandler                        0x0800011b   Thumb Code     0  startup_stm32f10x_md.o(.text)
    CAN1_RX1_IRQHandler                      0x0800011b   Thumb Code     0  startup_stm32f10x_md.o(.text)
    CAN1_SCE_IRQHandler                      0x0800011b   Thumb Code     0  startup_stm32f10x_md.o(.text)
    DMA1_Channel1_IRQHandler                 0x0800011b   Thumb Code     0  startup_stm32f10x_md.o(.text)
    DMA1_Channel2_IRQHandler                 0x0800011b   Thumb Code     0  startup_stm32f10x_md.o(.text)
    DMA1_Channel3_IRQHandler                 0x0800011b   Thumb Code     0  startup_stm32f10x_md.o(.text)
    DMA1_Channel4_IRQHandler                 0x0800011b   Thumb Code     0  startup_stm32f10x_md.o(.text)
    DMA1_Channel5_IRQHandler                 0x0800011b   Thumb Code     0  startup_stm32f10x_md.o(.text)
    DMA1_Channel7_IRQHandler                 0x0800011b   Thumb Code     0  startup_stm32f10x_md.o(.text)
    EXTI0_IRQHandler                         0x0800011b   Thumb Code     0  startup_stm32f10x_md.o(.text)
    EXTI15_10_IRQHandler                     0x0800011b   Thumb Code     0  startup_stm32f10x_md.o(.text)
    EXTI1_IRQHandler                         0x0800011b   Thumb Code     0  startup_stm32f10x_md.o(.text)
    EXTI2_IRQHandler                         0x0800011b   Thumb Code     0  startup_stm32f10x_md.o(.text)
    EXTI3_IRQHandler                         0x0800011b   Thumb Code     0  startup_stm32f10x_md.o(.text)
    EXTI4_IRQHandler                         0x0800011b   Thumb Code     0  startup_stm32f10x_md.o(.text)
    EXTI9_5_IRQHandler                       0x0800011b   Thumb Code     0  startup_stm32f10x_md.o(.text)
    FLASH_IRQHandler                         0x0800011b   Thumb Code     0  startup_stm32f10x_md.o(.text)
    I2C1_ER_IRQHandler                       0x0800011b   Thumb Code     0  startup_stm32f10x_md.o(.text)
    I2C1_EV_IRQHandler                       0x0800011b   Thumb Code     0  startup_stm32f10x_md.o(.text)
    I2C2_ER_IRQHandler                       0x0800011b   Thumb Code     0  startup_stm32f10x_md.o(.text)
    I2C2_EV_IRQHandler                       0x0800011b   Thumb Code     0  startup_stm32f10x_md.o(.text)
    PVD_IRQHandler                           0x0800011b   Thumb Code     0  startup_stm32f10x_md.o(.text)
    RCC_IRQHandler                           0x0800011b   Thumb Code     0  startup_stm32f10x_md.o(.text)
    RTCAlarm_IRQHandler                      0x0800011b   Thumb Code     0  startup_stm32f10x_md.o(.text)
    SPI1_IRQHandler                          0x0800011b   Thumb Code     0  startup_stm32f10x_md.o(.text)
    SPI2_IRQHandler                          0x0800011b   Thumb Code     0  startup_stm32f10x_md.o(.text)
    TAMPER_IRQHandler                        0x0800011b   Thumb Code     0  startup_stm32f10x_md.o(.text)
    TIM1_BRK_IRQHandler                      0x0800011b   Thumb Code     0  startup_stm32f10x_md.o(.text)
    TIM1_CC_IRQHandler                       0x0800011b   Thumb Code     0  startup_stm32f10x_md.o(.text)
    TIM1_TRG_COM_IRQHandler                  0x0800011b   Thumb Code     0  startup_stm32f10x_md.o(.text)
    TIM1_UP_IRQHandler                       0x0800011b   Thumb Code     0  startup_stm32f10x_md.o(.text)
    TIM4_IRQHandler                          0x0800011b   Thumb Code     0  startup_stm32f10x_md.o(.text)
    USART2_IRQHandler                        0x0800011b   Thumb Code     0  startup_stm32f10x_md.o(.text)
    USART3_IRQHandler                        0x0800011b   Thumb Code     0  startup_stm32f10x_md.o(.text)
    USBWakeUp_IRQHandler                     0x0800011b   Thumb Code     0  startup_stm32f10x_md.o(.text)
    USB_HP_CAN1_TX_IRQHandler                0x0800011b   Thumb Code     0  startup_stm32f10x_md.o(.text)
    USB_LP_CAN1_RX0_IRQHandler               0x0800011b   Thumb Code     0  startup_stm32f10x_md.o(.text)
    WWDG_IRQHandler                          0x0800011b   Thumb Code     0  startup_stm32f10x_md.o(.text)
    rt_hw_interrupt_disable                  0x08000125   Thumb Code     8  context_rvds.o(.text)
    rt_hw_interrupt_enable                   0x0800012d   Thumb Code     6  context_rvds.o(.text)
    rt_hw_context_switch_to                  0x08000133   Thumb Code    48  context_rvds.o(.text)
    rt_hw_context_switch                     0x08000163   Thumb Code    32  context_rvds.o(.text)
    PendSV_Handler                           0x08000183   Thumb Code    60  context_rvds.o(.text)
    rand                                     0x080001d5   Thumb Code    20  rand.o(.text)
    srand                                    0x080001e9   Thumb Code     6  rand.o(.text)
    __aeabi_memcpy                           0x080001f9   Thumb Code    36  memcpya.o(.text)
    __aeabi_memcpy4                          0x080001f9   Thumb Code     0  memcpya.o(.text)
    __aeabi_memcpy8                          0x080001f9   Thumb Code     0  memcpya.o(.text)
    strcmp                                   0x0800021d   Thumb Code    28  strcmp.o(.text)
    __aeabi_uidiv                            0x08000239   Thumb Code     0  uidiv.o(.text)
    __aeabi_uidivmod                         0x08000239   Thumb Code    44  uidiv.o(.text)
    __scatterload                            0x08000265   Thumb Code    28  init.o(.text)
    __scatterload_rt2                        0x08000265   Thumb Code     0  init.o(.text)
    __decompress                             0x08000289   Thumb Code     0  __dczerorl2.o(.text)
    __decompress1                            0x08000289   Thumb Code    86  __dczerorl2.o(.text)
    ADDBeepDevice                            0x080002df   Thumb Code     8  beep_system.o(i.ADDBeepDevice)
    ADDDisplayDevice                         0x080002e7   Thumb Code     8  display_system.o(i.ADDDisplayDevice)
    ADDFontLib                               0x080002ef   Thumb Code     8  fontlib_system.o(i.ADDFontLib)
    ADDI2CDevice                             0x080002f7   Thumb Code     8  i2c_system.o(i.ADDI2CDevice)
    ASCIIGetFontBitMap                       0x08000301   Thumb Code    78  ascii_fontlib.o(i.ASCIIGetFontBitMap)
    ASCIIGetFontSize                         0x08000355   Thumb Code    14  ascii_fontlib.o(i.ASCIIGetFontSize)
    AddBeepDeviceBeep                        0x08000365   Thumb Code    18  beep.o(i.AddBeepDeviceBeep)
    AddButtonDevice                          0x08000385   Thumb Code    12  button_system.o(i.AddButtonDevice)
    AddButtonDeviceKEY                       0x08000391   Thumb Code    28  button.o(i.AddButtonDeviceKEY)
    AddButtonInputDevice                     0x080003d1   Thumb Code    10  button_input.o(i.AddButtonInputDevice)
    AddDisplayDeviceOLED                     0x080003e1   Thumb Code    12  oled.o(i.AddDisplayDeviceOLED)
    AddFontLibASCII                          0x080003f9   Thumb Code    12  ascii_fontlib.o(i.AddFontLibASCII)
    AddI2CDeviceI2C1                         0x08000411   Thumb Code    12  i2c.o(i.AddI2CDeviceI2C1)
    AddInputDevice                           0x08000429   Thumb Code     8  input_system.o(i.AddInputDevice)
    AddLedDevice                             0x08000431   Thumb Code     8  led_system.o(i.AddLedDevice)
    AddLedDeviceToManager                    0x08000439   Thumb Code    20  led.o(i.AddLedDeviceToManager)
    AddOptionToManager                       0x08000461   Thumb Code    76  option.o(i.AddOptionToManager)
    AddRole                                  0x08000525   Thumb Code    12  role_system.o(i.AddRole)
    AddRoleToManager                         0x08000531   Thumb Code    40  role.o(i.AddRoleToManager)
    BKP_DeInit                               0x08000571   Thumb Code    16  stm32f10x_bkp.o(i.BKP_DeInit)
    BeepDeviceRegister                       0x080005b9   Thumb Code    42  beep_device.o(i.BeepDeviceRegister)
    BeepSongDecodeInit                       0x080006e1   Thumb Code    20  decode.o(i.BeepSongDecodeInit)
    BeepSongGetData                          0x0800070d   Thumb Code    42  decode.o(i.BeepSongGetData)
    BoradInit                                0x080007a1   Thumb Code    68  main.o(i.BoradInit)
    BusFault_Handler                         0x080007e5   Thumb Code     4  stm32f10x_it.o(i.BusFault_Handler)
    ButtonRegister                           0x08000861   Thumb Code    48  button_device.o(i.ButtonRegister)
    CAL_BeepDevicePWMCfg                     0x0800089d   Thumb Code    20  cal_beep.o(i.CAL_BeepDevicePWMCfg)
    CAL_BeepDevicePWMOff                     0x080008b1   Thumb Code    12  cal_beep.o(i.CAL_BeepDevicePWMOff)
    CAL_BeepDevicePWMOn                      0x080008bd   Thumb Code    12  cal_beep.o(i.CAL_BeepDevicePWMOn)
    CAL_GPIOButtonInit                       0x080008c9   Thumb Code    12  cal_button.o(i.CAL_GPIOButtonInit)
    CAL_GPIOI2CDevInit                       0x080008d5   Thumb Code    16  cal_i2c.o(i.CAL_GPIOI2CDevInit)
    CAL_GPIOLedDevControl                    0x080008e5   Thumb Code    18  cal_led.o(i.CAL_GPIOLedDevControl)
    CAL_GPIOLedDevInit                       0x080008f7   Thumb Code    14  cal_led.o(i.CAL_GPIOLedDevInit)
    CAL_HardwareBeepDevInit                  0x08000905   Thumb Code    14  cal_beep.o(i.CAL_HardwareBeepDevInit)
    CAL_I2CDMACfg                            0x08000913   Thumb Code    16  cal_i2c.o(i.CAL_I2CDMACfg)
    CAL_I2CDMAEnable                         0x08000923   Thumb Code    12  cal_i2c.o(i.CAL_I2CDMAEnable)
    CAL_TimerInit                            0x0800092f   Thumb Code     8  cal_timer.o(i.CAL_TimerInit)
    ClearGraphInDisplayDev                   0x08000971   Thumb Code    48  show_graph.o(i.ClearGraphInDisplayDev)
    ClearInDisplayDev                        0x080009a5   Thumb Code    72  show_graph.o(i.ClearInDisplayDev)
    CoreProcss                               0x08000a25   Thumb Code   128  message_manager.o(i.CoreProcss)
    DHT11Init                                0x08000af1   Thumb Code    12  dht11_device.o(i.DHT11Init)
    DHT11ReceiveData                         0x08000b91   Thumb Code    84  dht11_device.o(i.DHT11ReceiveData)
    DMA1_Channel6_IRQHandler                 0x08000c31   Thumb Code    36  oled_command.o(i.DMA1_Channel6_IRQHandler)
    DMA_ClearFlag                            0x08000c5d   Thumb Code    18  stm32f10x_dma.o(i.DMA_ClearFlag)
    DMA_Cmd                                  0x08000c79   Thumb Code    24  stm32f10x_dma.o(i.DMA_Cmd)
    DMA_DeInit                               0x08000c91   Thumb Code   324  stm32f10x_dma.o(i.DMA_DeInit)
    DMA_GetFlagStatus                        0x08000ddd   Thumb Code    36  stm32f10x_dma.o(i.DMA_GetFlagStatus)
    DMA_ITConfig                             0x08000e09   Thumb Code    18  stm32f10x_dma.o(i.DMA_ITConfig)
    DMA_Init                                 0x08000e1b   Thumb Code    60  stm32f10x_dma.o(i.DMA_Init)
    DMA_SetCurrDataCounter                   0x08000e57   Thumb Code     4  stm32f10x_dma.o(i.DMA_SetCurrDataCounter)
    DebugMon_Handler                         0x08000e5b   Thumb Code     2  stm32f10x_it.o(i.DebugMon_Handler)
    DefaultDinosaurCollisionJUDGE            0x08000e71   Thumb Code    18  role_system.o(i.DefaultDinosaurCollisionJUDGE)
    DefaultDinosaurJUMP                      0x08000e89   Thumb Code    18  role_system.o(i.DefaultDinosaurJUMP)
    DefaultGameControl                       0x08000ea1   Thumb Code    48  game_system.o(i.DefaultGameControl)
    DefaultPlayerControl                     0x08000ed5   Thumb Code   116  player_system.o(i.DefaultPlayerControl)
    Delay_10us                               0x08000f4d   Thumb Code    36  drive_delay.o(i.Delay_10us)
    Delay_ms                                 0x08000f79   Thumb Code    22  drive_delay.o(i.Delay_ms)
    DisplayDevInit                           0x08000f91   Thumb Code   402  displaydev_init.o(i.DisplayDevInit)
    DisplayDevTimerFlushControl              0x080011b5   Thumb Code    20  display_device.o(i.DisplayDevTimerFlushControl)
    DisplayDeviceRegister                    0x080011cd   Thumb Code    36  display_device.o(i.DisplayDeviceRegister)
    EncodeStr                                0x08001281   Thumb Code     6  encode_str.o(i.EncodeStr)
    FontLibRegister                          0x0800129d   Thumb Code    24  fontlib_manager.o(i.FontLibRegister)
    GAMEInfoOptionChooseFUN                  0x080012b9   Thumb Code    76  option.o(i.GAMEInfoOptionChooseFUN)
    GAMEInfoOptionEnterFUN                   0x08001325   Thumb Code    24  option.o(i.GAMEInfoOptionEnterFUN)
    GAMESetOptionChooseFUN                   0x0800134d   Thumb Code    76  option.o(i.GAMESetOptionChooseFUN)
    GAMESetOptionEnterFUN                    0x080013b9   Thumb Code    24  option.o(i.GAMESetOptionEnterFUN)
    GAMEStartOptionChooseFUN                 0x080013e1   Thumb Code   144  option.o(i.GAMEStartOptionChooseFUN)
    GAMEStartOptionEnterFUN                  0x08001499   Thumb Code    24  option.o(i.GAMEStartOptionEnterFUN)
    GPIO_Init                                0x080014c9   Thumb Code   278  stm32f10x_gpio.o(i.GPIO_Init)
    GPIO_ReadInputDataBit                    0x080015df   Thumb Code    18  stm32f10x_gpio.o(i.GPIO_ReadInputDataBit)
    GPIO_WriteBit                            0x080015f1   Thumb Code    10  stm32f10x_gpio.o(i.GPIO_WriteBit)
    GameChooseFUN                            0x080015fd   Thumb Code   172  option.o(i.GameChooseFUN)
    GameEnterFUN                             0x080016d1   Thumb Code    12  option.o(i.GameEnterFUN)
    GameRunning                              0x08001789   Thumb Code    46  game_system.o(i.GameRunning)
    GameShow                                 0x0800182d   Thumb Code    48  game_system.o(i.GameShow)
    GameStop                                 0x08001865   Thumb Code    76  game_system.o(i.GameStop)
    GameThreadEntry                          0x08001925   Thumb Code   134  game_system.o(i.GameThreadEntry)
    GameThreadInit                           0x080019c9   Thumb Code    16  game_system.o(i.GameThreadInit)
    GetBeepDevice                            0x08001a59   Thumb Code    12  beep_system.o(i.GetBeepDevice)
    GetBeepSongLen                           0x08001a65   Thumb Code    28  decode.o(i.GetBeepSongLen)
    GetBeepSongName                          0x08001a81   Thumb Code    22  decode.o(i.GetBeepSongName)
    GetDisplayDevice                         0x08001a97   Thumb Code    12  display_system.o(i.GetDisplayDevice)
    GetFontBitMap                            0x08001af1   Thumb Code    20  fontlib_system.o(i.GetFontBitMap)
    GetFontLib                               0x08001b09   Thumb Code    12  fontlib_system.o(i.GetFontLib)
    GetGame                                  0x08001b15   Thumb Code     8  game_system.o(i.GetGame)
    GetI2CDevice                             0x08001bfd   Thumb Code    12  i2c_system.o(i.GetI2CDevice)
    GetInputBuffer                           0x08001c09   Thumb Code    90  input_buffer.o(i.GetInputBuffer)
    GetLedDevice                             0x08001c69   Thumb Code    12  led_system.o(i.GetLedDevice)
    GetNodeFirstChild                        0x08001cf5   Thumb Code    22  node_manager.o(i.GetNodeFirstChild)
    GetNodeParent                            0x08001d11   Thumb Code    22  node_manager.o(i.GetNodeParent)
    GetNodeRightSibling                      0x08001d2d   Thumb Code    22  node_manager.o(i.GetNodeRightSibling)
    GetNormalTime                            0x08001d49   Thumb Code   212  convert.o(i.GetNormalTime)
    GetUnixTime                              0x08001e5d   Thumb Code   120  convert.o(i.GetUnixTime)
    HandlerMenuMsg                           0x08001ed9   Thumb Code    36  logic_control.o(i.HandlerMenuMsg)
    HandlerPlayerMsg                         0x08001f05   Thumb Code    18  logic_control.o(i.HandlerPlayerMsg)
    HandlerRTCMsg                            0x08001f41   Thumb Code   234  logic_control.o(i.HandlerRTCMsg)
    HardFault_Handler                        0x08002041   Thumb Code     4  stm32f10x_it.o(i.HardFault_Handler)
    HomeChooseFUN                            0x08002045   Thumb Code   118  option.o(i.HomeChooseFUN)
    HomeEnterFUN                             0x080020e1   Thumb Code    12  option.o(i.HomeEnterFUN)
    I2CDeviceRegister                        0x0800212d   Thumb Code    34  i2c_device.o(i.I2CDeviceRegister)
    I2C_CheckEvent                           0x08002155   Thumb Code    42  stm32f10x_i2c.o(i.I2C_CheckEvent)
    I2C_Cmd                                  0x0800217f   Thumb Code    24  stm32f10x_i2c.o(i.I2C_Cmd)
    I2C_DMACmd                               0x08002197   Thumb Code    24  stm32f10x_i2c.o(i.I2C_DMACmd)
    I2C_GenerateSTART                        0x080021af   Thumb Code    24  stm32f10x_i2c.o(i.I2C_GenerateSTART)
    I2C_GenerateSTOP                         0x080021c7   Thumb Code    24  stm32f10x_i2c.o(i.I2C_GenerateSTOP)
    I2C_GetFlagStatus                        0x080021df   Thumb Code    58  stm32f10x_i2c.o(i.I2C_GetFlagStatus)
    I2C_Init                                 0x08002219   Thumb Code   222  stm32f10x_i2c.o(i.I2C_Init)
    I2C_Send7bitAddress                      0x08002305   Thumb Code    18  stm32f10x_i2c.o(i.I2C_Send7bitAddress)
    I2C_SendData                             0x08002317   Thumb Code     4  stm32f10x_i2c.o(i.I2C_SendData)
    IndicateLedClose                         0x0800231d   Thumb Code    28  role_manager.o(i.IndicateLedClose)
    IndicateLedOpen                          0x08002345   Thumb Code    28  role_manager.o(i.IndicateLedOpen)
    InfoChooseFUN                            0x0800236d   Thumb Code    38  option.o(i.InfoChooseFUN)
    InfoEnterFUN                             0x0800239d   Thumb Code    24  option.o(i.InfoEnterFUN)
    InitInputDevice                          0x080023c1   Thumb Code     8  input_system.o(i.InitInputDevice)
    InitMenuOption                           0x080023c9   Thumb Code    18  option_manager.o(i.InitMenuOption)
    InputDeviceRegister                      0x080023e9   Thumb Code    12  input_device.o(i.InputDeviceRegister)
    KAL_BeepDevicePWMCfg                     0x080023f9   Thumb Code    28  kal_beep.o(i.KAL_BeepDevicePWMCfg)
    KAL_BeepDevicePWMOff                     0x08002419   Thumb Code    12  kal_beep.o(i.KAL_BeepDevicePWMOff)
    KAL_BeepDevicePWMOn                      0x08002425   Thumb Code    12  kal_beep.o(i.KAL_BeepDevicePWMOn)
    KAL_GPIOButtonInit                       0x08002431   Thumb Code    12  kal_button.o(i.KAL_GPIOButtonInit)
    KAL_GPIOI2CDevInit                       0x0800243d   Thumb Code    12  kal_i2c.o(i.KAL_GPIOI2CDevInit)
    KAL_GPIOLedDevControl                    0x08002449   Thumb Code    16  kal_led.o(i.KAL_GPIOLedDevControl)
    KAL_GPIOLedDevInit                       0x08002459   Thumb Code    12  kal_led.o(i.KAL_GPIOLedDevInit)
    KAL_HardwareBeepDevInit                  0x08002465   Thumb Code    12  kal_beep.o(i.KAL_HardwareBeepDevInit)
    KAL_I2CDMACfg                            0x08002471   Thumb Code    12  kal_i2c.o(i.KAL_I2CDMACfg)
    KAL_I2CDMAEnable                         0x0800247d   Thumb Code    12  kal_i2c.o(i.KAL_I2CDMAEnable)
    KAL_TimerInit                            0x08002489   Thumb Code     8  kal_timer.o(i.KAL_TimerInit)
    LedDeviceRegister                        0x080024ad   Thumb Code    34  led_device.o(i.LedDeviceRegister)
    LogicThreadEntry                         0x080024d5   Thumb Code   364  logic_control.o(i.LogicThreadEntry)
    LogicThreadInit                          0x080026e1   Thumb Code    46  logic_control.o(i.LogicThreadInit)
    MemManage_Handler                        0x08002765   Thumb Code     4  stm32f10x_it.o(i.MemManage_Handler)
    MenuPublish                              0x080027c9   Thumb Code    12  option_manager.o(i.MenuPublish)
    MenuThreadEntry                          0x08002895   Thumb Code    66  option_manager.o(i.MenuThreadEntry)
    MenuThreadInit                           0x08002901   Thumb Code    16  option_manager.o(i.MenuThreadInit)
    NMI_Handler                              0x08002931   Thumb Code     2  stm32f10x_it.o(i.NMI_Handler)
    NVIC_Init                                0x0800295d   Thumb Code   100  misc.o(i.NVIC_Init)
    NVIC_PriorityGroupConfig                 0x080029cd   Thumb Code    10  misc.o(i.NVIC_PriorityGroupConfig)
    NodeRegisterToTREE                       0x080029e1   Thumb Code    20  node_manager.o(i.NodeRegisterToTREE)
    OLEDCommandSend                          0x08002a85   Thumb Code    14  oled_command.o(i.OLEDCommandSend)
    OLEDDataSend                             0x08002a93   Thumb Code    14  oled_command.o(i.OLEDDataSend)
    OptionControl                            0x08002b61   Thumb Code    52  option_manager.o(i.OptionControl)
    OptionRegister                           0x08002b99   Thumb Code    34  option_manager.o(i.OptionRegister)
    PWR_BackupAccessCmd                      0x08002bc1   Thumb Code     6  stm32f10x_pwr.o(i.PWR_BackupAccessCmd)
    PlayerAddSong                            0x08002bcd   Thumb Code    32  player_system.o(i.PlayerAddSong)
    PlayerChooseFUN                          0x08002bed   Thumb Code   172  option.o(i.PlayerChooseFUN)
    PlayerControl                            0x08002cc1   Thumb Code    90  player_system.o(i.PlayerControl)
    PlayerEnterFUN                           0x08002d1d   Thumb Code    66  option.o(i.PlayerEnterFUN)
    PlayerInit                               0x08002e11   Thumb Code   114  player.o(i.PlayerInit)
    PlayerLast                               0x08002ec5   Thumb Code    66  player_system.o(i.PlayerLast)
    PlayerNext                               0x08002f07   Thumb Code    68  player_system.o(i.PlayerNext)
    PlayerPlay                               0x08002f4b   Thumb Code    14  player_system.o(i.PlayerPlay)
    PlayerPublish                            0x08002f59   Thumb Code    12  player_system.o(i.PlayerPublish)
    PlayerShow                               0x08003041   Thumb Code   134  player_system.o(i.PlayerShow)
    PlayerStart                              0x0800314d   Thumb Code   100  player_system.o(i.PlayerStart)
    PlayerStop                               0x080031b5   Thumb Code    16  player_system.o(i.PlayerStop)
    PlayerThreadEntry                        0x08003249   Thumb Code   190  player_system.o(i.PlayerThreadEntry)
    PlayerThreadInit                         0x08003339   Thumb Code    24  player_system.o(i.PlayerThreadInit)
    PutInputBuffer                           0x0800337d   Thumb Code    78  input_buffer.o(i.PutInputBuffer)
    RCC_AHBPeriphClockCmd                    0x080033d1   Thumb Code    26  stm32f10x_rcc.o(i.RCC_AHBPeriphClockCmd)
    RCC_APB1PeriphClockCmd                   0x080033f1   Thumb Code    26  stm32f10x_rcc.o(i.RCC_APB1PeriphClockCmd)
    RCC_APB2PeriphClockCmd                   0x08003411   Thumb Code    26  stm32f10x_rcc.o(i.RCC_APB2PeriphClockCmd)
    RCC_BackupResetCmd                       0x08003431   Thumb Code     6  stm32f10x_rcc.o(i.RCC_BackupResetCmd)
    RCC_GetClocksFreq                        0x0800343d   Thumb Code   192  stm32f10x_rcc.o(i.RCC_GetClocksFreq)
    RCC_GetFlagStatus                        0x08003511   Thumb Code    56  stm32f10x_rcc.o(i.RCC_GetFlagStatus)
    RCC_LSICmd                               0x0800354d   Thumb Code     6  stm32f10x_rcc.o(i.RCC_LSICmd)
    RCC_RTCCLKCmd                            0x08003559   Thumb Code     6  stm32f10x_rcc.o(i.RCC_RTCCLKCmd)
    RCC_RTCCLKConfig                         0x08003565   Thumb Code    12  stm32f10x_rcc.o(i.RCC_RTCCLKConfig)
    RTCInit                                  0x08003575   Thumb Code    36  rtc_system.o(i.RTCInit)
    RTCNormalTime                            0x0800359d   Thumb Code    20  rtc_device.o(i.RTCNormalTime)
    RTCPublish                               0x080035b1   Thumb Code    12  rtc_system.o(i.RTCPublish)
    RTCThreadInit                            0x080035bd   Thumb Code    16  rtc_system.o(i.RTCThreadInit)
    RTCTimeStamp                             0x080035ed   Thumb Code    30  rtc_device.o(i.RTCTimeStamp)
    RTC_ClearITPendingBit                    0x0800360d   Thumb Code    12  stm32f10x_rtc.o(i.RTC_ClearITPendingBit)
    RTC_EnterConfigMode                      0x0800361d   Thumb Code    14  stm32f10x_rtc.o(i.RTC_EnterConfigMode)
    RTC_ExitConfigMode                       0x08003631   Thumb Code    16  stm32f10x_rtc.o(i.RTC_ExitConfigMode)
    RTC_GetCounter                           0x08003645   Thumb Code    16  stm32f10x_rtc.o(i.RTC_GetCounter)
    RTC_GetITStatus                          0x08003659   Thumb Code    32  stm32f10x_rtc.o(i.RTC_GetITStatus)
    RTC_IRQHandler                           0x0800367d   Thumb Code    36  rtc_system.o(i.RTC_IRQHandler)
    RTC_ITConfig                             0x080036ad   Thumb Code    26  stm32f10x_rtc.o(i.RTC_ITConfig)
    RTC_SetCounter                           0x080036cd   Thumb Code    24  stm32f10x_rtc.o(i.RTC_SetCounter)
    RTC_SetPrescaler                         0x080036e9   Thumb Code    26  stm32f10x_rtc.o(i.RTC_SetPrescaler)
    RTC_WaitForLastTask                      0x08003709   Thumb Code    16  stm32f10x_rtc.o(i.RTC_WaitForLastTask)
    RTC_WaitForSynchro                       0x0800371d   Thumb Code    30  stm32f10x_rtc.o(i.RTC_WaitForSynchro)
    RecoverSpeedIndex                        0x08003741   Thumb Code     8  role_system.o(i.RecoverSpeedIndex)
    RegisterMessage                          0x0800374d   Thumb Code   112  message_manager.o(i.RegisterMessage)
    RegisterSubscriber                       0x08003811   Thumb Code   128  message_manager.o(i.RegisterSubscriber)
    RoleRegister                             0x08003909   Thumb Code    60  role_manager.o(i.RoleRegister)
    RtcNvicConfig                            0x08003961   Thumb Code    32  drive_rtc.o(i.RtcNvicConfig)
    RtcNvicInit                              0x08003981   Thumb Code     8  rtc_device.o(i.RtcNvicInit)
    RtcPeripheralConfig                      0x08003989   Thumb Code    96  drive_rtc.o(i.RtcPeripheralConfig)
    STD_BeepDevicePWMCfg                     0x080039fd   Thumb Code   106  drive_pwm.o(i.STD_BeepDevicePWMCfg)
    STD_BeepDevicePWMOff                     0x08003a67   Thumb Code    18  drive_pwm.o(i.STD_BeepDevicePWMOff)
    STD_DHT11GpioConfigure                   0x08003a79   Thumb Code    42  drive_gpio.o(i.STD_DHT11GpioConfigure)
    STD_GPIOBeepDevConfig                    0x08003aa3   Thumb Code    42  drive_pwm.o(i.STD_GPIOBeepDevConfig)
    STD_GPIOButtonConfig                     0x08003acd   Thumb Code    38  drive_gpio.o(i.STD_GPIOButtonConfig)
    STD_GPIOI2CDevConfig                     0x08003af9   Thumb Code   114  drive_i2c.o(i.STD_GPIOI2CDevConfig)
    STD_GPIOLedDevConfig                     0x08003b75   Thumb Code    42  drive_gpio.o(i.STD_GPIOLedDevConfig)
    STD_GPIOLedDevControl                    0x08003b9f   Thumb Code    34  drive_gpio.o(i.STD_GPIOLedDevControl)
    STD_I2CDMACfg                            0x08003bc1   Thumb Code   112  drive_i2c.o(i.STD_I2CDMACfg)
    STD_I2CDMAEnable                         0x08003c31   Thumb Code    32  drive_i2c.o(i.STD_I2CDMAEnable)
    STD_Timer3Config                         0x08003c51   Thumb Code    96  drive_timer.o(i.STD_Timer3Config)
    STD_TimerConfig                          0x08003cb5   Thumb Code   104  drive_timer.o(i.STD_TimerConfig)
    SVC_Handler                              0x08003d1d   Thumb Code     2  stm32f10x_it.o(i.SVC_Handler)
    SetButtonInputDeviceCallBack             0x08003d21   Thumb Code     6  button.o(i.SetButtonInputDeviceCallBack)
    SetChooseFUN                             0x08003d2d   Thumb Code    38  option.o(i.SetChooseFUN)
    SetDefaultDisplayDev                     0x08003d5d   Thumb Code    44  display_system.o(i.SetDefaultDisplayDev)
    SetDefaultFontLib                        0x08003ddd   Thumb Code    38  fontlib_system.o(i.SetDefaultFontLib)
    SetEnterFUN                              0x08003e81   Thumb Code    24  option.o(i.SetEnterFUN)
    SetTimerProcessFunction                  0x08003f91   Thumb Code     6  drive_timer.o(i.SetTimerProcessFunction)
    ShowGraphInDisplayDev                    0x08003f9d   Thumb Code    38  show_graph.o(i.ShowGraphInDisplayDev)
    ShowNumberInDisplayDev                   0x08003fc5   Thumb Code    76  show_text.o(i.ShowNumberInDisplayDev)
    ShowTextInDisplayDev                     0x08004015   Thumb Code    74  show_text.o(i.ShowTextInDisplayDev)
    SysTick_Handler                          0x08004071   Thumb Code    10  stm32f10x_it.o(i.SysTick_Handler)
    SystemInit                               0x08004085   Thumb Code    78  system_stm32f10x.o(i.SystemInit)
    TIM2_IRQHandler                          0x080040e5   Thumb Code    46  drive_timer.o(i.TIM2_IRQHandler)
    TIM3_IRQHandler                          0x0800411d   Thumb Code    26  drive_timer.o(i.TIM3_IRQHandler)
    TIM_ClearITPendingBit                    0x0800413d   Thumb Code     6  stm32f10x_tim.o(i.TIM_ClearITPendingBit)
    TIM_Cmd                                  0x08004143   Thumb Code    24  stm32f10x_tim.o(i.TIM_Cmd)
    TIM_GetITStatus                          0x0800415b   Thumb Code    34  stm32f10x_tim.o(i.TIM_GetITStatus)
    TIM_ITConfig                             0x0800417d   Thumb Code    18  stm32f10x_tim.o(i.TIM_ITConfig)
    TIM_OC3Init                              0x08004191   Thumb Code   150  stm32f10x_tim.o(i.TIM_OC3Init)
    TIM_OC3PreloadConfig                     0x08004231   Thumb Code    18  stm32f10x_tim.o(i.TIM_OC3PreloadConfig)
    TIM_TimeBaseInit                         0x08004245   Thumb Code   122  stm32f10x_tim.o(i.TIM_TimeBaseInit)
    TempatureChooseFUN                       0x080042fd   Thumb Code   172  option.o(i.TempatureChooseFUN)
    TempatureEnterFUN                        0x080043d1   Thumb Code   200  option.o(i.TempatureEnterFUN)
    TimerFlushDisplayDev                     0x080044d9   Thumb Code    28  display_system.o(i.TimerFlushDisplayDev)
    TimingDelay_Decrement                    0x080044fd   Thumb Code    18  drive_delay.o(i.TimingDelay_Decrement)
    USART1_IRQHandler                        0x08004515   Thumb Code    20  drive_usart.o(i.USART1_IRQHandler)
    USART_Cmd                                0x08004531   Thumb Code    24  stm32f10x_usart.o(i.USART_Cmd)
    USART_Config                             0x08004549   Thumb Code   136  drive_usart.o(i.USART_Config)
    USART_GetFlagStatus                      0x080045d9   Thumb Code    26  stm32f10x_usart.o(i.USART_GetFlagStatus)
    USART_ITConfig                           0x080045f3   Thumb Code    74  stm32f10x_usart.o(i.USART_ITConfig)
    USART_Init                               0x0800463d   Thumb Code   210  stm32f10x_usart.o(i.USART_Init)
    USART_ReceiveData                        0x08004715   Thumb Code    10  stm32f10x_usart.o(i.USART_ReceiveData)
    USART_SendData                           0x0800471f   Thumb Code     8  stm32f10x_usart.o(i.USART_SendData)
    UsageFault_Handler                       0x08004727   Thumb Code     4  stm32f10x_it.o(i.UsageFault_Handler)
    UsartInit                                0x0800472d   Thumb Code    58  usart_init.o(i.UsartInit)
    Usart_SendByte                           0x080047a5   Thumb Code    30  drive_usart.o(i.Usart_SendByte)
    Usart_SendString                         0x080047c3   Thumb Code    42  drive_usart.o(i.Usart_SendString)
    __0printf$3                              0x080047ed   Thumb Code    22  printf3.o(i.__0printf$3)
    __1printf$3                              0x080047ed   Thumb Code     0  printf3.o(i.__0printf$3)
    __2printf                                0x080047ed   Thumb Code     0  printf3.o(i.__0printf$3)
    __ButtonDevcieManagerInit                0x0800480d   Thumb Code    32  button_device.o(i.__ButtonDevcieManagerInit)
    __DisplayDevTimerFlushControl            0x08004835   Thumb Code    14  display_device.o(i.__DisplayDevTimerFlushControl)
    __GetBeepDevice                          0x08004849   Thumb Code    60  beep_device.o(i.__GetBeepDevice)
    __GetDisplayDevice                       0x080048ad   Thumb Code    44  display_device.o(i.__GetDisplayDevice)
    __GetFontLib                             0x080048dd   Thumb Code    44  fontlib_manager.o(i.__GetFontLib)
    __GetGame                                0x0800490d   Thumb Code    36  game.o(i.__GetGame)
    __GetGameRole                            0x0800493d   Thumb Code    44  role_manager.o(i.__GetGameRole)
    __GetI2CDevice                           0x0800496d   Thumb Code    44  i2c_device.o(i.__GetI2CDevice)
    __GetLedDevice                           0x0800499d   Thumb Code    44  led_device.o(i.__GetLedDevice)
    __GetOption                              0x080049cd   Thumb Code    60  option_manager.o(i.__GetOption)
    __InitInputDevice                        0x08004a31   Thumb Code    20  input_device.o(i.__InitInputDevice)
    __scatterload_copy                       0x08004a49   Thumb Code    14  handlers.o(i.__scatterload_copy)
    __scatterload_null                       0x08004a57   Thumb Code     2  handlers.o(i.__scatterload_null)
    __scatterload_zeroinit                   0x08004a59   Thumb Code    14  handlers.o(i.__scatterload_zeroinit)
    button_cb                                0x08004d1d   Thumb Code    20  button.o(i.button_cb)
    delay                                    0x08004e11   Thumb Code    24  drive_delay.o(i.delay)
    fputc                                    0x08004f15   Thumb Code    18  drive_usart.o(i.fputc)
    main                                     0x08004f9d   Thumb Code   112  main.o(i.main)
    malloc                                   0x08005079   Thumb Code    92  malloc.o(i.malloc)
    my_button_scan                           0x080052a5   Thumb Code   374  button_device.o(i.my_button_scan)
    oled_clear                               0x08005425   Thumb Code    30  oled_command.o(i.oled_clear)
    oled_gram_refresh_dma                    0x08005445   Thumb Code   132  oled_command.o(i.oled_gram_refresh_dma)
    oled_init                                0x080054e1   Thumb Code   232  oled_command.o(i.oled_init)
    oled_setcursor                           0x080055d1   Thumb Code    38  oled_command.o(i.oled_setcursor)
    ring_buffer_init                         0x08005651   Thumb Code    10  ring_buffer.o(i.ring_buffer_init)
    ring_buffer_write                        0x0800565b   Thumb Code    34  ring_buffer.o(i.ring_buffer_write)
    rt_hw_stack_init                         0x0800567d   Thumb Code    58  cpuport.o(i.rt_hw_stack_init)
    rt_schedule                              0x080056bd   Thumb Code    28  scheduler.o(i.rt_schedule)
    rt_system_scheduler_init                 0x080056dd   Thumb Code     8  scheduler.o(i.rt_system_scheduler_init)
    rt_system_scheduler_start                0x080056e9   Thumb Code    18  scheduler.o(i.rt_system_scheduler_start)
    rt_thread_init                           0x08005701   Thumb Code    64  thread.o(i.rt_thread_init)
    ascii_font                               0x080057c4   Data        2048  ascii_fontlib.o(.constdata)
    song1                                    0x0800602c   Data         530  player.o(.constdata)
    song2                                    0x0800623e   Data         530  player.o(.constdata)
    song3                                    0x08006450   Data         530  player.o(.constdata)
    song4                                    0x08006662   Data         530  player.o(.constdata)
    song5                                    0x08006874   Data         530  player.o(.constdata)
    CLOUD                                    0x08006a86   Data          24  graph_data.o(.constdata)
    DINOSAUR                                 0x08006a9e   Data          64  graph_data.o(.constdata)
    GROUND                                   0x08006ade   Data         600  graph_data.o(.constdata)
    GroundImg                                0x08006d36   Data        1024  graph_data.o(.constdata)
    Cactus1                                  0x08007136   Data         128  graph_data.o(.constdata)
    CACTUS_1                                 0x080071b6   Data          16  graph_data.o(.constdata)
    CACTUS_2                                 0x080071c6   Data          32  graph_data.o(.constdata)
    CACTUS_3                                 0x080071e6   Data          48  graph_data.o(.constdata)
    CACTUS_4                                 0x08007216   Data          48  graph_data.o(.constdata)
    RESTART                                  0x08007246   Data          72  graph_data.o(.constdata)
    START                                    0x0800728e   Data        1024  graph_data.o(.constdata)
    HOME                                     0x0800768e   Data         288  graph_data.o(.constdata)
    TEMP                                     0x080077ae   Data         288  graph_data.o(.constdata)
    GAME                                     0x080078ce   Data         288  graph_data.o(.constdata)
    PLAYER                                   0x080079ee   Data         128  graph_data.o(.constdata)
    SETTING                                  0x08007a6e   Data         288  graph_data.o(.constdata)
    INFORMATION                              0x08007b8e   Data         288  graph_data.o(.constdata)
    LEFT                                     0x08007cae   Data          32  graph_data.o(.constdata)
    RIGHT                                    0x08007cce   Data          32  graph_data.o(.constdata)
    SIGNAL                                   0x08007cee   Data          60  graph_data.o(.constdata)
    Region$$Table$$Base                      0x08007d90   Number         0  anon$$obj.o(Region$$Table)
    Region$$Table$$Limit                     0x08007db0   Number         0  anon$$obj.o(Region$$Table)
    g_tMsgRTC                                0x2000004c   Data           8  rtc_system.o(.data)
    g_tPublisherrRTC                         0x20000054   Data           4  rtc_system.o(.data)
    flush_start                              0x2000014c   Data           4  display_device.o(.data)
    g_ptFaultDisplayDev                      0x20000160   Data           4  display_system.o(.data)
    iFPS                                     0x20000164   Data           4  display_system.o(.data)
    OLED_I2C1_DMA_BUSYFLAG                   0x2000016c   Data           4  oled_command.o(.data)
    player_status                            0x200001b8   Data           4  player_system.o(.data)
    g_tMsgPlayer                             0x200001bc   Data           8  player_system.o(.data)
    g_tPublisherPlayer                       0x200001c4   Data           4  player_system.o(.data)
    YES                                      0x200001cc   Data          32  graph_data.o(.data)
    BACK                                     0x200001ec   Data          32  graph_data.o(.data)
    BATTERY                                  0x2000020c   Data          32  graph_data.o(.data)
    BLUETOOTH                                0x2000022c   Data          32  graph_data.o(.data)
    g_tRoleGraphCloud                        0x2000024c   Data          32  role.o(.data)
    g_tGameRoleCloud1                        0x2000026c   Data          44  role.o(.data)
    g_tGameRoleCloud2                        0x20000298   Data          44  role.o(.data)
    g_tRoleGraphGround                       0x200002c4   Data          32  role.o(.data)
    g_tGameRoleGround                        0x200002e4   Data          44  role.o(.data)
    g_tRoleGraphCactus1                      0x20000318   Data          32  role.o(.data)
    g_tRoleGraphCactus2                      0x20000338   Data          32  role.o(.data)
    g_tGameRoleCactus1                       0x20000358   Data          44  role.o(.data)
    g_tGameRoleCactus2                       0x20000384   Data          44  role.o(.data)
    speed_index                              0x200003bc   Data           4  role.o(.data)
    g_tRoleGraphDinosaur                     0x200003c0   Data          32  role.o(.data)
    g_tGameRoleDinosaur                      0x200003e0   Data          44  role.o(.data)
    g_ptIndicateLed                          0x2000040c   Data           4  role_manager.o(.data)
    g_tAggregate                             0x20000410   Data          52  role_manager.o(.data)
    g_tIterator                              0x20000444   Data          16  role_manager.o(.data)
    g_ptDefaultPLAYERRole                    0x20000454   Data           4  role_system.o(.data)
    g_tGraphRESTART                          0x2000045c   Data          32  game_system.o(.data)
    g_tGraphSTART                            0x2000047c   Data          32  game_system.o(.data)
    enter_node_count                         0x200004a0   Data           4  option.o(.data)
    enter_status_count                       0x200004a4   Data           4  option.o(.data)
    g_tMenuGraphSIGNAL                       0x200004a8   Data          32  option.o(.data)
    g_tMenuGraphBLUETOOTH                    0x200004c8   Data          32  option.o(.data)
    g_tMenuGraphBATTERY                      0x200004e8   Data          32  option.o(.data)
    g_tMenuGraphLEFT                         0x20000508   Data          32  option.o(.data)
    g_tMenuGraphRIGHT                        0x20000528   Data          32  option.o(.data)
    g_tMenuGraphHOME                         0x20000548   Data          32  option.o(.data)
    g_tMenuGraphYES                          0x20000568   Data          32  option.o(.data)
    g_tMenuGraphBACK                         0x20000588   Data          32  option.o(.data)
    g_tOptionHOME                            0x200005a8   Data          28  option.o(.data)
    g_tMenuGraphTEMP                         0x200005c4   Data          32  option.o(.data)
    g_tOptionTEMPATURE                       0x200005e4   Data          28  option.o(.data)
    g_tMenuGraphGAME                         0x20000600   Data          32  option.o(.data)
    g_tOptionGAME                            0x20000620   Data          28  option.o(.data)
    g_tMenuGraphPLAYER                       0x2000063c   Data          32  option.o(.data)
    g_tOptionPLAYER                          0x2000065c   Data          28  option.o(.data)
    g_tMenuGraphSETTING                      0x20000678   Data          32  option.o(.data)
    g_tOptionSETTING                         0x20000698   Data          28  option.o(.data)
    g_tMenuGraphINFORMATION                  0x200006b4   Data          32  option.o(.data)
    g_tOptionINFORMATION                     0x200006d4   Data          28  option.o(.data)
    g_tOptionGAMEStart                       0x200006f0   Data          28  option.o(.data)
    g_tOptionGAMESet                         0x2000070c   Data          28  option.o(.data)
    g_tOptionGAMEInfo                        0x20000728   Data          28  option.o(.data)
    current_option                           0x20000754   Data           4  option_manager.o(.data)
    menu_data                                0x20000758   Data           8  option_manager.o(.data)
    g_tMsgMenu                               0x20000760   Data           8  option_manager.o(.data)
    g_tPublisherMenu                         0x20000768   Data           4  option_manager.o(.data)
    iSubscribePlayerStatus                   0x20000770   Data           4  logic_control.o(.data)
    tSubscribeMenuStatus                     0x20000774   Data           8  logic_control.o(.data)
    g_tPlayerElement                         0x2000077c   Data          24  logic_control.o(.data)
    g_tGameElement                           0x20000794   Data          24  logic_control.o(.data)
    g_tMenuElement                           0x200007ac   Data          24  logic_control.o(.data)
    g_tVisitorKEY1ShortPress                 0x200007c4   Data           4  logic_control.o(.data)
    g_tVisitorKEY2ShortPress                 0x200007c8   Data           4  logic_control.o(.data)
    g_tVisitorKEY3ShortPress                 0x200007cc   Data           4  logic_control.o(.data)
    g_tVisitorKEY1LongPress                  0x200007d0   Data           4  logic_control.o(.data)
    g_tVisitorKEY2LongPress                  0x200007d4   Data           4  logic_control.o(.data)
    g_tVisitorKEY3LongPress                  0x200007d8   Data           4  logic_control.o(.data)
    g_tSubcriberPlayerMsg                    0x200007e4   Data          12  logic_control.o(.data)
    g_tSubcriberMenuMsg                      0x200007f4   Data          12  logic_control.o(.data)
    g_tSubcriberRTCMsg                       0x20000800   Data          12  logic_control.o(.data)
    rt_interrupt_from_thread                 0x20000810   Data           4  cpuport.o(.data)
    rt_interrupt_to_thread                   0x20000814   Data           4  cpuport.o(.data)
    rt_thread_switch_interrupt_flag          0x20000818   Data           4  cpuport.o(.data)
    rt_current_thread                        0x2000081c   Data           4  scheduler.o(.data)
    g_ptScheduleThread                       0x20000820   Data           4  scheduler.o(.data)
    g_ptOledDev                              0x20000824   Data           4  displaydev_init.o(.data)
    __stdout                                 0x2000082c   Data           4  stdout.o(.data)
    __microlib_freelist                      0x20000830   Data           4  mvars.o(.data)
    __microlib_freelist_initialised          0x20000834   Data           4  mvars.o(.data)
    g_tLogicThread                           0x20000838   Data          32  main.o(.bss)
    g_tMenuThread                            0x20000858   Data          32  main.o(.bss)
    g_tPlayerThread                          0x20000878   Data          32  main.o(.bss)
    g_tGameThread                            0x20000898   Data          32  main.o(.bss)
    LogicThreadStack                         0x200008b8   Data         512  main.o(.bss)
    MenuThreadStack                          0x20000ab8   Data         512  main.o(.bss)
    PlayerThreadStack                        0x20000cb8   Data         512  main.o(.bss)
    GameThreadStack                          0x20000eb8   Data         512  main.o(.bss)
    usart1_ring_buffer                       0x200010b8   Data        1032  drive_usart.o(.bss)
    g_tGame                                  0x200027bc   Data          20  game.o(.bss)
    __heap_base                              0x200029b8   Data           0  startup_stm32f10x_md.o(HEAP)
    __heap_limit                             0x20002bb8   Data           0  startup_stm32f10x_md.o(HEAP)
    __initial_sp                             0x200037b8   Data           0  startup_stm32f10x_md.o(STACK)



==============================================================================

Memory Map of the image

  Image Entry point : 0x080000ed

  Load Region LR_IROM1 (Base: 0x08000000, Size: 0x000085e8, Max: 0x00010000, ABSOLUTE, COMPRESSED[0x00008094])

    Execution Region ER_IROM1 (Exec base: 0x08000000, Load base: 0x08000000, Size: 0x00007db0, Max: 0x00010000, ABSOLUTE)

    Exec Addr    Load Addr    Size         Type   Attr      Idx    E Section Name        Object

    0x08000000   0x08000000   0x000000ec   Data   RO            3    RESET               startup_stm32f10x_md.o
    0x080000ec   0x080000ec   0x00000000   Code   RO         5921  * .ARM.Collect$$$$00000000  mc_w.l(entry.o)
    0x080000ec   0x080000ec   0x00000004   Code   RO         6226    .ARM.Collect$$$$00000001  mc_w.l(entry2.o)
    0x080000f0   0x080000f0   0x00000004   Code   RO         6229    .ARM.Collect$$$$00000004  mc_w.l(entry5.o)
    0x080000f4   0x080000f4   0x00000000   Code   RO         6231    .ARM.Collect$$$$00000008  mc_w.l(entry7b.o)
    0x080000f4   0x080000f4   0x00000000   Code   RO         6233    .ARM.Collect$$$$0000000A  mc_w.l(entry8b.o)
    0x080000f4   0x080000f4   0x00000008   Code   RO         6234    .ARM.Collect$$$$0000000B  mc_w.l(entry9a.o)
    0x080000fc   0x080000fc   0x00000000   Code   RO         6236    .ARM.Collect$$$$0000000D  mc_w.l(entry10a.o)
    0x080000fc   0x080000fc   0x00000000   Code   RO         6238    .ARM.Collect$$$$0000000F  mc_w.l(entry11a.o)
    0x080000fc   0x080000fc   0x00000004   Code   RO         6227    .ARM.Collect$$$$00002712  mc_w.l(entry2.o)
    0x08000100   0x08000100   0x00000024   Code   RO            4    .text               startup_stm32f10x_md.o
    0x08000124   0x08000124   0x000000b0   Code   RO         5634    .text               context_rvds.o
    0x080001d4   0x080001d4   0x00000024   Code   RO         5924    .text               mc_w.l(rand.o)
    0x080001f8   0x080001f8   0x00000024   Code   RO         5927    .text               mc_w.l(memcpya.o)
    0x0800021c   0x0800021c   0x0000001c   Code   RO         5929    .text               mc_w.l(strcmp.o)
    0x08000238   0x08000238   0x0000002c   Code   RO         6242    .text               mc_w.l(uidiv.o)
    0x08000264   0x08000264   0x00000024   Code   RO         6263    .text               mc_w.l(init.o)
    0x08000288   0x08000288   0x00000056   Code   RO         6295    .text               mc_w.l(__dczerorl2.o)
    0x080002de   0x080002de   0x00000008   Code   RO         4640    i.ADDBeepDevice     beep_system.o
    0x080002e6   0x080002e6   0x00000008   Code   RO         4320    i.ADDDisplayDevice  display_system.o
    0x080002ee   0x080002ee   0x00000008   Code   RO         4496    i.ADDFontLib        fontlib_system.o
    0x080002f6   0x080002f6   0x00000008   Code   RO         4029    i.ADDI2CDevice      i2c_system.o
    0x080002fe   0x080002fe   0x00000002   PAD
    0x08000300   0x08000300   0x00000054   Code   RO         4445    i.ASCIIGetFontBitMap  ascii_fontlib.o
    0x08000354   0x08000354   0x0000000e   Code   RO         4446    i.ASCIIGetFontSize  ascii_fontlib.o
    0x08000362   0x08000362   0x00000002   PAD
    0x08000364   0x08000364   0x00000020   Code   RO         4583    i.AddBeepDeviceBeep  beep.o
    0x08000384   0x08000384   0x0000000c   Code   RO         4133    i.AddButtonDevice   button_system.o
    0x08000390   0x08000390   0x00000040   Code   RO         4050    i.AddButtonDeviceKEY  button.o
    0x080003d0   0x080003d0   0x00000010   Code   RO         4154    i.AddButtonInputDevice  button_input.o
    0x080003e0   0x080003e0   0x00000018   Code   RO         4253    i.AddDisplayDeviceOLED  oled.o
    0x080003f8   0x080003f8   0x00000018   Code   RO         4447    i.AddFontLibASCII   ascii_fontlib.o
    0x08000410   0x08000410   0x00000018   Code   RO         3974    i.AddI2CDeviceI2C1  i2c.o
    0x08000428   0x08000428   0x00000008   Code   RO         4206    i.AddInputDevice    input_system.o
    0x08000430   0x08000430   0x00000008   Code   RO         3920    i.AddLedDevice      led_system.o
    0x08000438   0x08000438   0x00000028   Code   RO         3873    i.AddLedDeviceToManager  led.o
    0x08000460   0x08000460   0x000000c4   Code   RO         5243    i.AddOptionToManager  option.o
    0x08000524   0x08000524   0x0000000c   Code   RO         5088    i.AddRole           role_system.o
    0x08000530   0x08000530   0x00000040   Code   RO         4902    i.AddRoleToManager  role.o
    0x08000570   0x08000570   0x00000010   Code   RO          401    i.BKP_DeInit        stm32f10x_bkp.o
    0x08000580   0x08000580   0x0000000c   Code   RO         4584    i.BeepDeviceInit    beep.o
    0x0800058c   0x0800058c   0x00000014   Code   RO         4585    i.BeepDevicePWMCfg  beep.o
    0x080005a0   0x080005a0   0x0000000c   Code   RO         4586    i.BeepDevicePWMOff  beep.o
    0x080005ac   0x080005ac   0x0000000c   Code   RO         4587    i.BeepDevicePWMOn   beep.o
    0x080005b8   0x080005b8   0x0000004c   Code   RO         4620    i.BeepDeviceRegister  beep_device.o
    0x08000604   0x08000604   0x000000dc   Code   RO         4661    i.BeepSongDecode    decode.o
    0x080006e0   0x080006e0   0x0000002c   Code   RO         4662    i.BeepSongDecodeInit  decode.o
    0x0800070c   0x0800070c   0x0000002a   Code   RO         4663    i.BeepSongGetData   decode.o
    0x08000736   0x08000736   0x00000002   PAD
    0x08000738   0x08000738   0x00000068   Code   RO         4664    i.BeepSongNewFreqTable  decode.o
    0x080007a0   0x080007a0   0x00000044   Code   RO         3108    i.BoradInit         main.o
    0x080007e4   0x080007e4   0x00000004   Code   RO         3221    i.BusFault_Handler  stm32f10x_it.o
    0x080007e8   0x080007e8   0x00000068   Code   RO         4155    i.ButtonInputDeviceCallBack  button_input.o
    0x08000850   0x08000850   0x00000010   Code   RO         4156    i.ButtonInputInit   button_input.o
    0x08000860   0x08000860   0x00000034   Code   RO         4079    i.ButtonRegister    button_device.o
    0x08000894   0x08000894   0x00000008   Code   RO         4080    i.ButtonTimerInit   button_device.o
    0x0800089c   0x0800089c   0x00000014   Code   RO         3609    i.CAL_BeepDevicePWMCfg  cal_beep.o
    0x080008b0   0x080008b0   0x0000000c   Code   RO         3610    i.CAL_BeepDevicePWMOff  cal_beep.o
    0x080008bc   0x080008bc   0x0000000c   Code   RO         3611    i.CAL_BeepDevicePWMOn  cal_beep.o
    0x080008c8   0x080008c8   0x0000000c   Code   RO         3534    i.CAL_GPIOButtonInit  cal_button.o
    0x080008d4   0x080008d4   0x00000010   Code   RO         3582    i.CAL_GPIOI2CDevInit  cal_i2c.o
    0x080008e4   0x080008e4   0x00000012   Code   RO         3561    i.CAL_GPIOLedDevControl  cal_led.o
    0x080008f6   0x080008f6   0x0000000e   Code   RO         3562    i.CAL_GPIOLedDevInit  cal_led.o
    0x08000904   0x08000904   0x0000000e   Code   RO         3612    i.CAL_HardwareBeepDevInit  cal_beep.o
    0x08000912   0x08000912   0x00000010   Code   RO         3583    i.CAL_I2CDMACfg     cal_i2c.o
    0x08000922   0x08000922   0x0000000c   Code   RO         3584    i.CAL_I2CDMAEnable  cal_i2c.o
    0x0800092e   0x0800092e   0x00000008   Code   RO         3549    i.CAL_TimerInit     cal_timer.o
    0x08000936   0x08000936   0x0000003a   Code   RO         4855    i.ClearGraphBitMapOnFrameBuffer  show_graph.o
    0x08000970   0x08000970   0x00000034   Code   RO         4856    i.ClearGraphInDisplayDev  show_graph.o
    0x080009a4   0x080009a4   0x0000004c   Code   RO         4857    i.ClearInDisplayDev  show_graph.o
    0x080009f0   0x080009f0   0x00000034   Code   RO         4081    i.ConstrcutorButtonManage  button_device.o
    0x08000a24   0x08000a24   0x000000cc   Code   RO         5442    i.CoreProcss        message_manager.o
    0x08000af0   0x08000af0   0x00000010   Code   RO         3941    i.DHT11Init         dht11_device.o
    0x08000b00   0x08000b00   0x00000048   Code   RO         3942    i.DHT11ReceiveAck   dht11_device.o
    0x08000b48   0x08000b48   0x00000048   Code   RO         3943    i.DHT11ReceiveByte  dht11_device.o
    0x08000b90   0x08000b90   0x00000070   Code   RO         3944    i.DHT11ReceiveData  dht11_device.o
    0x08000c00   0x08000c00   0x00000030   Code   RO         3945    i.DHT11Start        dht11_device.o
    0x08000c30   0x08000c30   0x0000002c   Code   RO         4362    i.DMA1_Channel6_IRQHandler  oled_command.o
    0x08000c5c   0x08000c5c   0x0000001c   Code   RO          866    i.DMA_ClearFlag     stm32f10x_dma.o
    0x08000c78   0x08000c78   0x00000018   Code   RO          868    i.DMA_Cmd           stm32f10x_dma.o
    0x08000c90   0x08000c90   0x0000014c   Code   RO          869    i.DMA_DeInit        stm32f10x_dma.o
    0x08000ddc   0x08000ddc   0x0000002c   Code   RO          871    i.DMA_GetFlagStatus  stm32f10x_dma.o
    0x08000e08   0x08000e08   0x00000012   Code   RO          873    i.DMA_ITConfig      stm32f10x_dma.o
    0x08000e1a   0x08000e1a   0x0000003c   Code   RO          874    i.DMA_Init          stm32f10x_dma.o
    0x08000e56   0x08000e56   0x00000004   Code   RO          875    i.DMA_SetCurrDataCounter  stm32f10x_dma.o
    0x08000e5a   0x08000e5a   0x00000002   Code   RO         3222    i.DebugMon_Handler  stm32f10x_it.o
    0x08000e5c   0x08000e5c   0x00000014   Code   RO         5026    i.DefaultDinosaurCollisionEXCUTE  role_manager.o
    0x08000e70   0x08000e70   0x00000018   Code   RO         5089    i.DefaultDinosaurCollisionJUDGE  role_system.o
    0x08000e88   0x08000e88   0x00000018   Code   RO         5090    i.DefaultDinosaurJUMP  role_system.o
    0x08000ea0   0x08000ea0   0x00000034   Code   RO         5150    i.DefaultGameControl  game_system.o
    0x08000ed4   0x08000ed4   0x00000078   Code   RO         4767    i.DefaultPlayerControl  player_system.o
    0x08000f4c   0x08000f4c   0x0000002c   Code   RO         3484    i.Delay_10us        drive_delay.o
    0x08000f78   0x08000f78   0x00000016   Code   RO         3485    i.Delay_ms          drive_delay.o
    0x08000f8e   0x08000f8e   0x00000002   PAD
    0x08000f90   0x08000f90   0x00000224   Code   RO         5711    i.DisplayDevInit    displaydev_init.o
    0x080011b4   0x080011b4   0x00000018   Code   RO         4287    i.DisplayDevTimerFlushControl  display_device.o
    0x080011cc   0x080011cc   0x00000028   Code   RO         4288    i.DisplayDeviceRegister  display_device.o
    0x080011f4   0x080011f4   0x00000046   Code   RO         4531    i.DrawBitMapOnFrameBuffer  show_text.o
    0x0800123a   0x0800123a   0x00000046   Code   RO         4858    i.DrawGraphBitMapOnFrameBuffer  show_graph.o
    0x08001280   0x08001280   0x00000006   Code   RO         4571    i.EncodeStr         encode_str.o
    0x08001286   0x08001286   0x0000000a   Code   RO         5468    i.FKLPVisit         logic_control.o
    0x08001290   0x08001290   0x0000000a   Code   RO         5469    i.FKSPVisit         logic_control.o
    0x0800129a   0x0800129a   0x00000002   PAD
    0x0800129c   0x0800129c   0x0000001c   Code   RO         4476    i.FontLibRegister   fontlib_manager.o
    0x080012b8   0x080012b8   0x0000006c   Code   RO         5244    i.GAMEInfoOptionChooseFUN  option.o
    0x08001324   0x08001324   0x00000028   Code   RO         5245    i.GAMEInfoOptionEnterFUN  option.o
    0x0800134c   0x0800134c   0x0000006c   Code   RO         5246    i.GAMESetOptionChooseFUN  option.o
    0x080013b8   0x080013b8   0x00000028   Code   RO         5247    i.GAMESetOptionEnterFUN  option.o
    0x080013e0   0x080013e0   0x000000b8   Code   RO         5248    i.GAMEStartOptionChooseFUN  option.o
    0x08001498   0x08001498   0x00000024   Code   RO         5249    i.GAMEStartOptionEnterFUN  option.o
    0x080014bc   0x080014bc   0x0000000c   Code   RO         4082    i.GPIOButtonInit    button_device.o
    0x080014c8   0x080014c8   0x00000116   Code   RO         1292    i.GPIO_Init         stm32f10x_gpio.o
    0x080015de   0x080015de   0x00000012   Code   RO         1296    i.GPIO_ReadInputDataBit  stm32f10x_gpio.o
    0x080015f0   0x080015f0   0x0000000a   Code   RO         1303    i.GPIO_WriteBit     stm32f10x_gpio.o
    0x080015fa   0x080015fa   0x00000002   PAD
    0x080015fc   0x080015fc   0x000000d4   Code   RO         5250    i.GameChooseFUN     option.o
    0x080016d0   0x080016d0   0x00000028   Code   RO         5251    i.GameEnterFUN      option.o
    0x080016f8   0x080016f8   0x0000002c   Code   RO         5470    i.GameFirstKeyLongPressFun  logic_control.o
    0x08001724   0x08001724   0x00000064   Code   RO         5471    i.GameFirstKeyShortPressFun  logic_control.o
    0x08001788   0x08001788   0x00000048   Code   RO         5152    i.GameRunning       game_system.o
    0x080017d0   0x080017d0   0x0000002c   Code   RO         5472    i.GameSecondKeyLongPressFun  logic_control.o
    0x080017fc   0x080017fc   0x00000030   Code   RO         5473    i.GameSecondKeyShortPressFun  logic_control.o
    0x0800182c   0x0800182c   0x00000038   Code   RO         5153    i.GameShow          game_system.o
    0x08001864   0x08001864   0x00000064   Code   RO         5154    i.GameStop          game_system.o
    0x080018c8   0x080018c8   0x0000002c   Code   RO         5474    i.GameThirdKeyLongPressFun  logic_control.o
    0x080018f4   0x080018f4   0x00000030   Code   RO         5475    i.GameThirdKeyShortPressFun  logic_control.o
    0x08001924   0x08001924   0x000000a4   Code   RO         5155    i.GameThreadEntry   game_system.o
    0x080019c8   0x080019c8   0x00000014   Code   RO         5156    i.GameThreadInit    game_system.o
    0x080019dc   0x080019dc   0x0000007c   Code   RO         5370    i.GetBackOption     option_manager.o
    0x08001a58   0x08001a58   0x0000000c   Code   RO         4641    i.GetBeepDevice     beep_system.o
    0x08001a64   0x08001a64   0x0000001c   Code   RO         4665    i.GetBeepSongLen    decode.o
    0x08001a80   0x08001a80   0x00000016   Code   RO         4666    i.GetBeepSongName   decode.o
    0x08001a96   0x08001a96   0x0000000c   Code   RO         4321    i.GetDisplayDevice  display_system.o
    0x08001aa2   0x08001aa2   0x00000002   PAD
    0x08001aa4   0x08001aa4   0x0000004c   Code   RO         5371    i.GetEnterOption    option_manager.o
    0x08001af0   0x08001af0   0x00000018   Code   RO         4497    i.GetFontBitMap     fontlib_system.o
    0x08001b08   0x08001b08   0x0000000c   Code   RO         4498    i.GetFontLib        fontlib_system.o
    0x08001b14   0x08001b14   0x00000008   Code   RO         5157    i.GetGame           game_system.o
    0x08001b1c   0x08001b1c   0x00000046   Code   RO         4859    i.GetGraphPixelColorFromFrameBuffer  show_graph.o
    0x08001b62   0x08001b62   0x00000002   PAD
    0x08001b64   0x08001b64   0x00000098   Code   RO         3753    i.GetGregorianDay   convert.o
    0x08001bfc   0x08001bfc   0x0000000c   Code   RO         4030    i.GetI2CDevice      i2c_system.o
    0x08001c08   0x08001c08   0x00000060   Code   RO         4233    i.GetInputBuffer    input_buffer.o
    0x08001c68   0x08001c68   0x0000000c   Code   RO         3921    i.GetLedDevice      led_system.o
    0x08001c74   0x08001c74   0x00000080   Code   RO         5372    i.GetNextOption     option_manager.o
    0x08001cf4   0x08001cf4   0x0000001c   Code   RO         5211    i.GetNodeFirstChild  node_manager.o
    0x08001d10   0x08001d10   0x0000001c   Code   RO         5212    i.GetNodeParent     node_manager.o
    0x08001d2c   0x08001d2c   0x0000001c   Code   RO         5213    i.GetNodeRightSibling  node_manager.o
    0x08001d48   0x08001d48   0x000000dc   Code   RO         3754    i.GetNormalTime     convert.o
    0x08001e24   0x08001e24   0x00000038   Code   RO         4532    i.GetPixelColorFromFrameBuffer  show_text.o
    0x08001e5c   0x08001e5c   0x0000007c   Code   RO         3755    i.GetUnixTime       convert.o
    0x08001ed8   0x08001ed8   0x0000002c   Code   RO         5476    i.HandlerMenuMsg    logic_control.o
    0x08001f04   0x08001f04   0x0000003c   Code   RO         5477    i.HandlerPlayerMsg  logic_control.o
    0x08001f40   0x08001f40   0x00000100   Code   RO         5478    i.HandlerRTCMsg     logic_control.o
    0x08002040   0x08002040   0x00000004   Code   RO         3223    i.HardFault_Handler  stm32f10x_it.o
    0x08002044   0x08002044   0x0000009c   Code   RO         5252    i.HomeChooseFUN     option.o
    0x080020e0   0x080020e0   0x00000028   Code   RO         5253    i.HomeEnterFUN      option.o
    0x08002108   0x08002108   0x0000000c   Code   RO         3975    i.I2CDeviceDMACfg   i2c.o
    0x08002114   0x08002114   0x0000000c   Code   RO         3976    i.I2CDeviceDMAEnable  i2c.o
    0x08002120   0x08002120   0x0000000c   Code   RO         3977    i.I2CDeviceInit     i2c.o
    0x0800212c   0x0800212c   0x00000028   Code   RO         4006    i.I2CDeviceRegister  i2c_device.o
    0x08002154   0x08002154   0x0000002a   Code   RO         1403    i.I2C_CheckEvent    stm32f10x_i2c.o
    0x0800217e   0x0800217e   0x00000018   Code   RO         1406    i.I2C_Cmd           stm32f10x_i2c.o
    0x08002196   0x08002196   0x00000018   Code   RO         1407    i.I2C_DMACmd        stm32f10x_i2c.o
    0x080021ae   0x080021ae   0x00000018   Code   RO         1413    i.I2C_GenerateSTART  stm32f10x_i2c.o
    0x080021c6   0x080021c6   0x00000018   Code   RO         1414    i.I2C_GenerateSTOP  stm32f10x_i2c.o
    0x080021de   0x080021de   0x0000003a   Code   RO         1415    i.I2C_GetFlagStatus  stm32f10x_i2c.o
    0x08002218   0x08002218   0x000000ec   Code   RO         1420    i.I2C_Init          stm32f10x_i2c.o
    0x08002304   0x08002304   0x00000012   Code   RO         1427    i.I2C_Send7bitAddress  stm32f10x_i2c.o
    0x08002316   0x08002316   0x00000004   Code   RO         1428    i.I2C_SendData      stm32f10x_i2c.o
    0x0800231a   0x0800231a   0x00000002   PAD
    0x0800231c   0x0800231c   0x00000028   Code   RO         5027    i.IndicateLedClose  role_manager.o
    0x08002344   0x08002344   0x00000028   Code   RO         5028    i.IndicateLedOpen   role_manager.o
    0x0800236c   0x0800236c   0x00000030   Code   RO         5254    i.InfoChooseFUN     option.o
    0x0800239c   0x0800239c   0x00000024   Code   RO         5255    i.InfoEnterFUN      option.o
    0x080023c0   0x080023c0   0x00000008   Code   RO         4208    i.InitInputDevice   input_system.o
    0x080023c8   0x080023c8   0x00000020   Code   RO         5373    i.InitMenuOption    option_manager.o
    0x080023e8   0x080023e8   0x00000010   Code   RO         4180    i.InputDeviceRegister  input_device.o
    0x080023f8   0x080023f8   0x00000020   Code   RO         3720    i.KAL_BeepDevicePWMCfg  kal_beep.o
    0x08002418   0x08002418   0x0000000c   Code   RO         3721    i.KAL_BeepDevicePWMOff  kal_beep.o
    0x08002424   0x08002424   0x0000000c   Code   RO         3722    i.KAL_BeepDevicePWMOn  kal_beep.o
    0x08002430   0x08002430   0x0000000c   Code   RO         3642    i.KAL_GPIOButtonInit  kal_button.o
    0x0800243c   0x0800243c   0x0000000c   Code   RO         3693    i.KAL_GPIOI2CDevInit  kal_i2c.o
    0x08002448   0x08002448   0x00000010   Code   RO         3672    i.KAL_GPIOLedDevControl  kal_led.o
    0x08002458   0x08002458   0x0000000c   Code   RO         3673    i.KAL_GPIOLedDevInit  kal_led.o
    0x08002464   0x08002464   0x0000000c   Code   RO         3723    i.KAL_HardwareBeepDevInit  kal_beep.o
    0x08002470   0x08002470   0x0000000c   Code   RO         3694    i.KAL_I2CDMACfg     kal_i2c.o
    0x0800247c   0x0800247c   0x0000000c   Code   RO         3695    i.KAL_I2CDMAEnable  kal_i2c.o
    0x08002488   0x08002488   0x00000008   Code   RO         3657    i.KAL_TimerInit     kal_timer.o
    0x08002490   0x08002490   0x00000010   Code   RO         3874    i.LedDeviceControl  led.o
    0x080024a0   0x080024a0   0x0000000c   Code   RO         3875    i.LedDeviceInit     led.o
    0x080024ac   0x080024ac   0x00000028   Code   RO         3900    i.LedDeviceRegister  led_device.o
    0x080024d4   0x080024d4   0x0000020c   Code   RO         5479    i.LogicThreadEntry  logic_control.o
    0x080026e0   0x080026e0   0x00000084   Code   RO         5480    i.LogicThreadInit   logic_control.o
    0x08002764   0x08002764   0x00000004   Code   RO         3224    i.MemManage_Handler  stm32f10x_it.o
    0x08002768   0x08002768   0x00000030   Code   RO         5481    i.MenuFirstKeyLongPressFun  logic_control.o
    0x08002798   0x08002798   0x00000030   Code   RO         5482    i.MenuFirstKeyShortPressFun  logic_control.o
    0x080027c8   0x080027c8   0x0000000c   Code   RO         5374    i.MenuPublish       option_manager.o
    0x080027d4   0x080027d4   0x00000030   Code   RO         5483    i.MenuSecondKeyLongPressFun  logic_control.o
    0x08002804   0x08002804   0x00000030   Code   RO         5484    i.MenuSecondKeyShortPressFun  logic_control.o
    0x08002834   0x08002834   0x00000030   Code   RO         5485    i.MenuThirdKeyLongPressFun  logic_control.o
    0x08002864   0x08002864   0x00000030   Code   RO         5486    i.MenuThirdKeyShortPressFun  logic_control.o
    0x08002894   0x08002894   0x0000006c   Code   RO         5375    i.MenuThreadEntry   option_manager.o
    0x08002900   0x08002900   0x00000030   Code   RO         5376    i.MenuThreadInit    option_manager.o
    0x08002930   0x08002930   0x00000002   Code   RO         3225    i.NMI_Handler       stm32f10x_it.o
    0x08002932   0x08002932   0x00000028   Code   RO         3347    i.NVIC_Configuration  drive_usart.o
    0x0800295a   0x0800295a   0x00000002   PAD
    0x0800295c   0x0800295c   0x00000070   Code   RO          137    i.NVIC_Init         misc.o
    0x080029cc   0x080029cc   0x00000014   Code   RO          138    i.NVIC_PriorityGroupConfig  misc.o
    0x080029e0   0x080029e0   0x00000018   Code   RO         5214    i.NodeRegisterToTREE  node_manager.o
    0x080029f8   0x080029f8   0x0000008c   Code   RO         4363    i.OLEDByteSend      oled_command.o
    0x08002a84   0x08002a84   0x0000000e   Code   RO         4364    i.OLEDCommandSend   oled_command.o
    0x08002a92   0x08002a92   0x0000000e   Code   RO         4365    i.OLEDDataSend      oled_command.o
    0x08002aa0   0x08002aa0   0x0000000a   Code   RO         4254    i.OLEDDeviceFlush   oled.o
    0x08002aaa   0x08002aaa   0x0000000e   Code   RO         4255    i.OLEDDeviceInit    oled.o
    0x08002ab8   0x08002ab8   0x00000078   Code   RO         4256    i.OLEDDeviceSetPixel  oled.o
    0x08002b30   0x08002b30   0x00000030   Code   RO         4366    i.OLEDInfDevInit    oled_command.o
    0x08002b60   0x08002b60   0x00000038   Code   RO         5377    i.OptionControl     option_manager.o
    0x08002b98   0x08002b98   0x00000028   Code   RO         5378    i.OptionRegister    option_manager.o
    0x08002bc0   0x08002bc0   0x0000000c   Code   RO         1646    i.PWR_BackupAccessCmd  stm32f10x_pwr.o
    0x08002bcc   0x08002bcc   0x00000020   Code   RO         4768    i.PlayerAddSong     player_system.o
    0x08002bec   0x08002bec   0x000000d4   Code   RO         5256    i.PlayerChooseFUN   option.o
    0x08002cc0   0x08002cc0   0x0000005a   Code   RO         4769    i.PlayerControl     player_system.o
    0x08002d1a   0x08002d1a   0x00000002   PAD
    0x08002d1c   0x08002d1c   0x00000070   Code   RO         5257    i.PlayerEnterFUN    option.o
    0x08002d8c   0x08002d8c   0x0000004c   Code   RO         5487    i.PlayerFirstKeyLongPressFun  logic_control.o
    0x08002dd8   0x08002dd8   0x00000038   Code   RO         5488    i.PlayerFirstKeyShortPressFun  logic_control.o
    0x08002e10   0x08002e10   0x000000b4   Code   RO         4707    i.PlayerInit        player.o
    0x08002ec4   0x08002ec4   0x00000042   Code   RO         4770    i.PlayerLast        player_system.o
    0x08002f06   0x08002f06   0x00000044   Code   RO         4771    i.PlayerNext        player_system.o
    0x08002f4a   0x08002f4a   0x0000000e   Code   RO         4772    i.PlayerPlay        player_system.o
    0x08002f58   0x08002f58   0x0000000c   Code   RO         4773    i.PlayerPublish     player_system.o
    0x08002f64   0x08002f64   0x00000070   Code   RO         5489    i.PlayerSecondKeyLongPressFun  logic_control.o
    0x08002fd4   0x08002fd4   0x0000006c   Code   RO         5490    i.PlayerSecondKeyShortPressFun  logic_control.o
    0x08003040   0x08003040   0x0000010c   Code   RO         4774    i.PlayerShow        player_system.o
    0x0800314c   0x0800314c   0x00000068   Code   RO         4775    i.PlayerStart       player_system.o
    0x080031b4   0x080031b4   0x00000010   Code   RO         4776    i.PlayerStop        player_system.o
    0x080031c4   0x080031c4   0x0000004c   Code   RO         5491    i.PlayerThirdKeyLongPressFun  logic_control.o
    0x08003210   0x08003210   0x00000038   Code   RO         5492    i.PlayerThirdKeyShortPressFun  logic_control.o
    0x08003248   0x08003248   0x000000f0   Code   RO         4777    i.PlayerThreadEntry  player_system.o
    0x08003338   0x08003338   0x00000044   Code   RO         4778    i.PlayerThreadInit  player_system.o
    0x0800337c   0x0800337c   0x00000054   Code   RO         4234    i.PutInputBuffer    input_buffer.o
    0x080033d0   0x080033d0   0x00000020   Code   RO         1707    i.RCC_AHBPeriphClockCmd  stm32f10x_rcc.o
    0x080033f0   0x080033f0   0x00000020   Code   RO         1708    i.RCC_APB1PeriphClockCmd  stm32f10x_rcc.o
    0x08003410   0x08003410   0x00000020   Code   RO         1710    i.RCC_APB2PeriphClockCmd  stm32f10x_rcc.o
    0x08003430   0x08003430   0x0000000c   Code   RO         1713    i.RCC_BackupResetCmd  stm32f10x_rcc.o
    0x0800343c   0x0800343c   0x000000d4   Code   RO         1718    i.RCC_GetClocksFreq  stm32f10x_rcc.o
    0x08003510   0x08003510   0x0000003c   Code   RO         1719    i.RCC_GetFlagStatus  stm32f10x_rcc.o
    0x0800354c   0x0800354c   0x0000000c   Code   RO         1727    i.RCC_LSICmd        stm32f10x_rcc.o
    0x08003558   0x08003558   0x0000000c   Code   RO         1733    i.RCC_RTCCLKCmd     stm32f10x_rcc.o
    0x08003564   0x08003564   0x00000010   Code   RO         1734    i.RCC_RTCCLKConfig  stm32f10x_rcc.o
    0x08003574   0x08003574   0x00000028   Code   RO         3829    i.RTCInit           rtc_system.o
    0x0800359c   0x0800359c   0x00000014   Code   RO         3792    i.RTCNormalTime     rtc_device.o
    0x080035b0   0x080035b0   0x0000000c   Code   RO         3830    i.RTCPublish        rtc_system.o
    0x080035bc   0x080035bc   0x00000030   Code   RO         3831    i.RTCThreadInit     rtc_system.o
    0x080035ec   0x080035ec   0x0000001e   Code   RO         3793    i.RTCTimeStamp      rtc_device.o
    0x0800360a   0x0800360a   0x00000002   PAD
    0x0800360c   0x0800360c   0x00000010   Code   RO         1907    i.RTC_ClearITPendingBit  stm32f10x_rtc.o
    0x0800361c   0x0800361c   0x00000014   Code   RO         1908    i.RTC_EnterConfigMode  stm32f10x_rtc.o
    0x08003630   0x08003630   0x00000014   Code   RO         1909    i.RTC_ExitConfigMode  stm32f10x_rtc.o
    0x08003644   0x08003644   0x00000014   Code   RO         1910    i.RTC_GetCounter    stm32f10x_rtc.o
    0x08003658   0x08003658   0x00000024   Code   RO         1913    i.RTC_GetITStatus   stm32f10x_rtc.o
    0x0800367c   0x0800367c   0x00000030   Code   RO         3832    i.RTC_IRQHandler    rtc_system.o
    0x080036ac   0x080036ac   0x00000020   Code   RO         1914    i.RTC_ITConfig      stm32f10x_rtc.o
    0x080036cc   0x080036cc   0x0000001c   Code   RO         1916    i.RTC_SetCounter    stm32f10x_rtc.o
    0x080036e8   0x080036e8   0x00000020   Code   RO         1917    i.RTC_SetPrescaler  stm32f10x_rtc.o
    0x08003708   0x08003708   0x00000014   Code   RO         1918    i.RTC_WaitForLastTask  stm32f10x_rtc.o
    0x0800371c   0x0800371c   0x00000024   Code   RO         1919    i.RTC_WaitForSynchro  stm32f10x_rtc.o
    0x08003740   0x08003740   0x0000000c   Code   RO         5091    i.RecoverSpeedIndex  role_system.o
    0x0800374c   0x0800374c   0x000000c4   Code   RO         5443    i.RegisterMessage   message_manager.o
    0x08003810   0x08003810   0x000000f8   Code   RO         5444    i.RegisterSubscriber  message_manager.o
    0x08003908   0x08003908   0x00000058   Code   RO         5029    i.RoleRegister      role_manager.o
    0x08003960   0x08003960   0x00000020   Code   RO         3516    i.RtcNvicConfig     drive_rtc.o
    0x08003980   0x08003980   0x00000008   Code   RO         3794    i.RtcNvicInit       rtc_device.o
    0x08003988   0x08003988   0x00000060   Code   RO         3517    i.RtcPeripheralConfig  drive_rtc.o
    0x080039e8   0x080039e8   0x0000000a   Code   RO         5493    i.SKLPVisit         logic_control.o
    0x080039f2   0x080039f2   0x0000000a   Code   RO         5494    i.SKSPVisit         logic_control.o
    0x080039fc   0x080039fc   0x0000006a   Code   RO         3457    i.STD_BeepDevicePWMCfg  drive_pwm.o
    0x08003a66   0x08003a66   0x00000012   Code   RO         3458    i.STD_BeepDevicePWMOff  drive_pwm.o
    0x08003a78   0x08003a78   0x0000002a   Code   RO         3278    i.STD_DHT11GpioConfigure  drive_gpio.o
    0x08003aa2   0x08003aa2   0x0000002a   Code   RO         3459    i.STD_GPIOBeepDevConfig  drive_pwm.o
    0x08003acc   0x08003acc   0x0000002c   Code   RO         3279    i.STD_GPIOButtonConfig  drive_gpio.o
    0x08003af8   0x08003af8   0x0000007c   Code   RO         3430    i.STD_GPIOI2CDevConfig  drive_i2c.o
    0x08003b74   0x08003b74   0x0000002a   Code   RO         3280    i.STD_GPIOLedDevConfig  drive_gpio.o
    0x08003b9e   0x08003b9e   0x00000022   Code   RO         3281    i.STD_GPIOLedDevControl  drive_gpio.o
    0x08003bc0   0x08003bc0   0x00000070   Code   RO         3431    i.STD_I2CDMACfg     drive_i2c.o
    0x08003c30   0x08003c30   0x00000020   Code   RO         3432    i.STD_I2CDMAEnable  drive_i2c.o
    0x08003c50   0x08003c50   0x00000064   Code   RO         3308    i.STD_Timer3Config  drive_timer.o
    0x08003cb4   0x08003cb4   0x00000068   Code   RO         3309    i.STD_TimerConfig   drive_timer.o
    0x08003d1c   0x08003d1c   0x00000002   Code   RO         3226    i.SVC_Handler       stm32f10x_it.o
    0x08003d1e   0x08003d1e   0x00000002   PAD
    0x08003d20   0x08003d20   0x0000000c   Code   RO         4051    i.SetButtonInputDeviceCallBack  button.o
    0x08003d2c   0x08003d2c   0x00000030   Code   RO         5258    i.SetChooseFUN      option.o
    0x08003d5c   0x08003d5c   0x00000080   Code   RO         4322    i.SetDefaultDisplayDev  display_system.o
    0x08003ddc   0x08003ddc   0x0000006c   Code   RO         4499    i.SetDefaultFontLib  fontlib_system.o
    0x08003e48   0x08003e48   0x00000038   Code   RO         5092    i.SetDefaultPLAYERDinosaur  role_system.o
    0x08003e80   0x08003e80   0x00000028   Code   RO         5259    i.SetEnterFUN       option.o
    0x08003ea8   0x08003ea8   0x00000008   Code   RO           24    i.SetSysClock       system_stm32f10x.o
    0x08003eb0   0x08003eb0   0x000000e0   Code   RO           25    i.SetSysClockTo72   system_stm32f10x.o
    0x08003f90   0x08003f90   0x0000000c   Code   RO         3310    i.SetTimerProcessFunction  drive_timer.o
    0x08003f9c   0x08003f9c   0x00000026   Code   RO         4860    i.ShowGraphInDisplayDev  show_graph.o
    0x08003fc2   0x08003fc2   0x00000002   PAD
    0x08003fc4   0x08003fc4   0x00000050   Code   RO         4533    i.ShowNumberInDisplayDev  show_text.o
    0x08004014   0x08004014   0x0000004a   Code   RO         4534    i.ShowTextInDisplayDev  show_text.o
    0x0800405e   0x0800405e   0x00000010   Code   RO         5495    i.SubscribeMsg      logic_control.o
    0x0800406e   0x0800406e   0x00000002   PAD
    0x08004070   0x08004070   0x00000014   Code   RO         3227    i.SysTick_Handler   stm32f10x_it.o
    0x08004084   0x08004084   0x00000060   Code   RO           27    i.SystemInit        system_stm32f10x.o
    0x080040e4   0x080040e4   0x00000038   Code   RO         3311    i.TIM2_IRQHandler   drive_timer.o
    0x0800411c   0x0800411c   0x00000020   Code   RO         3312    i.TIM3_IRQHandler   drive_timer.o
    0x0800413c   0x0800413c   0x00000006   Code   RO         2337    i.TIM_ClearITPendingBit  stm32f10x_tim.o
    0x08004142   0x08004142   0x00000018   Code   RO         2342    i.TIM_Cmd           stm32f10x_tim.o
    0x0800415a   0x0800415a   0x00000022   Code   RO         2363    i.TIM_GetITStatus   stm32f10x_tim.o
    0x0800417c   0x0800417c   0x00000012   Code   RO         2367    i.TIM_ITConfig      stm32f10x_tim.o
    0x0800418e   0x0800418e   0x00000002   PAD
    0x08004190   0x08004190   0x000000a0   Code   RO         2381    i.TIM_OC3Init       stm32f10x_tim.o
    0x08004230   0x08004230   0x00000012   Code   RO         2384    i.TIM_OC3PreloadConfig  stm32f10x_tim.o
    0x08004242   0x08004242   0x00000002   PAD
    0x08004244   0x08004244   0x000000a4   Code   RO         2413    i.TIM_TimeBaseInit  stm32f10x_tim.o
    0x080042e8   0x080042e8   0x0000000a   Code   RO         5496    i.TKLPVisit         logic_control.o
    0x080042f2   0x080042f2   0x0000000a   Code   RO         5497    i.TKSPVisit         logic_control.o
    0x080042fc   0x080042fc   0x000000d4   Code   RO         5260    i.TempatureChooseFUN  option.o
    0x080043d0   0x080043d0   0x00000108   Code   RO         5261    i.TempatureEnterFUN  option.o
    0x080044d8   0x080044d8   0x00000024   Code   RO         4323    i.TimerFlushDisplayDev  display_system.o
    0x080044fc   0x080044fc   0x00000018   Code   RO         3486    i.TimingDelay_Decrement  drive_delay.o
    0x08004514   0x08004514   0x0000001c   Code   RO         3348    i.USART1_IRQHandler  drive_usart.o
    0x08004530   0x08004530   0x00000018   Code   RO         2878    i.USART_Cmd         stm32f10x_usart.o
    0x08004548   0x08004548   0x00000090   Code   RO         3349    i.USART_Config      drive_usart.o
    0x080045d8   0x080045d8   0x0000001a   Code   RO         2881    i.USART_GetFlagStatus  stm32f10x_usart.o
    0x080045f2   0x080045f2   0x0000004a   Code   RO         2884    i.USART_ITConfig    stm32f10x_usart.o
    0x0800463c   0x0800463c   0x000000d8   Code   RO         2885    i.USART_Init        stm32f10x_usart.o
    0x08004714   0x08004714   0x0000000a   Code   RO         2892    i.USART_ReceiveData  stm32f10x_usart.o
    0x0800471e   0x0800471e   0x00000008   Code   RO         2895    i.USART_SendData    stm32f10x_usart.o
    0x08004726   0x08004726   0x00000004   Code   RO         3228    i.UsageFault_Handler  stm32f10x_it.o
    0x0800472a   0x0800472a   0x00000002   PAD
    0x0800472c   0x0800472c   0x00000078   Code   RO         5695    i.UsartInit         usart_init.o
    0x080047a4   0x080047a4   0x0000001e   Code   RO         3350    i.Usart_SendByte    drive_usart.o
    0x080047c2   0x080047c2   0x0000002a   Code   RO         3351    i.Usart_SendString  drive_usart.o
    0x080047ec   0x080047ec   0x00000020   Code   RO         6022    i.__0printf$3       mc_w.l(printf3.o)
    0x0800480c   0x0800480c   0x00000028   Code   RO         4083    i.__ButtonDevcieManagerInit  button_device.o
    0x08004834   0x08004834   0x00000014   Code   RO         4289    i.__DisplayDevTimerFlushControl  display_device.o
    0x08004848   0x08004848   0x00000064   Code   RO         4621    i.__GetBeepDevice   beep_device.o
    0x080048ac   0x080048ac   0x00000030   Code   RO         4290    i.__GetDisplayDevice  display_device.o
    0x080048dc   0x080048dc   0x00000030   Code   RO         4477    i.__GetFontLib      fontlib_manager.o
    0x0800490c   0x0800490c   0x00000030   Code   RO         5130    i.__GetGame         game.o
    0x0800493c   0x0800493c   0x00000030   Code   RO         5030    i.__GetGameRole     role_manager.o
    0x0800496c   0x0800496c   0x00000030   Code   RO         4007    i.__GetI2CDevice    i2c_device.o
    0x0800499c   0x0800499c   0x00000030   Code   RO         3901    i.__GetLedDevice    led_device.o
    0x080049cc   0x080049cc   0x00000064   Code   RO         5379    i.__GetOption       option_manager.o
    0x08004a30   0x08004a30   0x00000018   Code   RO         4182    i.__InitInputDevice  input_device.o
    0x08004a48   0x08004a48   0x0000000e   Code   RO         6289    i.__scatterload_copy  mc_w.l(handlers.o)
    0x08004a56   0x08004a56   0x00000002   Code   RO         6290    i.__scatterload_null  mc_w.l(handlers.o)
    0x08004a58   0x08004a58   0x0000000e   Code   RO         6291    i.__scatterload_zeroinit  mc_w.l(handlers.o)
    0x08004a66   0x08004a66   0x00000002   PAD
    0x08004a68   0x08004a68   0x000001b8   Code   RO         6029    i._printf_core      mc_w.l(printf3.o)
    0x08004c20   0x08004c20   0x00000028   Code   RO         4708    i.audio_close       player.o
    0x08004c48   0x08004c48   0x00000030   Code   RO         4709    i.audio_control     player.o
    0x08004c78   0x08004c78   0x00000030   Code   RO         4710    i.audio_init        player.o
    0x08004ca8   0x08004ca8   0x00000018   Code   RO         4711    i.audio_open        player.o
    0x08004cc0   0x08004cc0   0x0000005c   Code   RO         4712    i.audio_write       player.o
    0x08004d1c   0x08004d1c   0x00000018   Code   RO         4052    i.button_cb         button.o
    0x08004d34   0x08004d34   0x0000001c   Code   RO         4903    i.clear_cactus      role.o
    0x08004d50   0x08004d50   0x0000001c   Code   RO         4904    i.clear_cloud       role.o
    0x08004d6c   0x08004d6c   0x0000001c   Code   RO         4905    i.clear_dinosaur    role.o
    0x08004d88   0x08004d88   0x00000006   Code   RO         4906    i.clear_ground      role.o
    0x08004d8e   0x08004d8e   0x00000038   Code   RO         4907    i.control_dinosaur  role.o
    0x08004dc6   0x08004dc6   0x00000024   Code   RO         4713    i.decode_control    player.o
    0x08004dea   0x08004dea   0x0000000a   Code   RO         4714    i.decode_init       player.o
    0x08004df4   0x08004df4   0x0000001c   Code   RO         4715    i.decode_read       player.o
    0x08004e10   0x08004e10   0x00000018   Code   RO         3487    i.delay             drive_delay.o
    0x08004e28   0x08004e28   0x0000001c   Code   RO         4908    i.excute_cactus1    role.o
    0x08004e44   0x08004e44   0x0000001c   Code   RO         4909    i.excute_cactus2    role.o
    0x08004e60   0x08004e60   0x0000001c   Code   RO         4910    i.excute_cloud      role.o
    0x08004e7c   0x08004e7c   0x0000001c   Code   RO         4911    i.excute_dinosaur   role.o
    0x08004e98   0x08004e98   0x0000001c   Code   RO         4912    i.excute_ground     role.o
    0x08004eb4   0x08004eb4   0x00000060   Code   RO         5031    i.excute_item       role_manager.o
    0x08004f14   0x08004f14   0x00000018   Code   RO         3353    i.fputc             drive_usart.o
    0x08004f2c   0x08004f2c   0x0000001c   Code   RO         4913    i.load_cactus       role.o
    0x08004f48   0x08004f48   0x0000001c   Code   RO         4914    i.load_cloud        role.o
    0x08004f64   0x08004f64   0x0000001c   Code   RO         4915    i.load_dinosaur     role.o
    0x08004f80   0x08004f80   0x0000001c   Code   RO         4916    i.load_ground       role.o
    0x08004f9c   0x08004f9c   0x000000dc   Code   RO         3109    i.main              main.o
    0x08005078   0x08005078   0x0000006c   Code   RO         6195    i.malloc            mc_w.l(malloc.o)
    0x080050e4   0x080050e4   0x00000060   Code   RO         4917    i.move_cactus1      role.o
    0x08005144   0x08005144   0x00000060   Code   RO         4918    i.move_cactus2      role.o
    0x080051a4   0x080051a4   0x00000040   Code   RO         4919    i.move_cloud        role.o
    0x080051e4   0x080051e4   0x0000009c   Code   RO         4920    i.move_dinosaur     role.o
    0x08005280   0x08005280   0x00000022   Code   RO         4921    i.move_ground       role.o
    0x080052a2   0x080052a2   0x00000002   PAD
    0x080052a4   0x080052a4   0x00000180   Code   RO         4085    i.my_button_scan    button_device.o
    0x08005424   0x08005424   0x0000001e   Code   RO         4368    i.oled_clear        oled_command.o
    0x08005442   0x08005442   0x00000002   PAD
    0x08005444   0x08005444   0x0000009c   Code   RO         4370    i.oled_gram_refresh_dma  oled_command.o
    0x080054e0   0x080054e0   0x000000f0   Code   RO         4372    i.oled_init         oled_command.o
    0x080055d0   0x080055d0   0x00000026   Code   RO         4373    i.oled_setcursor    oled_command.o
    0x080055f6   0x080055f6   0x00000010   Code   RO         4922    i.recover_data      role.o
    0x08005606   0x08005606   0x00000024   Code   RO         5032    i.recover_item      role_manager.o
    0x0800562a   0x0800562a   0x00000026   Code   RO         4535    i.reverse           show_text.o
    0x08005650   0x08005650   0x0000000a   Code   RO         3403    i.ring_buffer_init  ring_buffer.o
    0x0800565a   0x0800565a   0x00000022   Code   RO         3405    i.ring_buffer_write  ring_buffer.o
    0x0800567c   0x0800567c   0x00000040   Code   RO         5638    i.rt_hw_stack_init  cpuport.o
    0x080056bc   0x080056bc   0x00000020   Code   RO         5653    i.rt_schedule       scheduler.o
    0x080056dc   0x080056dc   0x0000000c   Code   RO         5654    i.rt_system_scheduler_init  scheduler.o
    0x080056e8   0x080056e8   0x00000018   Code   RO         5655    i.rt_system_scheduler_start  scheduler.o
    0x08005700   0x08005700   0x00000040   Code   RO         5680    i.rt_thread_init    thread.o
    0x08005740   0x08005740   0x00000026   Code   RO         5033    i.traversal_excute_item  role_manager.o
    0x08005766   0x08005766   0x0000002e   Code   RO         5034    i.traversal_recover_item  role_manager.o
    0x08005794   0x08005794   0x00000030   Data   RO         3756    .constdata          convert.o
    0x080057c4   0x080057c4   0x00000800   Data   RO         4448    .constdata          ascii_fontlib.o
    0x08005fc4   0x08005fc4   0x00000068   Data   RO         4668    .constdata          decode.o
    0x0800602c   0x0800602c   0x00000a5a   Data   RO         4717    .constdata          player.o
    0x08006a86   0x08006a86   0x000012a4   Data   RO         4894    .constdata          graph_data.o
    0x08007d2a   0x08007d2a   0x00000002   PAD
    0x08007d2c   0x08007d2c   0x0000000a   Data   RO         3835    .conststring        rtc_system.o
    0x08007d36   0x08007d36   0x00000002   PAD
    0x08007d38   0x08007d38   0x00000007   Data   RO         4157    .conststring        button_input.o
    0x08007d3f   0x08007d3f   0x00000001   PAD
    0x08007d40   0x08007d40   0x0000000d   Data   RO         4779    .conststring        player_system.o
    0x08007d4d   0x08007d4d   0x00000003   PAD
    0x08007d50   0x08007d50   0x00000031   Data   RO         4923    .conststring        role.o
    0x08007d81   0x08007d81   0x00000003   PAD
    0x08007d84   0x08007d84   0x0000000b   Data   RO         5381    .conststring        option_manager.o
    0x08007d8f   0x08007d8f   0x00000001   PAD
    0x08007d90   0x08007d90   0x00000020   Data   RO         6287    Region$$Table       anon$$obj.o


    Execution Region RW_IRAM1 (Exec base: 0x20000000, Load base: 0x08007db0, Size: 0x000037b8, Max: 0x00005000, ABSOLUTE, COMPRESSED[0x000002e4])

    Exec Addr    Load Addr    Size         Type   Attr      Idx    E Section Name        Object

    0x20000000   COMPRESSED   0x00000014   Data   RW         1738    .data               stm32f10x_rcc.o
    0x20000014   COMPRESSED   0x00000004   Data   RW         3313    .data               drive_timer.o
    0x20000018   COMPRESSED   0x00000004   Data   RW         3488    .data               drive_delay.o
    0x2000001c   COMPRESSED   0x00000030   Data   RW         3757    .data               convert.o
    0x2000004c   COMPRESSED   0x0000000c   Data   RW         3836    .data               rtc_system.o
    0x20000058   COMPRESSED   0x00000030   Data   RW         3876    .data               led.o
    0x20000088   COMPRESSED   0x0000002c   Data   RW         3978    .data               i2c.o
    0x200000b4   COMPRESSED   0x00000058   Data   RW         4053    .data               button.o
    0x2000010c   COMPRESSED   0x00000004   Data   RW         4087    .data               button_device.o
    0x20000110   COMPRESSED   0x00000014   Data   RW         4158    .data               button_input.o
    0x20000124   COMPRESSED   0x00000004   Data   RW         4183    .data               input_device.o
    0x20000128   COMPRESSED   0x00000024   Data   RW         4258    .data               oled.o
    0x2000014c   COMPRESSED   0x00000014   Data   RW         4291    .data               display_device.o
    0x20000160   COMPRESSED   0x00000008   Data   RW         4325    .data               display_system.o
    0x20000168   COMPRESSED   0x00000008   Data   RW         4374    .data               oled_command.o
    0x20000170   COMPRESSED   0x00000014   Data   RW         4449    .data               ascii_fontlib.o
    0x20000184   COMPRESSED   0x00000004   Data   RW         4500    .data               fontlib_system.o
    0x20000188   COMPRESSED   0x00000020   Data   RW         4588    .data               beep.o
    0x200001a8   COMPRESSED   0x0000000c   Data   RW         4718    .data               player.o
    0x200001b4   COMPRESSED   0x00000018   Data   RW         4780    .data               player_system.o
    0x200001cc   COMPRESSED   0x00000080   Data   RW         4895    .data               graph_data.o
    0x2000024c   COMPRESSED   0x000001c0   Data   RW         4924    .data               role.o
    0x2000040c   COMPRESSED   0x00000048   Data   RW         5035    .data               role_manager.o
    0x20000454   COMPRESSED   0x00000004   Data   RW         5093    .data               role_system.o
    0x20000458   COMPRESSED   0x00000004   Data   RW         5132    .data               game.o
    0x2000045c   COMPRESSED   0x00000044   Data   RW         5158    .data               game_system.o
    0x200004a0   COMPRESSED   0x000002b4   Data   RW         5262    .data               option.o
    0x20000754   COMPRESSED   0x00000018   Data   RW         5382    .data               option_manager.o
    0x2000076c   COMPRESSED   0x000000a4   Data   RW         5499    .data               logic_control.o
    0x20000810   COMPRESSED   0x0000000c   Data   RW         5639    .data               cpuport.o
    0x2000081c   COMPRESSED   0x00000008   Data   RW         5656    .data               scheduler.o
    0x20000824   COMPRESSED   0x00000004   Data   RW         5712    .data               displaydev_init.o
    0x20000828   COMPRESSED   0x00000004   Data   RW         5925    .data               mc_w.l(rand.o)
    0x2000082c   COMPRESSED   0x00000004   Data   RW         6241    .data               mc_w.l(stdout.o)
    0x20000830   COMPRESSED   0x00000004   Data   RW         6246    .data               mc_w.l(mvars.o)
    0x20000834   COMPRESSED   0x00000004   Data   RW         6247    .data               mc_w.l(mvars.o)
    0x20000838        -       0x00000880   Zero   RW         3110    .bss                main.o
    0x200010b8        -       0x00000408   Zero   RW         3354    .bss                drive_usart.o
    0x200014c0        -       0x0000001c   Zero   RW         3834    .bss                rtc_system.o
    0x200014dc        -       0x00000018   Zero   RW         3902    .bss                led_device.o
    0x200014f4        -       0x0000000c   Zero   RW         4008    .bss                i2c_device.o
    0x20001500        -       0x00000030   Zero   RW         4086    .bss                button_device.o
    0x20001530        -       0x000001c0   Zero   RW         4235    .bss                input_buffer.o
    0x200016f0        -       0x00001000   Zero   RW         4257    .bss                oled.o
    0x200026f0        -       0x00000014   Zero   RW         4478    .bss                fontlib_manager.o
    0x20002704        -       0x00000014   Zero   RW         4536    .bss                show_text.o
    0x20002718        -       0x0000000c   Zero   RW         4622    .bss                beep_device.o
    0x20002724        -       0x00000030   Zero   RW         4667    .bss                decode.o
    0x20002754        -       0x00000068   Zero   RW         4716    .bss                player.o
    0x200027bc        -       0x00000014   Zero   RW         5131    .bss                game.o
    0x200027d0        -       0x00000054   Zero   RW         5215    .bss                node_manager.o
    0x20002824        -       0x00000054   Zero   RW         5380    .bss                option_manager.o
    0x20002878        -       0x00000120   Zero   RW         5445    .bss                message_manager.o
    0x20002998        -       0x0000001c   Zero   RW         5498    .bss                logic_control.o
    0x200029b4   COMPRESSED   0x00000004   PAD
    0x200029b8        -       0x00000200   Zero   RW            2    HEAP                startup_stm32f10x_md.o
    0x20002bb8        -       0x00000c00   Zero   RW            1    STACK               startup_stm32f10x_md.o


==============================================================================

Image component sizes


      Code (inc. data)   RO Data    RW Data    ZI Data      Debug   Object Name

       122         18       2048         20          0       3247   ascii_fontlib.o
        88         14          0         32          0       3032   beep.o
       176         74          0          0         12       2015   beep_device.o
        20          0          0          0          0        988   beep_system.o
       100         46          0         88          0       2568   button.o
       548         30          0          4         48       4150   button_device.o
       136         34          7         20          0       1707   button_input.o
        12          0          0          0          0        470   button_system.o
        58          0          0          0          0       3082   cal_beep.o
        12          0          0          0          0        509   cal_button.o
        44          0          0          0          0       2536   cal_i2c.o
        32          0          0          0          0       1917   cal_led.o
         8          0          0          0          0        436   cal_timer.o
       176         22          0          0          0        628   context_rvds.o
       496         18         48         48          0       3090   convert.o
         0          0          0          0          0       4508   core_cm3.o
        64          6          0         12          0       1765   cpuport.o
       460         44        104          0         48       5190   decode.o
       320         46          0          0          0       2647   dht11_device.o
       132         18          0         20          0       3293   display_device.o
       184         92          0          8          0       2383   display_system.o
       548        146          0          4          0       1107   displaydev_init.o
       114         14          0          4          0       2148   drive_delay.o
       162          6          0          0          0       2359   drive_gpio.o
       268         10          0          0          0       2102   drive_i2c.o
       166          0          0          0          0       1902   drive_pwm.o
       128          0          0          0          0        998   drive_rtc.o
       304         26          0          4          0       2771   drive_timer.o
       308         22          0          0       1032       4360   drive_usart.o
         6          0          0          0          0        508   encode_str.o
        76          8          0          0         20       1957   fontlib_manager.o
       152         74          0          4          0       2282   fontlib_system.o
        48         12          0          4         20        710   game.o
       472         96          0         68          0       4030   game_system.o
         0          0       4772        128          0       1359   graph_data.o
        60         12          0         44          0       2499   i2c.o
        88         10          0          0         12       2621   i2c_device.o
        20          0          0          0          0        978   i2c_system.o
       180         12          0          0        448       1762   input_buffer.o
        40          8          0          4          0       1538   input_device.o
        16          0          0          0          0        907   input_system.o
        68          4          0          0          0       2482   kal_beep.o
        12          0          0          0          0        509   kal_button.o
        36          0          0          0          0       1804   kal_i2c.o
        28          0          0          0          0       1385   kal_led.o
         8          0          0          0          0        436   kal_timer.o
        68         20          0         48          0       2192   led.o
        88         10          0          0         24       1957   led_device.o
        20          0          0          0          0        978   led_system.o
      2192       1026          0        164         28      15278   logic_control.o
       288        108          0          0       2176      14376   main.o
       648        280          0          0        288       3184   message_manager.o
       132         22          0          0          0       1631   misc.o
       108         22          0          0         84       2791   node_manager.o
       168         12          0         36       4096       2963   oled.o
       724         66          0          8          0       5882   oled_command.o
      2132        640          0        692          0      11492   option.o
       724        300         11         24         84       6702   option_manager.o
       506        116       2650         12        104       5429   player.o
      1098        252         13         24          0       8149   player_system.o
        44          0          0          0          0       1411   ring_buffer.o
       924         80         49        448          0      12013   role.o
       452         62          0         72          0       5649   role_manager.o
       128         52          0          4          0       2536   role_system.o
        58          0          0          0          0       1981   rtc_device.o
       148         48         10         12         28       2773   rtc_system.o
        68         14          0          8          0       1884   scheduler.o
       364          8          0          0          0       4577   show_graph.o
       318          4          0          0         20       3988   show_text.o
        36          8        236          0       3584        852   startup_stm32f10x_md.o
        16          0          0          0          0        505   stm32f10x_bkp.o
       510         26          0          0          0       5918   stm32f10x_dma.o
       306          0          0          0          0       3292   stm32f10x_gpio.o
       454         14          0          0          0       7419   stm32f10x_i2c.o
        42         10          0          0          0       3341   stm32f10x_it.o
        12          6          0          0          0        538   stm32f10x_pwr.o
       420         64          0         20          0       7983   stm32f10x_rcc.o
       260         48          0          0          0       5424   stm32f10x_rtc.o
       424         52          0          0          0       5083   stm32f10x_tim.o
       358          6          0          0          0       5617   stm32f10x_usart.o
       328         28          0          0          0     266881   system_stm32f10x.o
        64          0          0          0          0       1489   thread.o
       120         62          0          0          0        528   usart_init.o

    ----------------------------------------------------------------------
     21286       4388       9992       2088      12160     530361   Object Totals
         0          0         32          0          0          0   (incl. Generated)
        40          0         12          0          4          0   (incl. Padding)

    ----------------------------------------------------------------------

      Code (inc. data)   RO Data    RW Data    ZI Data      Debug   Library Member Name

        86          0          0          0          0          0   __dczerorl2.o
         0          0          0          0          0          0   entry.o
         0          0          0          0          0          0   entry10a.o
         0          0          0          0          0          0   entry11a.o
         8          4          0          0          0          0   entry2.o
         4          0          0          0          0          0   entry5.o
         0          0          0          0          0          0   entry7b.o
         0          0          0          0          0          0   entry8b.o
         8          4          0          0          0          0   entry9a.o
        30          0          0          0          0          0   handlers.o
        36          8          0          0          0         68   init.o
       108         16          0          0          0         84   malloc.o
        36          0          0          0          0         68   memcpya.o
         0          0          0          8          0          0   mvars.o
       472         14          0          0          0        184   printf3.o
        36         10          0          4          0        136   rand.o
         0          0          0          4          0          0   stdout.o
        28          0          0          0          0         76   strcmp.o
        44          0          0          0          0         80   uidiv.o

    ----------------------------------------------------------------------
       898         56          0         16          0        696   Library Totals
         2          0          0          0          0          0   (incl. Padding)

    ----------------------------------------------------------------------

      Code (inc. data)   RO Data    RW Data    ZI Data      Debug   Library Name

       896         56          0         16          0        696   mc_w.l

    ----------------------------------------------------------------------
       898         56          0         16          0        696   Library Totals

    ----------------------------------------------------------------------

==============================================================================


      Code (inc. data)   RO Data    RW Data    ZI Data      Debug   

     22184       4444       9992       2104      12160     512413   Grand Totals
     22184       4444       9992        740      12160     512413   ELF Image Totals (compressed)
     22184       4444       9992        740          0          0   ROM Totals

==============================================================================

    Total RO  Size (Code + RO Data)                32176 (  31.42kB)
    Total RW  Size (RW Data + ZI Data)             14264 (  13.93kB)
    Total ROM Size (Code + RO Data + RW Data)      32916 (  32.14kB)

==============================================================================

