
========================================================================

** ELF Header Information

    File Name: D:\Desktop\watch_wds\11_02_thread_unittest\Project\Objects\BH-F103.axf

    Machine class: ELFCLASS32 (32-bit)
    Data encoding: ELFDATA2LSB (Little endian)
    Header version: EV_CURRENT (Current version)
    Operating System ABI: none
    ABI Version: 0
    File Type: ET_EXEC (Executable) (2)
    Machine: EM_ARM (ARM)

    Image Entry point: 0x080000ed
    Flags: EF_ARM_HASENTRY + EF_ARM_ABI_FLOAT_SOFT (0x05000202)

    ARM ELF revision: 5 (ABI version 2)

    Conforms to Soft float procedure-call standard

    Built with
    Component: ARM Compiler 5.06 update 6 (build 750) Tool: armasm [4d35ec]
    Component: ARM Compiler 5.06 update 6 (build 750) Tool: armlink [4d35ed]

    Header size: 52 bytes (0x34)
    Program header entry size: 32 bytes (0x20)
    Section header entry size: 40 bytes (0x28)

    Program header entries: 1
    Section header entries: 16

    Program header offset: 657108 (0x000a06d4)
    Section header offset: 657140 (0x000a06f4)

    Section header string table index: 15

========================================================================

** Program header #0 (PT_LOAD) [PF_X + PF_W + PF_R + PF_ARM_ENTRY]
    Size : 41592 bytes (28500 bytes in file)
    Virtual address: 0x08000000 (Alignment 8)


========================================================================

** Section #1 'ER_IROM1' (SHT_PROGBITS) [SHF_ALLOC + SHF_EXECINSTR]
    Size   : 27824 bytes (alignment 4)
    Address: 0x08000000

    $d.realdata
    RESET
    __Vectors
        0x08000000:    200035c8    .5.     DCD    536884680
        0x08000004:    08000101    ....    DCD    134217985
        0x08000008:    0800215d    ]!..    DCD    134226269
        0x0800000c:    080019f1    ....    DCD    134224369
        0x08000010:    08001ff1    ....    DCD    134225905
        0x08000014:    080007a5    ....    DCD    134219685
        0x08000018:    08003687    .6..    DCD    134231687
        0x0800001c:    00000000    ....    DCD    0
        0x08000020:    00000000    ....    DCD    0
        0x08000024:    00000000    ....    DCD    0
        0x08000028:    00000000    ....    DCD    0
        0x0800002c:    08002e55    U...    DCD    134229589
        0x08000030:    08000c0f    ....    DCD    134220815
        0x08000034:    00000000    ....    DCD    0
        0x08000038:    08000175    u...    DCD    134218101
        0x0800003c:    08003197    .1..    DCD    134230423
        0x08000040:    0800011b    ....    DCD    134218011
        0x08000044:    0800011b    ....    DCD    134218011
        0x08000048:    0800011b    ....    DCD    134218011
        0x0800004c:    0800011b    ....    DCD    134218011
        0x08000050:    0800011b    ....    DCD    134218011
        0x08000054:    0800011b    ....    DCD    134218011
        0x08000058:    0800011b    ....    DCD    134218011
        0x0800005c:    0800011b    ....    DCD    134218011
        0x08000060:    0800011b    ....    DCD    134218011
        0x08000064:    0800011b    ....    DCD    134218011
        0x08000068:    0800011b    ....    DCD    134218011
        0x0800006c:    0800011b    ....    DCD    134218011
        0x08000070:    0800011b    ....    DCD    134218011
        0x08000074:    0800011b    ....    DCD    134218011
        0x08000078:    0800011b    ....    DCD    134218011
        0x0800007c:    0800011b    ....    DCD    134218011
        0x08000080:    080009e5    ....    DCD    134220261
        0x08000084:    0800011b    ....    DCD    134218011
        0x08000088:    0800011b    ....    DCD    134218011
        0x0800008c:    0800011b    ....    DCD    134218011
        0x08000090:    0800011b    ....    DCD    134218011
        0x08000094:    0800011b    ....    DCD    134218011
        0x08000098:    0800011b    ....    DCD    134218011
        0x0800009c:    0800011b    ....    DCD    134218011
        0x080000a0:    0800011b    ....    DCD    134218011
        0x080000a4:    0800011b    ....    DCD    134218011
        0x080000a8:    0800011b    ....    DCD    134218011
        0x080000ac:    0800011b    ....    DCD    134218011
        0x080000b0:    080031f9    .1..    DCD    134230521
        0x080000b4:    0800011b    ....    DCD    134218011
        0x080000b8:    0800011b    ....    DCD    134218011
        0x080000bc:    0800011b    ....    DCD    134218011
        0x080000c0:    0800011b    ....    DCD    134218011
        0x080000c4:    0800011b    ....    DCD    134218011
        0x080000c8:    0800011b    ....    DCD    134218011
        0x080000cc:    0800011b    ....    DCD    134218011
        0x080000d0:    0800011b    ....    DCD    134218011
        0x080000d4:    08003475    u4..    DCD    134231157
        0x080000d8:    0800011b    ....    DCD    134218011
        0x080000dc:    0800011b    ....    DCD    134218011
        0x080000e0:    0800011b    ....    DCD    134218011
        0x080000e4:    0800011b    ....    DCD    134218011
        0x080000e8:    0800011b    ....    DCD    134218011
    $t
    .ARM.Collect$$$$00000000
    .ARM.Collect$$$$00000001
    __Vectors_End
    __main
    _main_stk
        0x080000ec:    f8dfd00c    ....    LDR      sp,__lit__00000000 ; [0x80000fc] = 0x200035c8
    .ARM.Collect$$$$00000004
    _main_scatterload
        0x080000f0:    f000f8b0    ....    BL       __scatterload ; 0x8000254
    .ARM.Collect$$$$00000008
    .ARM.Collect$$$$0000000A
    .ARM.Collect$$$$0000000B
    __main_after_scatterload
    _main_clock
    _main_cpp_init
    _main_init
        0x080000f4:    4800        .H      LDR      r0,[pc,#0] ; [0x80000f8] = 0x8003efd
        0x080000f6:    4700        .G      BX       r0
    $d
        0x080000f8:    08003efd    .>..    DCD    134233853
    .ARM.Collect$$$$00002712
    __lit__00000000
    .ARM.Collect$$$$0000000D
    .ARM.Collect$$$$0000000F
    __rt_final_cpp
    __rt_final_exit
        0x080000fc:    200035c8    .5.     DCD    536884680
    $t
    .text
    Reset_Handler
        0x08000100:    4806        .H      LDR      r0,[pc,#24] ; [0x800011c] = 0x8003199
        0x08000102:    4780        .G      BLX      r0
        0x08000104:    4806        .H      LDR      r0,[pc,#24] ; [0x8000120] = 0x80000ed
        0x08000106:    4700        .G      BX       r0
        0x08000108:    e7fe        ..      B        0x8000108 ; Reset_Handler + 8
        0x0800010a:    e7fe        ..      B        0x800010a ; Reset_Handler + 10
        0x0800010c:    e7fe        ..      B        0x800010c ; Reset_Handler + 12
        0x0800010e:    e7fe        ..      B        0x800010e ; Reset_Handler + 14
        0x08000110:    e7fe        ..      B        0x8000110 ; Reset_Handler + 16
        0x08000112:    e7fe        ..      B        0x8000112 ; Reset_Handler + 18
        0x08000114:    e7fe        ..      B        0x8000114 ; Reset_Handler + 20
        0x08000116:    e7fe        ..      B        0x8000116 ; Reset_Handler + 22
        0x08000118:    e7fe        ..      B        0x8000118 ; Reset_Handler + 24
    ADC1_2_IRQHandler
    CAN1_RX1_IRQHandler
    CAN1_SCE_IRQHandler
    DMA1_Channel1_IRQHandler
    DMA1_Channel2_IRQHandler
    DMA1_Channel3_IRQHandler
    DMA1_Channel4_IRQHandler
    DMA1_Channel5_IRQHandler
    DMA1_Channel7_IRQHandler
    EXTI0_IRQHandler
    EXTI15_10_IRQHandler
    EXTI1_IRQHandler
    EXTI2_IRQHandler
    EXTI3_IRQHandler
    EXTI4_IRQHandler
    EXTI9_5_IRQHandler
    FLASH_IRQHandler
    I2C1_ER_IRQHandler
    I2C1_EV_IRQHandler
    I2C2_ER_IRQHandler
    I2C2_EV_IRQHandler
    PVD_IRQHandler
    RCC_IRQHandler
    RTCAlarm_IRQHandler
    RTC_IRQHandler
    SPI1_IRQHandler
    SPI2_IRQHandler
    TAMPER_IRQHandler
    TIM1_BRK_IRQHandler
    TIM1_CC_IRQHandler
    TIM1_TRG_COM_IRQHandler
    TIM1_UP_IRQHandler
    TIM3_IRQHandler
    TIM4_IRQHandler
    USART2_IRQHandler
    USART3_IRQHandler
    USBWakeUp_IRQHandler
    USB_HP_CAN1_TX_IRQHandler
    USB_LP_CAN1_RX0_IRQHandler
    WWDG_IRQHandler
        0x0800011a:    e7fe        ..      B        ADC1_2_IRQHandler ; 0x800011a
    $d
        0x0800011c:    08003199    .1..    DCD    134230425
        0x08000120:    080000ed    ....    DCD    134217965
    $t
    .text
    rt_hw_context_switch_to
        0x08000124:    4922        "I      LDR      r1,[pc,#136] ; [0x80001b0] = 0x20000784
        0x08000126:    6008        .`      STR      r0,[r1,#0]
        0x08000128:    4922        "I      LDR      r1,[pc,#136] ; [0x80001b4] = 0x20000780
        0x0800012a:    f04f0000    O...    MOV      r0,#0
        0x0800012e:    6008        .`      STR      r0,[r1,#0]
        0x08000130:    4921        !I      LDR      r1,[pc,#132] ; [0x80001b8] = 0x20000788
        0x08000132:    f04f0001    O...    MOV      r0,#1
        0x08000136:    6008        .`      STR      r0,[r1,#0]
        0x08000138:    4820         H      LDR      r0,[pc,#128] ; [0x80001bc] = 0xe000ed20
        0x0800013a:    f44f017f    O...    MOV      r1,#0xff0000
        0x0800013e:    f8d02000    ...     LDR.W    r2,[r0,#0]
        0x08000142:    ea410102    A...    ORR      r1,r1,r2
        0x08000146:    6001        .`      STR      r1,[r0,#0]
        0x08000148:    481d        .H      LDR      r0,[pc,#116] ; [0x80001c0] = 0xe000ed04
        0x0800014a:    f04f5180    O..Q    MOV      r1,#0x10000000
        0x0800014e:    6001        .`      STR      r1,[r0,#0]
        0x08000150:    b661        a.      CPSIE    f
        0x08000152:    b662        b.      CPSIE    i
    rt_hw_context_switch
        0x08000154:    4a18        .J      LDR      r2,[pc,#96] ; [0x80001b8] = 0x20000788
        0x08000156:    6813        .h      LDR      r3,[r2,#0]
        0x08000158:    2b01        .+      CMP      r3,#1
        0x0800015a:    d004        ..      BEQ      0x8000166 ; rt_hw_context_switch + 18
        0x0800015c:    f04f0301    O...    MOV      r3,#1
        0x08000160:    6013        .`      STR      r3,[r2,#0]
        0x08000162:    4a14        .J      LDR      r2,[pc,#80] ; [0x80001b4] = 0x20000780
        0x08000164:    6010        .`      STR      r0,[r2,#0]
        0x08000166:    4a12        .J      LDR      r2,[pc,#72] ; [0x80001b0] = 0x20000784
        0x08000168:    6011        .`      STR      r1,[r2,#0]
        0x0800016a:    4815        .H      LDR      r0,[pc,#84] ; [0x80001c0] = 0xe000ed04
        0x0800016c:    f04f5180    O..Q    MOV      r1,#0x10000000
        0x08000170:    6001        .`      STR      r1,[r0,#0]
        0x08000172:    4770        pG      BX       lr
    PendSV_Handler
        0x08000174:    f3ef8210    ....    MRS      r2,PRIMASK
        0x08000178:    b672        r.      CPSID    i
        0x0800017a:    480f        .H      LDR      r0,[pc,#60] ; [0x80001b8] = 0x20000788
        0x0800017c:    6801        .h      LDR      r1,[r0,#0]
        0x0800017e:    b191        ..      CBZ      r1,0x80001a6 ; PendSV_Handler + 50
        0x08000180:    f04f0100    O...    MOV      r1,#0
        0x08000184:    6001        .`      STR      r1,[r0,#0]
        0x08000186:    480b        .H      LDR      r0,[pc,#44] ; [0x80001b4] = 0x20000780
        0x08000188:    6801        .h      LDR      r1,[r0,#0]
        0x0800018a:    b129        ).      CBZ      r1,0x8000198 ; PendSV_Handler + 36
        0x0800018c:    f3ef8109    ....    MRS      r1,PSP
        0x08000190:    e9210ff0    !...    STMDB    r1!,{r4-r11}
        0x08000194:    6800        .h      LDR      r0,[r0,#0]
        0x08000196:    6001        .`      STR      r1,[r0,#0]
        0x08000198:    4905        .I      LDR      r1,[pc,#20] ; [0x80001b0] = 0x20000784
        0x0800019a:    6809        .h      LDR      r1,[r1,#0]
        0x0800019c:    6809        .h      LDR      r1,[r1,#0]
        0x0800019e:    e8b10ff0    ....    LDM      r1!,{r4-r11}
        0x080001a2:    f3818809    ....    MSR      PSP,r1
        0x080001a6:    f3828810    ....    MSR      PRIMASK,r2
        0x080001aa:    f04e0e04    N...    ORR      lr,lr,#4
        0x080001ae:    4770        pG      BX       lr
    $d
        0x080001b0:    20000784    ...     DCD    536872836
        0x080001b4:    20000780    ...     DCD    536872832
        0x080001b8:    20000788    ...     DCD    536872840
        0x080001bc:    e000ed20     ...    DCD    3758157088
        0x080001c0:    e000ed04    ....    DCD    3758157060
    $t
    .text
    rand
        0x080001c4:    4906        .I      LDR      r1,[pc,#24] ; [0x80001e0] = 0x20000794
        0x080001c6:    4a07        .J      LDR      r2,[pc,#28] ; [0x80001e4] = 0x41c64e6d
        0x080001c8:    6808        .h      LDR      r0,[r1,#0]
        0x080001ca:    4350        PC      MULS     r0,r2,r0
        0x080001cc:    f2430239    C.9.    MOV      r2,#0x3039
        0x080001d0:    4410        .D      ADD      r0,r0,r2
        0x080001d2:    6008        .`      STR      r0,[r1,#0]
        0x080001d4:    0840        @.      LSRS     r0,r0,#1
        0x080001d6:    4770        pG      BX       lr
    srand
        0x080001d8:    4901        .I      LDR      r1,[pc,#4] ; [0x80001e0] = 0x20000794
        0x080001da:    6008        .`      STR      r0,[r1,#0]
        0x080001dc:    4770        pG      BX       lr
    $d
        0x080001de:    0000        ..      DCW    0
        0x080001e0:    20000794    ...     DCD    536872852
        0x080001e4:    41c64e6d    mN.A    DCD    1103515245
    $t
    .text
    __aeabi_memcpy
    __aeabi_memcpy4
    __aeabi_memcpy8
        0x080001e8:    ea400301    @...    ORR      r3,r0,r1
        0x080001ec:    079b        ..      LSLS     r3,r3,#30
        0x080001ee:    d003        ..      BEQ      0x80001f8 ; __aeabi_memcpy + 16
        0x080001f0:    e009        ..      B        0x8000206 ; __aeabi_memcpy + 30
        0x080001f2:    c908        ..      LDM      r1!,{r3}
        0x080001f4:    1f12        ..      SUBS     r2,r2,#4
        0x080001f6:    c008        ..      STM      r0!,{r3}
        0x080001f8:    2a04        .*      CMP      r2,#4
        0x080001fa:    d2fa        ..      BCS      0x80001f2 ; __aeabi_memcpy + 10
        0x080001fc:    e003        ..      B        0x8000206 ; __aeabi_memcpy + 30
        0x080001fe:    f8113b01    ...;    LDRB     r3,[r1],#1
        0x08000202:    f8003b01    ...;    STRB     r3,[r0],#1
        0x08000206:    1e52        R.      SUBS     r2,r2,#1
        0x08000208:    d2f9        ..      BCS      0x80001fe ; __aeabi_memcpy + 22
        0x0800020a:    4770        pG      BX       lr
    .text
    strcmp
        0x0800020c:    b510        ..      PUSH     {r4,lr}
        0x0800020e:    2200        ."      MOVS     r2,#0
        0x08000210:    e000        ..      B        0x8000214 ; strcmp + 8
        0x08000212:    1c52        R.      ADDS     r2,r2,#1
        0x08000214:    5c83        .\      LDRB     r3,[r0,r2]
        0x08000216:    5c8c        .\      LDRB     r4,[r1,r2]
        0x08000218:    42a3        .B      CMP      r3,r4
        0x0800021a:    d101        ..      BNE      0x8000220 ; strcmp + 20
        0x0800021c:    2b00        .+      CMP      r3,#0
        0x0800021e:    d1f8        ..      BNE      0x8000212 ; strcmp + 6
        0x08000220:    b2d8        ..      UXTB     r0,r3
        0x08000222:    b2e1        ..      UXTB     r1,r4
        0x08000224:    1a40        @.      SUBS     r0,r0,r1
        0x08000226:    bd10        ..      POP      {r4,pc}
    .text
    __aeabi_uidiv
    __aeabi_uidivmod
        0x08000228:    b530        0.      PUSH     {r4,r5,lr}
        0x0800022a:    460b        .F      MOV      r3,r1
        0x0800022c:    4601        .F      MOV      r1,r0
        0x0800022e:    2000        .       MOVS     r0,#0
        0x08000230:    2220         "      MOVS     r2,#0x20
        0x08000232:    2401        .$      MOVS     r4,#1
        0x08000234:    e009        ..      B        0x800024a ; __aeabi_uidiv + 34
        0x08000236:    fa21f502    !...    LSR      r5,r1,r2
        0x0800023a:    429d        .B      CMP      r5,r3
        0x0800023c:    d305        ..      BCC      0x800024a ; __aeabi_uidiv + 34
        0x0800023e:    fa03f502    ....    LSL      r5,r3,r2
        0x08000242:    1b49        I.      SUBS     r1,r1,r5
        0x08000244:    fa04f502    ....    LSL      r5,r4,r2
        0x08000248:    4428        (D      ADD      r0,r0,r5
        0x0800024a:    1e15        ..      SUBS     r5,r2,#0
        0x0800024c:    f1a20201    ....    SUB      r2,r2,#1
        0x08000250:    dcf1        ..      BGT      0x8000236 ; __aeabi_uidiv + 14
        0x08000252:    bd30        0.      POP      {r4,r5,pc}
    .text
    __scatterload
    __scatterload_rt2
        0x08000254:    4c06        .L      LDR      r4,[pc,#24] ; [0x8000270] = 0x8006c90
        0x08000256:    4d07        .M      LDR      r5,[pc,#28] ; [0x8000274] = 0x8006cb0
        0x08000258:    e006        ..      B        0x8000268 ; __scatterload + 20
        0x0800025a:    68e0        .h      LDR      r0,[r4,#0xc]
        0x0800025c:    f0400301    @...    ORR      r3,r0,#1
        0x08000260:    e8940007    ....    LDM      r4,{r0-r2}
        0x08000264:    4798        .G      BLX      r3
        0x08000266:    3410        .4      ADDS     r4,r4,#0x10
        0x08000268:    42ac        .B      CMP      r4,r5
        0x0800026a:    d3f6        ..      BCC      0x800025a ; __scatterload + 6
        0x0800026c:    f7ffff42    ..B.    BL       __main_after_scatterload ; 0x80000f4
    $d
        0x08000270:    08006c90    .l..    DCD    134245520
        0x08000274:    08006cb0    .l..    DCD    134245552
    $t
    .text
    __decompress
    __decompress1
        0x08000278:    b570        p.      PUSH     {r4-r6,lr}
        0x0800027a:    188c        ..      ADDS     r4,r1,r2
        0x0800027c:    f8105b01    ...[    LDRB     r5,[r0],#1
        0x08000280:    f0150307    ....    ANDS     r3,r5,#7
        0x08000284:    d101        ..      BNE      0x800028a ; __decompress + 18
        0x08000286:    f8103b01    ...;    LDRB     r3,[r0],#1
        0x0800028a:    112a        *.      ASRS     r2,r5,#4
        0x0800028c:    d106        ..      BNE      0x800029c ; __decompress + 36
        0x0800028e:    f8102b01    ...+    LDRB     r2,[r0],#1
        0x08000292:    e003        ..      B        0x800029c ; __decompress + 36
        0x08000294:    f8106b01    ...k    LDRB     r6,[r0],#1
        0x08000298:    f8016b01    ...k    STRB     r6,[r1],#1
        0x0800029c:    1e5b        [.      SUBS     r3,r3,#1
        0x0800029e:    d1f9        ..      BNE      0x8000294 ; __decompress + 28
        0x080002a0:    072b        +.      LSLS     r3,r5,#28
        0x080002a2:    d405        ..      BMI      0x80002b0 ; __decompress + 56
        0x080002a4:    2300        .#      MOVS     r3,#0
        0x080002a6:    1e52        R.      SUBS     r2,r2,#1
        0x080002a8:    d40d        ..      BMI      0x80002c6 ; __decompress + 78
        0x080002aa:    f8013b01    ...;    STRB     r3,[r1],#1
        0x080002ae:    e7fa        ..      B        0x80002a6 ; __decompress + 46
        0x080002b0:    f8103b01    ...;    LDRB     r3,[r0],#1
        0x080002b4:    1acb        ..      SUBS     r3,r1,r3
        0x080002b6:    1c92        ..      ADDS     r2,r2,#2
        0x080002b8:    e003        ..      B        0x80002c2 ; __decompress + 74
        0x080002ba:    f8135b01    ...[    LDRB     r5,[r3],#1
        0x080002be:    f8015b01    ...[    STRB     r5,[r1],#1
        0x080002c2:    1e52        R.      SUBS     r2,r2,#1
        0x080002c4:    d5f9        ..      BPL      0x80002ba ; __decompress + 66
        0x080002c6:    42a1        .B      CMP      r1,r4
        0x080002c8:    d3d8        ..      BCC      0x800027c ; __decompress + 4
        0x080002ca:    2000        .       MOVS     r0,#0
        0x080002cc:    bd70        p.      POP      {r4-r6,pc}
    i.ADDBeepDevice
    ADDBeepDevice
        0x080002ce:    b510        ..      PUSH     {r4,lr}
        0x080002d0:    f000f840    ..@.    BL       AddBeepDeviceBeep ; 0x8000354
        0x080002d4:    bd10        ..      POP      {r4,pc}
    i.ADDDisplayDevice
    ADDDisplayDevice
        0x080002d6:    b510        ..      PUSH     {r4,lr}
        0x080002d8:    f000f87a    ..z.    BL       AddDisplayDeviceOLED ; 0x80003d0
        0x080002dc:    bd10        ..      POP      {r4,pc}
    i.ADDFontLib
    ADDFontLib
        0x080002de:    b510        ..      PUSH     {r4,lr}
        0x080002e0:    f000f882    ....    BL       AddFontLibASCII ; 0x80003e8
        0x080002e4:    bd10        ..      POP      {r4,pc}
    i.ADDI2CDevice
    ADDI2CDevice
        0x080002e6:    b510        ..      PUSH     {r4,lr}
        0x080002e8:    f000f88a    ....    BL       AddI2CDeviceI2C1 ; 0x8000400
        0x080002ec:    bd10        ..      POP      {r4,pc}
        0x080002ee:    0000        ..      MOVS     r0,r0
    i.ASCIIGetFontBitMap
    ASCIIGetFontBitMap
        0x080002f0:    e92d41f0    -..A    PUSH     {r4-r8,lr}
        0x080002f4:    4605        .F      MOV      r5,r0
        0x080002f6:    460c        .F      MOV      r4,r1
        0x080002f8:    2608        .&      MOVS     r6,#8
        0x080002fa:    2710        .'      MOVS     r7,#0x10
        0x080002fc:    4810        .H      LDR      r0,[pc,#64] ; [0x8000340] = 0x80046ec
        0x080002fe:    eb001805    ....    ADD      r8,r0,r5,LSL #4
        0x08000302:    b1cc        ..      CBZ      r4,0x8000338 ; ASCIIGetFontBitMap + 72
        0x08000304:    6920         i      LDR      r0,[r4,#0x10]
        0x08000306:    6020         `      STR      r0,[r4,#0]
        0x08000308:    6960        `i      LDR      r0,[r4,#0x14]
        0x0800030a:    1bc0        ..      SUBS     r0,r0,r7
        0x0800030c:    1c40        @.      ADDS     r0,r0,#1
        0x0800030e:    6060        ``      STR      r0,[r4,#4]
        0x08000310:    6920         i      LDR      r0,[r4,#0x10]
        0x08000312:    4430        0D      ADD      r0,r0,r6
        0x08000314:    61a0        .a      STR      r0,[r4,#0x18]
        0x08000316:    6960        `i      LDR      r0,[r4,#0x14]
        0x08000318:    61e0        .a      STR      r0,[r4,#0x1c]
        0x0800031a:    60a6        .`      STR      r6,[r4,#8]
        0x0800031c:    60e7        .`      STR      r7,[r4,#0xc]
        0x0800031e:    6a20         j      LDR      r0,[r4,#0x20]
        0x08000320:    b910        ..      CBNZ     r0,0x8000328 ; ASCIIGetFontBitMap + 56
        0x08000322:    f8c48020    .. .    STR      r8,[r4,#0x20]
        0x08000326:    e004        ..      B        0x8000332 ; ASCIIGetFontBitMap + 66
        0x08000328:    2210        ."      MOVS     r2,#0x10
        0x0800032a:    4641        AF      MOV      r1,r8
        0x0800032c:    6a20         j      LDR      r0,[r4,#0x20]
        0x0800032e:    f7ffff5b    ..[.    BL       __aeabi_memcpy ; 0x80001e8
        0x08000332:    2000        .       MOVS     r0,#0
        0x08000334:    e8bd81f0    ....    POP      {r4-r8,pc}
        0x08000338:    f04f30ff    O..0    MOV      r0,#0xffffffff
        0x0800033c:    e7fa        ..      B        0x8000334 ; ASCIIGetFontBitMap + 68
    $d
        0x0800033e:    0000        ..      DCW    0
        0x08000340:    080046ec    .F..    DCD    134235884
    $t
    i.ASCIIGetFontSize
    ASCIIGetFontSize
        0x08000344:    b108        ..      CBZ      r0,0x800034a ; ASCIIGetFontSize + 6
        0x08000346:    2208        ."      MOVS     r2,#8
        0x08000348:    6002        .`      STR      r2,[r0,#0]
        0x0800034a:    b109        ..      CBZ      r1,0x8000350 ; ASCIIGetFontSize + 12
        0x0800034c:    2210        ."      MOVS     r2,#0x10
        0x0800034e:    600a        .`      STR      r2,[r1,#0]
        0x08000350:    4770        pG      BX       lr
        0x08000352:    0000        ..      MOVS     r0,r0
    i.AddBeepDeviceBeep
    AddBeepDeviceBeep
        0x08000354:    b510        ..      PUSH     {r4,lr}
        0x08000356:    a104        ..      ADR      r1,{pc}+0x12 ; 0x8000368
        0x08000358:    4805        .H      LDR      r0,[pc,#20] ; [0x8000370] = 0x20000148
        0x0800035a:    f000f91d    ....    BL       BeepDeviceRegister ; 0x8000598
        0x0800035e:    4804        .H      LDR      r0,[pc,#16] ; [0x8000370] = 0x20000148
        0x08000360:    69c1        .i      LDR      r1,[r0,#0x1c]
        0x08000362:    4788        .G      BLX      r1
        0x08000364:    bd10        ..      POP      {r4,pc}
    $d
        0x08000366:    0000        ..      DCW    0
        0x08000368:    70656562    beep    DCD    1885693282
        0x0800036c:    00000000    ....    DCD    0
        0x08000370:    20000148    H..     DCD    536871240
    $t
    i.AddButtonDevice
    AddButtonDevice
        0x08000374:    b510        ..      PUSH     {r4,lr}
        0x08000376:    f003f9f9    ....    BL       __ButtonDevcieManagerInit ; 0x800376c
        0x0800037a:    f000f801    ....    BL       AddButtonDeviceKEY ; 0x8000380
        0x0800037e:    bd10        ..      POP      {r4,pc}
    i.AddButtonDeviceKEY
    AddButtonDeviceKEY
        0x08000380:    b510        ..      PUSH     {r4,lr}
        0x08000382:    a106        ..      ADR      r1,{pc}+0x1a ; 0x800039c
        0x08000384:    4807        .H      LDR      r0,[pc,#28] ; [0x80003a4] = 0x2000004c
        0x08000386:    f000fa4b    ..K.    BL       ButtonRegister ; 0x8000820
        0x0800038a:    a107        ..      ADR      r1,{pc}+0x1e ; 0x80003a8
        0x0800038c:    4808        .H      LDR      r0,[pc,#32] ; [0x80003b0] = 0x20000068
        0x0800038e:    f000fa47    ..G.    BL       ButtonRegister ; 0x8000820
        0x08000392:    a108        ..      ADR      r1,{pc}+0x22 ; 0x80003b4
        0x08000394:    4809        .H      LDR      r0,[pc,#36] ; [0x80003bc] = 0x20000084
        0x08000396:    f000fa43    ..C.    BL       ButtonRegister ; 0x8000820
        0x0800039a:    bd10        ..      POP      {r4,pc}
    $d
        0x0800039c:    3159454b    KEY1    DCD    827934027
        0x080003a0:    00000000    ....    DCD    0
        0x080003a4:    2000004c    L..     DCD    536870988
        0x080003a8:    3259454b    KEY2    DCD    844711243
        0x080003ac:    00000000    ....    DCD    0
        0x080003b0:    20000068    h..     DCD    536871016
        0x080003b4:    3359454b    KEY3    DCD    861488459
        0x080003b8:    00000000    ....    DCD    0
        0x080003bc:    20000084    ...     DCD    536871044
    $t
    i.AddButtonInputDevice
    AddButtonInputDevice
        0x080003c0:    b510        ..      PUSH     {r4,lr}
        0x080003c2:    4802        .H      LDR      r0,[pc,#8] ; [0x80003cc] = 0x200000a4
        0x080003c4:    f001fce8    ....    BL       InputDeviceRegister ; 0x8001d98
        0x080003c8:    bd10        ..      POP      {r4,pc}
    $d
        0x080003ca:    0000        ..      DCW    0
        0x080003cc:    200000a4    ...     DCD    536871076
    $t
    i.AddDisplayDeviceOLED
    AddDisplayDeviceOLED
        0x080003d0:    b510        ..      PUSH     {r4,lr}
        0x080003d2:    a102        ..      ADR      r1,{pc}+0xa ; 0x80003dc
        0x080003d4:    4803        .H      LDR      r0,[pc,#12] ; [0x80003e4] = 0x200000e8
        0x080003d6:    f000fdb1    ....    BL       DisplayDeviceRegister ; 0x8000f3c
        0x080003da:    bd10        ..      POP      {r4,pc}
    $d
        0x080003dc:    64656c6f    oled    DCD    1684368495
        0x080003e0:    00000000    ....    DCD    0
        0x080003e4:    200000e8    ...     DCD    536871144
    $t
    i.AddFontLibASCII
    AddFontLibASCII
        0x080003e8:    b510        ..      PUSH     {r4,lr}
        0x080003ea:    a102        ..      ADR      r1,{pc}+0xa ; 0x80003f4
        0x080003ec:    4803        .H      LDR      r0,[pc,#12] ; [0x80003fc] = 0x20000130
        0x080003ee:    f000fe0d    ....    BL       FontLibRegister ; 0x800100c
        0x080003f2:    bd10        ..      POP      {r4,pc}
    $d
        0x080003f4:    69637361    asci    DCD    1768125281
        0x080003f8:    00000069    i...    DCD    105
        0x080003fc:    20000130    0..     DCD    536871216
    $t
    i.AddI2CDeviceI2C1
    AddI2CDeviceI2C1
        0x08000400:    b510        ..      PUSH     {r4,lr}
        0x08000402:    a102        ..      ADR      r1,{pc}+0xa ; 0x800040c
        0x08000404:    4803        .H      LDR      r0,[pc,#12] ; [0x8000414] = 0x200000bc
        0x08000406:    f001fb69    ..i.    BL       I2CDeviceRegister ; 0x8001adc
        0x0800040a:    bd10        ..      POP      {r4,pc}
    $d
        0x0800040c:    31633269    i2c1    DCD    828584553
        0x08000410:    00000000    ....    DCD    0
        0x08000414:    200000bc    ...     DCD    536871100
    $t
    i.AddInputDevice
    AddInputDevice
        0x08000418:    b510        ..      PUSH     {r4,lr}
        0x0800041a:    f7ffffd1    ....    BL       AddButtonInputDevice ; 0x80003c0
        0x0800041e:    bd10        ..      POP      {r4,pc}
    i.AddLedDevice
    AddLedDevice
        0x08000420:    b510        ..      PUSH     {r4,lr}
        0x08000422:    f000f801    ....    BL       AddLedDeviceToManager ; 0x8000428
        0x08000426:    bd10        ..      POP      {r4,pc}
    i.AddLedDeviceToManager
    AddLedDeviceToManager
        0x08000428:    b510        ..      PUSH     {r4,lr}
        0x0800042a:    a104        ..      ADR      r1,{pc}+0x12 ; 0x800043c
        0x0800042c:    4805        .H      LDR      r0,[pc,#20] ; [0x8000444] = 0x20000018
        0x0800042e:    f001fd15    ....    BL       LedDeviceRegister ; 0x8001e5c
        0x08000432:    a105        ..      ADR      r1,{pc}+0x16 ; 0x8000448
        0x08000434:    4805        .H      LDR      r0,[pc,#20] ; [0x800044c] = 0x20000030
        0x08000436:    f001fd11    ....    BL       LedDeviceRegister ; 0x8001e5c
        0x0800043a:    bd10        ..      POP      {r4,pc}
    $d
        0x0800043c:    54494857    WHIT    DCD    1414088791
        0x08000440:    00000045    E...    DCD    69
        0x08000444:    20000018    ...     DCD    536870936
        0x08000448:    00444552    RED.    DCD    4474194
        0x0800044c:    20000030    0..     DCD    536870960
    $t
    i.AddOptionToManager
    AddOptionToManager
        0x08000450:    b510        ..      PUSH     {r4,lr}
        0x08000452:    a112        ..      ADR      r1,{pc}+0x4a ; 0x800049c
        0x08000454:    4813        .H      LDR      r0,[pc,#76] ; [0x80004a4] = 0x20000554
        0x08000456:    f001ffb3    ....    BL       OptionRegister ; 0x80023c0
        0x0800045a:    a113        ..      ADR      r1,{pc}+0x4e ; 0x80004a8
        0x0800045c:    4815        .H      LDR      r0,[pc,#84] ; [0x80004b4] = 0x20000590
        0x0800045e:    f001ffaf    ....    BL       OptionRegister ; 0x80023c0
        0x08000462:    a115        ..      ADR      r1,{pc}+0x56 ; 0x80004b8
        0x08000464:    4816        .H      LDR      r0,[pc,#88] ; [0x80004c0] = 0x200005cc
        0x08000466:    f001ffab    ....    BL       OptionRegister ; 0x80023c0
        0x0800046a:    a116        ..      ADR      r1,{pc}+0x5a ; 0x80004c4
        0x0800046c:    4817        .H      LDR      r0,[pc,#92] ; [0x80004cc] = 0x20000608
        0x0800046e:    f001ffa7    ....    BL       OptionRegister ; 0x80023c0
        0x08000472:    a117        ..      ADR      r1,{pc}+0x5e ; 0x80004d0
        0x08000474:    4817        .H      LDR      r0,[pc,#92] ; [0x80004d4] = 0x20000644
        0x08000476:    f001ffa3    ....    BL       OptionRegister ; 0x80023c0
        0x0800047a:    a117        ..      ADR      r1,{pc}+0x5e ; 0x80004d8
        0x0800047c:    4818        .H      LDR      r0,[pc,#96] ; [0x80004e0] = 0x20000680
        0x0800047e:    f001ff9f    ....    BL       OptionRegister ; 0x80023c0
        0x08000482:    a118        ..      ADR      r1,{pc}+0x62 ; 0x80004e4
        0x08000484:    481a        .H      LDR      r0,[pc,#104] ; [0x80004f0] = 0x2000069c
        0x08000486:    f001ff9b    ....    BL       OptionRegister ; 0x80023c0
        0x0800048a:    a11a        ..      ADR      r1,{pc}+0x6a ; 0x80004f4
        0x0800048c:    481c        .H      LDR      r0,[pc,#112] ; [0x8000500] = 0x200006b8
        0x0800048e:    f001ff97    ....    BL       OptionRegister ; 0x80023c0
        0x08000492:    a11c        ..      ADR      r1,{pc}+0x72 ; 0x8000504
        0x08000494:    481e        .H      LDR      r0,[pc,#120] ; [0x8000510] = 0x200006d4
        0x08000496:    f001ff93    ....    BL       OptionRegister ; 0x80023c0
        0x0800049a:    bd10        ..      POP      {r4,pc}
    $d
        0x0800049c:    656d6f68    home    DCD    1701670760
        0x080004a0:    00000000    ....    DCD    0
        0x080004a4:    20000554    T..     DCD    536872276
        0x080004a8:    706d6574    temp    DCD    1886217588
        0x080004ac:    72757461    atur    DCD    1920300129
        0x080004b0:    00000065    e...    DCD    101
        0x080004b4:    20000590    ...     DCD    536872336
        0x080004b8:    656d6167    game    DCD    1701667175
        0x080004bc:    00000000    ....    DCD    0
        0x080004c0:    200005cc    ...     DCD    536872396
        0x080004c4:    79616c70    play    DCD    2036427888
        0x080004c8:    00007265    er..    DCD    29285
        0x080004cc:    20000608    ...     DCD    536872456
        0x080004d0:    00746573    set.    DCD    7628147
        0x080004d4:    20000644    D..     DCD    536872516
        0x080004d8:    6f666e69    info    DCD    1868983913
        0x080004dc:    00000000    ....    DCD    0
        0x080004e0:    20000680    ...     DCD    536872576
        0x080004e4:    656d6167    game    DCD    1701667175
        0x080004e8:    6174735f    _sta    DCD    1635021663
        0x080004ec:    00007472    rt..    DCD    29810
        0x080004f0:    2000069c    ...     DCD    536872604
        0x080004f4:    656d6167    game    DCD    1701667175
        0x080004f8:    7465735f    _set    DCD    1952805727
        0x080004fc:    00000000    ....    DCD    0
        0x08000500:    200006b8    ...     DCD    536872632
        0x08000504:    656d6167    game    DCD    1701667175
        0x08000508:    666e695f    _inf    DCD    1718511967
        0x0800050c:    0000006f    o...    DCD    111
        0x08000510:    200006d4    ...     DCD    536872660
    $t
    i.AddRole
    AddRole
        0x08000514:    b510        ..      PUSH     {r4,lr}
        0x08000516:    f000f803    ....    BL       AddRoleToManager ; 0x8000520
        0x0800051a:    f002fd31    ..1.    BL       SetDefaultPLAYERDinosaur ; 0x8002f80
        0x0800051e:    bd10        ..      POP      {r4,pc}
    i.AddRoleToManager
    AddRoleToManager
        0x08000520:    b510        ..      PUSH     {r4,lr}
        0x08000522:    4809        .H      LDR      r0,[pc,#36] ; [0x8000548] = 0x2000021c
        0x08000524:    f002fb1a    ....    BL       RoleRegister ; 0x8002b5c
        0x08000528:    4808        .H      LDR      r0,[pc,#32] ; [0x800054c] = 0x20000248
        0x0800052a:    f002fb17    ....    BL       RoleRegister ; 0x8002b5c
        0x0800052e:    4808        .H      LDR      r0,[pc,#32] ; [0x8000550] = 0x20000294
        0x08000530:    f002fb14    ....    BL       RoleRegister ; 0x8002b5c
        0x08000534:    4807        .H      LDR      r0,[pc,#28] ; [0x8000554] = 0x20000308
        0x08000536:    f002fb11    ....    BL       RoleRegister ; 0x8002b5c
        0x0800053a:    4807        .H      LDR      r0,[pc,#28] ; [0x8000558] = 0x20000334
        0x0800053c:    f002fb0e    ....    BL       RoleRegister ; 0x8002b5c
        0x08000540:    4806        .H      LDR      r0,[pc,#24] ; [0x800055c] = 0x20000390
        0x08000542:    f002fb0b    ....    BL       RoleRegister ; 0x8002b5c
        0x08000546:    bd10        ..      POP      {r4,pc}
    $d
        0x08000548:    2000021c    ...     DCD    536871452
        0x0800054c:    20000248    H..     DCD    536871496
        0x08000550:    20000294    ...     DCD    536871572
        0x08000554:    20000308    ...     DCD    536871688
        0x08000558:    20000334    4..     DCD    536871732
        0x0800055c:    20000390    ...     DCD    536871824
    $t
    i.BeepDeviceInit
    BeepDeviceInit
        0x08000560:    b510        ..      PUSH     {r4,lr}
        0x08000562:    4604        .F      MOV      r4,r0
        0x08000564:    4620         F      MOV      r0,r4
        0x08000566:    f001fc55    ..U.    BL       KAL_HardwareBeepDevInit ; 0x8001e14
        0x0800056a:    bd10        ..      POP      {r4,pc}
    i.BeepDevicePWMCfg
    BeepDevicePWMCfg
        0x0800056c:    b570        p.      PUSH     {r4-r6,lr}
        0x0800056e:    4604        .F      MOV      r4,r0
        0x08000570:    460d        .F      MOV      r5,r1
        0x08000572:    4616        .F      MOV      r6,r2
        0x08000574:    4632        2F      MOV      r2,r6
        0x08000576:    4629        )F      MOV      r1,r5
        0x08000578:    4620         F      MOV      r0,r4
        0x0800057a:    f001fc15    ....    BL       KAL_BeepDevicePWMCfg ; 0x8001da8
        0x0800057e:    bd70        p.      POP      {r4-r6,pc}
    i.BeepDevicePWMOff
    BeepDevicePWMOff
        0x08000580:    b510        ..      PUSH     {r4,lr}
        0x08000582:    4604        .F      MOV      r4,r0
        0x08000584:    4620         F      MOV      r0,r4
        0x08000586:    f001fc1f    ....    BL       KAL_BeepDevicePWMOff ; 0x8001dc8
        0x0800058a:    bd10        ..      POP      {r4,pc}
    i.BeepDevicePWMOn
    BeepDevicePWMOn
        0x0800058c:    b510        ..      PUSH     {r4,lr}
        0x0800058e:    4604        .F      MOV      r4,r0
        0x08000590:    4620         F      MOV      r0,r4
        0x08000592:    f001fc1f    ....    BL       KAL_BeepDevicePWMOn ; 0x8001dd4
        0x08000596:    bd10        ..      POP      {r4,pc}
    i.BeepDeviceRegister
    BeepDeviceRegister
        0x08000598:    b570        p.      PUSH     {r4-r6,lr}
        0x0800059a:    4604        .F      MOV      r4,r0
        0x0800059c:    460d        .F      MOV      r5,r1
        0x0800059e:    4620         F      MOV      r0,r4
        0x080005a0:    6921        !i      LDR      r1,[r4,#0x10]
        0x080005a2:    4788        .G      BLX      r1
        0x080005a4:    6025        %`      STR      r5,[r4,#0]
        0x080005a6:    4629        )F      MOV      r1,r5
        0x080005a8:    a006        ..      ADR      r0,{pc}+0x1c ; 0x80005c4
        0x080005aa:    f003f8cf    ....    BL       __0printf$3 ; 0x800374c
        0x080005ae:    480c        .H      LDR      r0,[pc,#48] ; [0x80005e0] = 0x20002668
        0x080005b0:    6801        .h      LDR      r1,[r0,#0]
        0x080005b2:    6800        .h      LDR      r0,[r0,#0]
        0x080005b4:    1c40        @.      ADDS     r0,r0,#1
        0x080005b6:    4a0a        .J      LDR      r2,[pc,#40] ; [0x80005e0] = 0x20002668
        0x080005b8:    6010        .`      STR      r0,[r2,#0]
        0x080005ba:    1d10        ..      ADDS     r0,r2,#4
        0x080005bc:    f8404021    @.!@    STR      r4,[r0,r1,LSL #2]
        0x080005c0:    bd70        p.      POP      {r4-r6,pc}
    $d
        0x080005c2:    0000        ..      DCW    0
        0x080005c4:    e1b2a2d7    ....    DCD    3786580695
        0x080005c8:    70656542    Beep    DCD    1885693250
        0x080005cc:    69766544    Devi    DCD    1769366852
        0x080005d0:    253a6563    ce:%    DCD    624584035
        0x080005d4:    b9c9b373    s...    DCD    3117003635
        0x080005d8:    0a0d2ea6    ....    DCD    168636070
        0x080005dc:    00000000    ....    DCD    0
        0x080005e0:    20002668    h&.     DCD    536880744
    $t
    i.BeepSongDecode
    BeepSongDecode
        0x080005e4:    e92d4fff    -..O    PUSH     {r0-r11,lr}
        0x080005e8:    b081        ..      SUB      sp,sp,#4
        0x080005ea:    4604        .F      MOV      r4,r0
        0x080005ec:    460d        .F      MOV      r5,r1
        0x080005ee:    4616        .F      MOV      r6,r2
        0x080005f0:    200a        .       MOVS     r0,#0xa
        0x080005f2:    fbb4fbf0    ....    UDIV     r11,r4,r0
        0x080005f6:    fb00471b    ...G    MLS      r7,r0,r11,r4
        0x080005fa:    fbb4f0f0    ....    UDIV     r0,r4,r0
        0x080005fe:    f04f0b0a    O...    MOV      r11,#0xa
        0x08000602:    fbb0fefb    ....    UDIV     lr,r0,r11
        0x08000606:    fb0b081e    ....    MLS      r8,r11,lr,r0
        0x0800060a:    2064        d       MOVS     r0,#0x64
        0x0800060c:    fbb4f0f0    ....    UDIV     r0,r4,r0
        0x08000610:    9000        ..      STR      r0,[sp,#0]
        0x08000612:    1e78        x.      SUBS     r0,r7,#1
        0x08000614:    f8dfb09c    ....    LDR      r11,[pc,#156] ; [0x80006b4] = 0x8004f1c
        0x08000618:    f85bb020    [. .    LDR      r11,[r11,r0,LSL #2]
        0x0800061c:    9800        ..      LDR      r0,[sp,#0]
        0x0800061e:    4458        XD      ADD      r0,r0,r11
        0x08000620:    f8dfb094    ....    LDR      r11,[pc,#148] ; [0x80006b8] = 0x20002674
        0x08000624:    f85b3020    [. 0    LDR      r3,[r11,r0,LSL #2]
        0x08000628:    b14f        O.      CBZ      r7,0x800063e ; BeepSongDecode + 90
        0x0800062a:    f1b80f01    ....    CMP      r8,#1
        0x0800062e:    d100        ..      BNE      0x8000632 ; BeepSongDecode + 78
        0x08000630:    085b        [.      LSRS     r3,r3,#1
        0x08000632:    f1b80f03    ....    CMP      r8,#3
        0x08000636:    d100        ..      BNE      0x800063a ; BeepSongDecode + 86
        0x08000638:    005b        [.      LSLS     r3,r3,#1
        0x0800063a:    6033        3`      STR      r3,[r6,#0]
        0x0800063c:    e001        ..      B        0x8000642 ; BeepSongDecode + 94
        0x0800063e:    2000        .       MOVS     r0,#0
        0x08000640:    6030        0`      STR      r0,[r6,#0]
        0x08000642:    200a        .       MOVS     r0,#0xa
        0x08000644:    fbb5fbf0    ....    UDIV     r11,r5,r0
        0x08000648:    fb00501b    ...P    MLS      r0,r0,r11,r5
        0x0800064c:    f8dfb06c    ..l.    LDR      r11,[pc,#108] ; [0x80006bc] = 0x8004f38
        0x08000650:    f85ba020    [. .    LDR      r10,[r11,r0,LSL #2]
        0x08000654:    200a        .       MOVS     r0,#0xa
        0x08000656:    fbb5f0f0    ....    UDIV     r0,r5,r0
        0x0800065a:    f04f0b0a    O...    MOV      r11,#0xa
        0x0800065e:    fbb0fefb    ....    UDIV     lr,r0,r11
        0x08000662:    fb0b0c1e    ....    MLS      r12,r11,lr,r0
        0x08000666:    2064        d       MOVS     r0,#0x64
        0x08000668:    fbb5f9f0    ....    UDIV     r9,r5,r0
        0x0800066c:    0100        ..      LSLS     r0,r0,#4
        0x0800066e:    fbb0f1fa    ....    UDIV     r1,r0,r10
        0x08000672:    f1b90f01    ....    CMP      r9,#1
        0x08000676:    d101        ..      BNE      0x800067c ; BeepSongDecode + 152
        0x08000678:    eb010151    ..Q.    ADD      r1,r1,r1,LSR #1
        0x0800067c:    f1bc0f01    ....    CMP      r12,#1
        0x08000680:    d101        ..      BNE      0x8000686 ; BeepSongDecode + 162
        0x08000682:    460a        .F      MOV      r2,r1
        0x08000684:    e009        ..      B        0x800069a ; BeepSongDecode + 182
        0x08000686:    f1bc0f00    ....    CMP      r12,#0
        0x0800068a:    d105        ..      BNE      0x8000698 ; BeepSongDecode + 180
        0x0800068c:    0088        ..      LSLS     r0,r1,#2
        0x0800068e:    f04f0b05    O...    MOV      r11,#5
        0x08000692:    fbb0f2fb    ....    UDIV     r2,r0,r11
        0x08000696:    e000        ..      B        0x800069a ; BeepSongDecode + 182
        0x08000698:    460a        .F      MOV      r2,r1
        0x0800069a:    b907        ..      CBNZ     r7,0x800069e ; BeepSongDecode + 186
        0x0800069c:    2200        ."      MOVS     r2,#0
        0x0800069e:    9804        ..      LDR      r0,[sp,#0x10]
        0x080006a0:    6002        .`      STR      r2,[r0,#0]
        0x080006a2:    eba10b02    ....    SUB      r11,r1,r2
        0x080006a6:    980e        ..      LDR      r0,[sp,#0x38]
        0x080006a8:    f8c0b000    ....    STR      r11,[r0,#0]
        0x080006ac:    2000        .       MOVS     r0,#0
        0x080006ae:    b005        ..      ADD      sp,sp,#0x14
        0x080006b0:    e8bd8ff0    ....    POP      {r4-r11,pc}
    $d
        0x080006b4:    08004f1c    .O..    DCD    134237980
        0x080006b8:    20002674    t&.     DCD    536880756
        0x080006bc:    08004f38    8O..    DCD    134238008
    $t
    i.BeepSongDecodeInit
    BeepSongDecodeInit
        0x080006c0:    b510        ..      PUSH     {r4,lr}
        0x080006c2:    2101        .!      MOVS     r1,#1
        0x080006c4:    2002        .       MOVS     r0,#2
        0x080006c6:    f000f827    ..'.    BL       BeepSongNewFreqTable ; 0x8000718
        0x080006ca:    a002        ..      ADR      r0,{pc}+0xa ; 0x80006d4
        0x080006cc:    f003f83e    ..>.    BL       __0printf$3 ; 0x800374c
        0x080006d0:    2000        .       MOVS     r0,#0
        0x080006d2:    bd10        ..      POP      {r4,pc}
    $d
        0x080006d4:    d6c0f4d2    ....    DCD    3602969810
        0x080006d8:    ebc2e2bd    ....    DCD    3955417789
        0x080006dc:    f5b3f7c6    ....    DCD    4122212294
        0x080006e0:    afbbbcca    ....    DCD    2948316362
        0x080006e4:    a6b9c9b3    ....    DCD    2797193651
        0x080006e8:    000a0d2e    ....    DCD    658734
    $t
    i.BeepSongGetData
    BeepSongGetData
        0x080006ec:    b5f8        ..      PUSH     {r3-r7,lr}
        0x080006ee:    4605        .F      MOV      r5,r0
        0x080006f0:    460c        .F      MOV      r4,r1
        0x080006f2:    4616        .F      MOV      r6,r2
        0x080006f4:    f1060008    ....    ADD      r0,r6,#8
        0x080006f8:    2201        ."      MOVS     r2,#1
        0x080006fa:    eb020344    ..D.    ADD      r3,r2,r4,LSL #1
        0x080006fe:    f105021e    ....    ADD      r2,r5,#0x1e
        0x08000702:    9000        ..      STR      r0,[sp,#0]
        0x08000704:    5cd1        .\      LDRB     r1,[r2,r3]
        0x08000706:    f8120014    ....    LDRB     r0,[r2,r4,LSL #1]
        0x0800070a:    1d33        3.      ADDS     r3,r6,#4
        0x0800070c:    4632        2F      MOV      r2,r6
        0x0800070e:    f7ffff69    ..i.    BL       BeepSongDecode ; 0x80005e4
        0x08000712:    2000        .       MOVS     r0,#0
        0x08000714:    bdf8        ..      POP      {r3-r7,pc}
        0x08000716:    0000        ..      MOVS     r0,r0
    i.BeepSongNewFreqTable
    BeepSongNewFreqTable
        0x08000718:    b530        0.      PUSH     {r4,r5,lr}
        0x0800071a:    4604        .F      MOV      r4,r0
        0x0800071c:    460a        .F      MOV      r2,r1
        0x0800071e:    2100        .!      MOVS     r1,#0
        0x08000720:    2300        .#      MOVS     r3,#0
        0x08000722:    bf00        ..      NOP      
        0x08000724:    e024        $.      B        0x8000770 ; BeepSongNewFreqTable + 88
        0x08000726:    190b        ..      ADDS     r3,r1,r4
        0x08000728:    2b0b        .+      CMP      r3,#0xb
        0x0800072a:    dd08        ..      BLE      0x800073e ; BeepSongNewFreqTable + 38
        0x0800072c:    3b0c        .;      SUBS     r3,r3,#0xc
        0x0800072e:    4812        .H      LDR      r0,[pc,#72] ; [0x8000778] = 0x8004eec
        0x08000730:    f8500023    P.#.    LDR      r0,[r0,r3,LSL #2]
        0x08000734:    0040        @.      LSLS     r0,r0,#1
        0x08000736:    4d11        .M      LDR      r5,[pc,#68] ; [0x800077c] = 0x20002674
        0x08000738:    f8450021    E.!.    STR      r0,[r5,r1,LSL #2]
        0x0800073c:    e005        ..      B        0x800074a ; BeepSongNewFreqTable + 50
        0x0800073e:    480e        .H      LDR      r0,[pc,#56] ; [0x8000778] = 0x8004eec
        0x08000740:    f8500023    P.#.    LDR      r0,[r0,r3,LSL #2]
        0x08000744:    4d0d        .M      LDR      r5,[pc,#52] ; [0x800077c] = 0x20002674
        0x08000746:    f8450021    E.!.    STR      r0,[r5,r1,LSL #2]
        0x0800074a:    2a00        .*      CMP      r2,#0
        0x0800074c:    da08        ..      BGE      0x8000760 ; BeepSongNewFreqTable + 72
        0x0800074e:    480b        .H      LDR      r0,[pc,#44] ; [0x800077c] = 0x20002674
        0x08000750:    f8500021    P.!.    LDR      r0,[r0,r1,LSL #2]
        0x08000754:    4255        UB      RSBS     r5,r2,#0
        0x08000756:    4128        (A      ASRS     r0,r0,r5
        0x08000758:    4d08        .M      LDR      r5,[pc,#32] ; [0x800077c] = 0x20002674
        0x0800075a:    f8450021    E.!.    STR      r0,[r5,r1,LSL #2]
        0x0800075e:    e006        ..      B        0x800076e ; BeepSongNewFreqTable + 86
        0x08000760:    4806        .H      LDR      r0,[pc,#24] ; [0x800077c] = 0x20002674
        0x08000762:    f8500021    P.!.    LDR      r0,[r0,r1,LSL #2]
        0x08000766:    4090        .@      LSLS     r0,r0,r2
        0x08000768:    4d04        .M      LDR      r5,[pc,#16] ; [0x800077c] = 0x20002674
        0x0800076a:    f8450021    E.!.    STR      r0,[r5,r1,LSL #2]
        0x0800076e:    1c49        I.      ADDS     r1,r1,#1
        0x08000770:    290c        .)      CMP      r1,#0xc
        0x08000772:    dbd8        ..      BLT      0x8000726 ; BeepSongNewFreqTable + 14
        0x08000774:    2000        .       MOVS     r0,#0
        0x08000776:    bd30        0.      POP      {r4,r5,pc}
    $d
        0x08000778:    08004eec    .N..    DCD    134237932
        0x0800077c:    20002674    t&.     DCD    536880756
    $t
    i.BoradInit
    BoradInit
        0x08000780:    b510        ..      PUSH     {r4,lr}
        0x08000782:    f002ff83    ....    BL       UsartInit ; 0x800368c
        0x08000786:    f7fffdf5    ....    BL       AddButtonDevice ; 0x8000374
        0x0800078a:    f7fffe45    ..E.    BL       AddInputDevice ; 0x8000418
        0x0800078e:    f001faef    ....    BL       InitInputDevice ; 0x8001d70
        0x08000792:    f000fab5    ....    BL       DisplayDevInit ; 0x8000d00
        0x08000796:    f7fffe43    ..C.    BL       AddLedDevice ; 0x8000420
        0x0800079a:    f7fffd98    ....    BL       ADDBeepDevice ; 0x80002ce
        0x0800079e:    f001faeb    ....    BL       InitMenuOption ; 0x8001d78
        0x080007a2:    bd10        ..      POP      {r4,pc}
    i.BusFault_Handler
    BusFault_Handler
        0x080007a4:    bf00        ..      NOP      
        0x080007a6:    e7fe        ..      B        0x80007a6 ; BusFault_Handler + 2
    i.ButtonInputDeviceCallBack
    ButtonInputDeviceCallBack
        0x080007a8:    b530        0.      PUSH     {r4,r5,lr}
        0x080007aa:    b08b        ..      SUB      sp,sp,#0x2c
        0x080007ac:    4604        .F      MOV      r4,r0
        0x080007ae:    4625        %F      MOV      r5,r4
        0x080007b0:    2001        .       MOVS     r0,#1
        0x080007b2:    f88d0004    ....    STRB     r0,[sp,#4]
        0x080007b6:    6928        (i      LDR      r0,[r5,#0x10]
        0x080007b8:    2802        .(      CMP      r0,#2
        0x080007ba:    d008        ..      BEQ      0x80007ce ; ButtonInputDeviceCallBack + 38
        0x080007bc:    2840        @(      CMP      r0,#0x40
        0x080007be:    d003        ..      BEQ      0x80007c8 ; ButtonInputDeviceCallBack + 32
        0x080007c0:    f5b07f80    ....    CMP      r0,#0x100
        0x080007c4:    d109        ..      BNE      0x80007da ; ButtonInputDeviceCallBack + 50
        0x080007c6:    e005        ..      B        0x80007d4 ; ButtonInputDeviceCallBack + 44
        0x080007c8:    2001        .       MOVS     r0,#1
        0x080007ca:    9004        ..      STR      r0,[sp,#0x10]
        0x080007cc:    e006        ..      B        0x80007dc ; ButtonInputDeviceCallBack + 52
        0x080007ce:    2002        .       MOVS     r0,#2
        0x080007d0:    9004        ..      STR      r0,[sp,#0x10]
        0x080007d2:    e003        ..      B        0x80007dc ; ButtonInputDeviceCallBack + 52
        0x080007d4:    2003        .       MOVS     r0,#3
        0x080007d6:    9004        ..      STR      r0,[sp,#0x10]
        0x080007d8:    e000        ..      B        0x80007dc ; ButtonInputDeviceCallBack + 52
        0x080007da:    bf00        ..      NOP      
        0x080007dc:    bf00        ..      NOP      
        0x080007de:    7d28        (}      LDRB     r0,[r5,#0x14]
        0x080007e0:    9005        ..      STR      r0,[sp,#0x14]
        0x080007e2:    4668        hF      MOV      r0,sp
        0x080007e4:    f002f8f0    ....    BL       PutInputBuffer ; 0x80029c8
        0x080007e8:    a003        ..      ADR      r0,{pc}+0x10 ; 0x80007f8
        0x080007ea:    f002ffaf    ....    BL       __0printf$3 ; 0x800374c
        0x080007ee:    4807        .H      LDR      r0,[pc,#28] ; [0x800080c] = 0x200007a4
        0x080007f0:    f003ff10    ....    BL       rt_schedule ; 0x8004614
        0x080007f4:    b00b        ..      ADD      sp,sp,#0x2c
        0x080007f6:    bd30        0.      POP      {r4,r5,pc}
    $d
        0x080007f8:    cfb6d0d6    ....    DCD    3484864726
        0x080007fc:    b0d0d33a    :...    DCD    2966475578
        0x08000800:    cafcbcb4    ....    DCD    3405561012
        0x08000804:    2eebc8e4    ....    DCD    787204324
        0x08000808:    00000a0d    ....    DCD    2573
        0x0800080c:    200007a4    ...     DCD    536872868
    $t
    i.ButtonInputInit
    ButtonInputInit
        0x08000810:    b510        ..      PUSH     {r4,lr}
        0x08000812:    4802        .H      LDR      r0,[pc,#8] ; [0x800081c] = 0x80007a9
        0x08000814:    f002fb20    .. .    BL       SetButtonInputDeviceCallBack ; 0x8002e58
        0x08000818:    2000        .       MOVS     r0,#0
        0x0800081a:    bd10        ..      POP      {r4,pc}
    $d
        0x0800081c:    080007a9    ....    DCD    134219689
    $t
    i.ButtonRegister
    ButtonRegister
        0x08000820:    b570        p.      PUSH     {r4-r6,lr}
        0x08000822:    4604        .F      MOV      r4,r0
        0x08000824:    460d        .F      MOV      r5,r1
        0x08000826:    6860        `h      LDR      r0,[r4,#4]
        0x08000828:    b910        ..      CBNZ     r0,0x8000830 ; ButtonRegister + 16
        0x0800082a:    6920         i      LDR      r0,[r4,#0x10]
        0x0800082c:    f000fcf0    ....    BL       GPIOButtonInit ; 0x8001210
        0x08000830:    6025        %`      STR      r5,[r4,#0]
        0x08000832:    2000        .       MOVS     r0,#0
        0x08000834:    60a0        .`      STR      r0,[r4,#8]
        0x08000836:    2005        .       MOVS     r0,#5
        0x08000838:    7520         u      STRB     r0,[r4,#0x14]
        0x0800083a:    4805        .H      LDR      r0,[pc,#20] ; [0x8000850] = 0x20001444
        0x0800083c:    6801        .h      LDR      r1,[r0,#0]
        0x0800083e:    6800        .h      LDR      r0,[r0,#0]
        0x08000840:    1c40        @.      ADDS     r0,r0,#1
        0x08000842:    4a03        .J      LDR      r2,[pc,#12] ; [0x8000850] = 0x20001444
        0x08000844:    6010        .`      STR      r0,[r2,#0]
        0x08000846:    f1020008    ....    ADD      r0,r2,#8
        0x0800084a:    f8404021    @.!@    STR      r4,[r0,r1,LSL #2]
        0x0800084e:    bd70        p.      POP      {r4-r6,pc}
    $d
        0x08000850:    20001444    D..     DCD    536876100
    $t
    i.ButtonTimerInit
    ButtonTimerInit
        0x08000854:    b510        ..      PUSH     {r4,lr}
        0x08000856:    f001faef    ....    BL       KAL_TimerInit ; 0x8001e38
        0x0800085a:    bd10        ..      POP      {r4,pc}
    i.CAL_BeepDevicePWMCfg
    CAL_BeepDevicePWMCfg
        0x0800085c:    b570        p.      PUSH     {r4-r6,lr}
        0x0800085e:    4604        .F      MOV      r4,r0
        0x08000860:    460d        .F      MOV      r5,r1
        0x08000862:    4616        .F      MOV      r6,r2
        0x08000864:    4632        2F      MOV      r2,r6
        0x08000866:    4629        )F      MOV      r1,r5
        0x08000868:    68e0        .h      LDR      r0,[r4,#0xc]
        0x0800086a:    f002f9ad    ....    BL       STD_BeepDevicePWMCfg ; 0x8002bc8
        0x0800086e:    bd70        p.      POP      {r4-r6,pc}
    i.CAL_BeepDevicePWMOff
    CAL_BeepDevicePWMOff
        0x08000870:    b510        ..      PUSH     {r4,lr}
        0x08000872:    4604        .F      MOV      r4,r0
        0x08000874:    68e0        .h      LDR      r0,[r4,#0xc]
        0x08000876:    f002f9dc    ....    BL       STD_BeepDevicePWMOff ; 0x8002c32
        0x0800087a:    bd10        ..      POP      {r4,pc}
    i.CAL_BeepDevicePWMOn
    CAL_BeepDevicePWMOn
        0x0800087c:    b510        ..      PUSH     {r4,lr}
        0x0800087e:    4604        .F      MOV      r4,r0
        0x08000880:    68e0        .h      LDR      r0,[r4,#0xc]
        0x08000882:    f002f9d6    ....    BL       STD_BeepDevicePWMOff ; 0x8002c32
        0x08000886:    bd10        ..      POP      {r4,pc}
    i.CAL_GPIOButtonInit
    CAL_GPIOButtonInit
        0x08000888:    b510        ..      PUSH     {r4,lr}
        0x0800088a:    4604        .F      MOV      r4,r0
        0x0800088c:    4620         F      MOV      r0,r4
        0x0800088e:    f002f9ef    ....    BL       STD_GPIOButtonConfig ; 0x8002c70
        0x08000892:    bd10        ..      POP      {r4,pc}
    i.CAL_GPIOI2CDevInit
    CAL_GPIOI2CDevInit
        0x08000894:    b510        ..      PUSH     {r4,lr}
        0x08000896:    4604        .F      MOV      r4,r0
        0x08000898:    e9d41201    ....    LDRD     r1,r2,[r4,#4]
        0x0800089c:    68e0        .h      LDR      r0,[r4,#0xc]
        0x0800089e:    f002f9fd    ....    BL       STD_GPIOI2CDevConfig ; 0x8002c9c
        0x080008a2:    bd10        ..      POP      {r4,pc}
    i.CAL_GPIOLedDevControl
    CAL_GPIOLedDevControl
        0x080008a4:    b570        p.      PUSH     {r4-r6,lr}
        0x080008a6:    4604        .F      MOV      r4,r0
        0x080008a8:    460d        .F      MOV      r5,r1
        0x080008aa:    462a        *F      MOV      r2,r5
        0x080008ac:    e9d41001    ....    LDRD     r1,r0,[r4,#4]
        0x080008b0:    f002fa47    ..G.    BL       STD_GPIOLedDevControl ; 0x8002d42
        0x080008b4:    bd70        p.      POP      {r4-r6,pc}
    i.CAL_GPIOLedDevInit
    CAL_GPIOLedDevInit
        0x080008b6:    b510        ..      PUSH     {r4,lr}
        0x080008b8:    4604        .F      MOV      r4,r0
        0x080008ba:    e9d41001    ....    LDRD     r1,r0,[r4,#4]
        0x080008be:    f002fa2b    ..+.    BL       STD_GPIOLedDevConfig ; 0x8002d18
        0x080008c2:    bd10        ..      POP      {r4,pc}
    i.CAL_HardwareBeepDevInit
    CAL_HardwareBeepDevInit
        0x080008c4:    b510        ..      PUSH     {r4,lr}
        0x080008c6:    4604        .F      MOV      r4,r0
        0x080008c8:    e9d41001    ....    LDRD     r1,r0,[r4,#4]
        0x080008cc:    f002f9ba    ....    BL       STD_GPIOBeepDevConfig ; 0x8002c44
        0x080008d0:    bd10        ..      POP      {r4,pc}
    i.CAL_I2CDMACfg
    CAL_I2CDMACfg
        0x080008d2:    b570        p.      PUSH     {r4-r6,lr}
        0x080008d4:    4604        .F      MOV      r4,r0
        0x080008d6:    f1040014    ....    ADD      r0,r4,#0x14
        0x080008da:    c80f        ..      LDM      r0,{r0-r3}
        0x080008dc:    f002fa42    ..B.    BL       STD_I2CDMACfg ; 0x8002d64
        0x080008e0:    bd70        p.      POP      {r4-r6,pc}
    i.CAL_I2CDMAEnable
    CAL_I2CDMAEnable
        0x080008e2:    b510        ..      PUSH     {r4,lr}
        0x080008e4:    4604        .F      MOV      r4,r0
        0x080008e6:    6960        `i      LDR      r0,[r4,#0x14]
        0x080008e8:    f002fa72    ..r.    BL       STD_I2CDMAEnable ; 0x8002dd0
        0x080008ec:    bd10        ..      POP      {r4,pc}
    i.CAL_TimerInit
    CAL_TimerInit
        0x080008ee:    b510        ..      PUSH     {r4,lr}
        0x080008f0:    f002fa7e    ..~.    BL       STD_TimerConfig ; 0x8002df0
        0x080008f4:    bd10        ..      POP      {r4,pc}
    i.ClearGraphBitMapOnFrameBuffer
    ClearGraphBitMapOnFrameBuffer
        0x080008f6:    e92d41f0    -..A    PUSH     {r4-r8,lr}
        0x080008fa:    4607        .F      MOV      r7,r0
        0x080008fc:    460c        .F      MOV      r4,r1
        0x080008fe:    6866        fh      LDR      r6,[r4,#4]
        0x08000900:    e00f        ..      B        0x8000922 ; ClearGraphBitMapOnFrameBuffer + 44
        0x08000902:    6825        %h      LDR      r5,[r4,#0]
        0x08000904:    e007        ..      B        0x8000916 ; ClearGraphBitMapOnFrameBuffer + 32
        0x08000906:    2300        .#      MOVS     r3,#0
        0x08000908:    4632        2F      MOV      r2,r6
        0x0800090a:    4629        )F      MOV      r1,r5
        0x0800090c:    4638        8F      MOV      r0,r7
        0x0800090e:    f8d7c020    .. .    LDR      r12,[r7,#0x20]
        0x08000912:    47e0        .G      BLX      r12
        0x08000914:    1c6d        m.      ADDS     r5,r5,#1
        0x08000916:    68a1        .h      LDR      r1,[r4,#8]
        0x08000918:    6820         h      LDR      r0,[r4,#0]
        0x0800091a:    4408        .D      ADD      r0,r0,r1
        0x0800091c:    42a8        .B      CMP      r0,r5
        0x0800091e:    dcf2        ..      BGT      0x8000906 ; ClearGraphBitMapOnFrameBuffer + 16
        0x08000920:    1c76        v.      ADDS     r6,r6,#1
        0x08000922:    68e1        .h      LDR      r1,[r4,#0xc]
        0x08000924:    6860        `h      LDR      r0,[r4,#4]
        0x08000926:    4408        .D      ADD      r0,r0,r1
        0x08000928:    42b0        .B      CMP      r0,r6
        0x0800092a:    dcea        ..      BGT      0x8000902 ; ClearGraphBitMapOnFrameBuffer + 12
        0x0800092c:    e8bd81f0    ....    POP      {r4-r8,pc}
    i.ClearGraphInDisplayDev
    ClearGraphInDisplayDev
        0x08000930:    e92d41f0    -..A    PUSH     {r4-r8,lr}
        0x08000934:    4607        .F      MOV      r7,r0
        0x08000936:    460d        .F      MOV      r5,r1
        0x08000938:    4616        .F      MOV      r6,r2
        0x0800093a:    461c        .F      MOV      r4,r3
        0x0800093c:    bf00        ..      NOP      
        0x0800093e:    4808        .H      LDR      r0,[pc,#32] ; [0x8000960] = 0x2000012c
        0x08000940:    6800        .h      LDR      r0,[r0,#0]
        0x08000942:    2800        .(      CMP      r0,#0
        0x08000944:    d1fb        ..      BNE      0x800093e ; ClearGraphInDisplayDev + 14
        0x08000946:    6125        %a      STR      r5,[r4,#0x10]
        0x08000948:    6166        fa      STR      r6,[r4,#0x14]
        0x0800094a:    6025        %`      STR      r5,[r4,#0]
        0x0800094c:    68e0        .h      LDR      r0,[r4,#0xc]
        0x0800094e:    1a30        0.      SUBS     r0,r6,r0
        0x08000950:    1c40        @.      ADDS     r0,r0,#1
        0x08000952:    6060        ``      STR      r0,[r4,#4]
        0x08000954:    4621        !F      MOV      r1,r4
        0x08000956:    4638        8F      MOV      r0,r7
        0x08000958:    f7ffffcd    ....    BL       ClearGraphBitMapOnFrameBuffer ; 0x80008f6
        0x0800095c:    e8bd81f0    ....    POP      {r4-r8,pc}
    $d
        0x08000960:    2000012c    ,..     DCD    536871212
    $t
    i.ClearInDisplayDev
    ClearInDisplayDev
        0x08000964:    e92d47f0    -..G    PUSH     {r4-r10,lr}
        0x08000968:    4680        .F      MOV      r8,r0
        0x0800096a:    460d        .F      MOV      r5,r1
        0x0800096c:    4616        .F      MOV      r6,r2
        0x0800096e:    4699        .F      MOV      r9,r3
        0x08000970:    f8dda020    .. .    LDR      r10,[sp,#0x20]
        0x08000974:    bf00        ..      NOP      
        0x08000976:    480d        .H      LDR      r0,[pc,#52] ; [0x80009ac] = 0x2000012c
        0x08000978:    6800        .h      LDR      r0,[r0,#0]
        0x0800097a:    2800        .(      CMP      r0,#0
        0x0800097c:    d1fb        ..      BNE      0x8000976 ; ClearInDisplayDev + 18
        0x0800097e:    eba6000a    ....    SUB      r0,r6,r10
        0x08000982:    1c44        D.      ADDS     r4,r0,#1
        0x08000984:    e00e        ..      B        0x80009a4 ; ClearInDisplayDev + 64
        0x08000986:    462f        /F      MOV      r7,r5
        0x08000988:    e007        ..      B        0x800099a ; ClearInDisplayDev + 54
        0x0800098a:    2300        .#      MOVS     r3,#0
        0x0800098c:    4622        "F      MOV      r2,r4
        0x0800098e:    4639        9F      MOV      r1,r7
        0x08000990:    4640        @F      MOV      r0,r8
        0x08000992:    f8d8c020    .. .    LDR      r12,[r8,#0x20]
        0x08000996:    47e0        .G      BLX      r12
        0x08000998:    1c7f        ..      ADDS     r7,r7,#1
        0x0800099a:    eb050009    ....    ADD      r0,r5,r9
        0x0800099e:    42b8        .B      CMP      r0,r7
        0x080009a0:    dcf3        ..      BGT      0x800098a ; ClearInDisplayDev + 38
        0x080009a2:    1c64        d.      ADDS     r4,r4,#1
        0x080009a4:    42b4        .B      CMP      r4,r6
        0x080009a6:    dbee        ..      BLT      0x8000986 ; ClearInDisplayDev + 34
        0x080009a8:    e8bd87f0    ....    POP      {r4-r10,pc}
    $d
        0x080009ac:    2000012c    ,..     DCD    536871212
    $t
    i.ConstrcutorButtonManage
    ConstrcutorButtonManage
        0x080009b0:    b510        ..      PUSH     {r4,lr}
        0x080009b2:    480a        .H      LDR      r0,[pc,#40] ; [0x80009dc] = 0x200000a0
        0x080009b4:    6800        .h      LDR      r0,[r0,#0]
        0x080009b6:    b970        p.      CBNZ     r0,0x80009d6 ; ConstrcutorButtonManage + 38
        0x080009b8:    4808        .H      LDR      r0,[pc,#32] ; [0x80009dc] = 0x200000a0
        0x080009ba:    6800        .h      LDR      r0,[r0,#0]
        0x080009bc:    b958        X.      CBNZ     r0,0x80009d6 ; ConstrcutorButtonManage + 38
        0x080009be:    2030        0       MOVS     r0,#0x30
        0x080009c0:    f003fb06    ....    BL       malloc ; 0x8003fd0
        0x080009c4:    4905        .I      LDR      r1,[pc,#20] ; [0x80009dc] = 0x200000a0
        0x080009c6:    6008        .`      STR      r0,[r1,#0]
        0x080009c8:    2000        .       MOVS     r0,#0
        0x080009ca:    6809        .h      LDR      r1,[r1,#0]
        0x080009cc:    6008        .`      STR      r0,[r1,#0]
        0x080009ce:    4804        .H      LDR      r0,[pc,#16] ; [0x80009e0] = 0x8000855
        0x080009d0:    4902        .I      LDR      r1,[pc,#8] ; [0x80009dc] = 0x200000a0
        0x080009d2:    6809        .h      LDR      r1,[r1,#0]
        0x080009d4:    6048        H`      STR      r0,[r1,#4]
        0x080009d6:    4801        .H      LDR      r0,[pc,#4] ; [0x80009dc] = 0x200000a0
        0x080009d8:    6800        .h      LDR      r0,[r0,#0]
        0x080009da:    bd10        ..      POP      {r4,pc}
    $d
        0x080009dc:    200000a0    ...     DCD    536871072
        0x080009e0:    08000855    U...    DCD    134219861
    $t
    i.DMA1_Channel6_IRQHandler
    DMA1_Channel6_IRQHandler
        0x080009e4:    b510        ..      PUSH     {r4,lr}
        0x080009e6:    f44f1000    O...    MOV      r0,#0x200000
        0x080009ea:    f000f8d1    ....    BL       DMA_GetFlagStatus ; 0x8000b90
        0x080009ee:    b150        P.      CBZ      r0,0x8000a06 ; DMA1_Channel6_IRQHandler + 34
        0x080009f0:    f44f1000    O...    MOV      r0,#0x200000
        0x080009f4:    f000f80c    ....    BL       DMA_ClearFlag ; 0x8000a10
        0x080009f8:    2101        .!      MOVS     r1,#1
        0x080009fa:    4803        .H      LDR      r0,[pc,#12] ; [0x8000a08] = 0x40005400
        0x080009fc:    f001f8bb    ....    BL       I2C_GenerateSTOP ; 0x8001b76
        0x08000a00:    2000        .       MOVS     r0,#0
        0x08000a02:    4902        .I      LDR      r1,[pc,#8] ; [0x8000a0c] = 0x2000012c
        0x08000a04:    6008        .`      STR      r0,[r1,#0]
        0x08000a06:    bd10        ..      POP      {r4,pc}
    $d
        0x08000a08:    40005400    .T.@    DCD    1073763328
        0x08000a0c:    2000012c    ,..     DCD    536871212
    $t
    i.DMA_ClearFlag
    DMA_ClearFlag
        0x08000a10:    f0005180    ...Q    AND      r1,r0,#0x10000000
        0x08000a14:    b111        ..      CBZ      r1,0x8000a1c ; DMA_ClearFlag + 12
        0x08000a16:    4903        .I      LDR      r1,[pc,#12] ; [0x8000a24] = 0x40020404
        0x08000a18:    6008        .`      STR      r0,[r1,#0]
        0x08000a1a:    e001        ..      B        0x8000a20 ; DMA_ClearFlag + 16
        0x08000a1c:    4902        .I      LDR      r1,[pc,#8] ; [0x8000a28] = 0x40020000
        0x08000a1e:    6048        H`      STR      r0,[r1,#4]
        0x08000a20:    4770        pG      BX       lr
    $d
        0x08000a22:    0000        ..      DCW    0
        0x08000a24:    40020404    ...@    DCD    1073873924
        0x08000a28:    40020000    ...@    DCD    1073872896
    $t
    i.DMA_Cmd
    DMA_Cmd
        0x08000a2c:    b121        !.      CBZ      r1,0x8000a38 ; DMA_Cmd + 12
        0x08000a2e:    6802        .h      LDR      r2,[r0,#0]
        0x08000a30:    f0420201    B...    ORR      r2,r2,#1
        0x08000a34:    6002        .`      STR      r2,[r0,#0]
        0x08000a36:    e004        ..      B        0x8000a42 ; DMA_Cmd + 22
        0x08000a38:    6802        .h      LDR      r2,[r0,#0]
        0x08000a3a:    f64f73fe    O..s    MOV      r3,#0xfffe
        0x08000a3e:    401a        .@      ANDS     r2,r2,r3
        0x08000a40:    6002        .`      STR      r2,[r0,#0]
        0x08000a42:    4770        pG      BX       lr
    i.DMA_DeInit
    DMA_DeInit
        0x08000a44:    6801        .h      LDR      r1,[r0,#0]
        0x08000a46:    f64f72fe    O..r    MOV      r2,#0xfffe
        0x08000a4a:    4011        .@      ANDS     r1,r1,r2
        0x08000a4c:    6001        .`      STR      r1,[r0,#0]
        0x08000a4e:    2100        .!      MOVS     r1,#0
        0x08000a50:    6001        .`      STR      r1,[r0,#0]
        0x08000a52:    6041        A`      STR      r1,[r0,#4]
        0x08000a54:    6081        .`      STR      r1,[r0,#8]
        0x08000a56:    60c1        .`      STR      r1,[r0,#0xc]
        0x08000a58:    494b        KI      LDR      r1,[pc,#300] ; [0x8000b88] = 0x40020008
        0x08000a5a:    4288        .B      CMP      r0,r1
        0x08000a5c:    d108        ..      BNE      0x8000a70 ; DMA_DeInit + 44
        0x08000a5e:    494a        JI      LDR      r1,[pc,#296] ; [0x8000b88] = 0x40020008
        0x08000a60:    3908        .9      SUBS     r1,r1,#8
        0x08000a62:    6849        Ih      LDR      r1,[r1,#4]
        0x08000a64:    f041010f    A...    ORR      r1,r1,#0xf
        0x08000a68:    4a47        GJ      LDR      r2,[pc,#284] ; [0x8000b88] = 0x40020008
        0x08000a6a:    3a08        .:      SUBS     r2,r2,#8
        0x08000a6c:    6051        Q`      STR      r1,[r2,#4]
        0x08000a6e:    e08a        ..      B        0x8000b86 ; DMA_DeInit + 322
        0x08000a70:    4945        EI      LDR      r1,[pc,#276] ; [0x8000b88] = 0x40020008
        0x08000a72:    3114        .1      ADDS     r1,r1,#0x14
        0x08000a74:    4288        .B      CMP      r0,r1
        0x08000a76:    d108        ..      BNE      0x8000a8a ; DMA_DeInit + 70
        0x08000a78:    4943        CI      LDR      r1,[pc,#268] ; [0x8000b88] = 0x40020008
        0x08000a7a:    3908        .9      SUBS     r1,r1,#8
        0x08000a7c:    6849        Ih      LDR      r1,[r1,#4]
        0x08000a7e:    f04101f0    A...    ORR      r1,r1,#0xf0
        0x08000a82:    4a41        AJ      LDR      r2,[pc,#260] ; [0x8000b88] = 0x40020008
        0x08000a84:    3a08        .:      SUBS     r2,r2,#8
        0x08000a86:    6051        Q`      STR      r1,[r2,#4]
        0x08000a88:    e07d        }.      B        0x8000b86 ; DMA_DeInit + 322
        0x08000a8a:    493f        ?I      LDR      r1,[pc,#252] ; [0x8000b88] = 0x40020008
        0x08000a8c:    3128        (1      ADDS     r1,r1,#0x28
        0x08000a8e:    4288        .B      CMP      r0,r1
        0x08000a90:    d108        ..      BNE      0x8000aa4 ; DMA_DeInit + 96
        0x08000a92:    493d        =I      LDR      r1,[pc,#244] ; [0x8000b88] = 0x40020008
        0x08000a94:    3908        .9      SUBS     r1,r1,#8
        0x08000a96:    6849        Ih      LDR      r1,[r1,#4]
        0x08000a98:    f4416170    A.pa    ORR      r1,r1,#0xf00
        0x08000a9c:    4a3a        :J      LDR      r2,[pc,#232] ; [0x8000b88] = 0x40020008
        0x08000a9e:    3a08        .:      SUBS     r2,r2,#8
        0x08000aa0:    6051        Q`      STR      r1,[r2,#4]
        0x08000aa2:    e070        p.      B        0x8000b86 ; DMA_DeInit + 322
        0x08000aa4:    4938        8I      LDR      r1,[pc,#224] ; [0x8000b88] = 0x40020008
        0x08000aa6:    313c        <1      ADDS     r1,r1,#0x3c
        0x08000aa8:    4288        .B      CMP      r0,r1
        0x08000aaa:    d108        ..      BNE      0x8000abe ; DMA_DeInit + 122
        0x08000aac:    4936        6I      LDR      r1,[pc,#216] ; [0x8000b88] = 0x40020008
        0x08000aae:    3908        .9      SUBS     r1,r1,#8
        0x08000ab0:    6849        Ih      LDR      r1,[r1,#4]
        0x08000ab2:    f4414170    A.pA    ORR      r1,r1,#0xf000
        0x08000ab6:    4a34        4J      LDR      r2,[pc,#208] ; [0x8000b88] = 0x40020008
        0x08000ab8:    3a08        .:      SUBS     r2,r2,#8
        0x08000aba:    6051        Q`      STR      r1,[r2,#4]
        0x08000abc:    e063        c.      B        0x8000b86 ; DMA_DeInit + 322
        0x08000abe:    4932        2I      LDR      r1,[pc,#200] ; [0x8000b88] = 0x40020008
        0x08000ac0:    3150        P1      ADDS     r1,r1,#0x50
        0x08000ac2:    4288        .B      CMP      r0,r1
        0x08000ac4:    d108        ..      BNE      0x8000ad8 ; DMA_DeInit + 148
        0x08000ac6:    4930        0I      LDR      r1,[pc,#192] ; [0x8000b88] = 0x40020008
        0x08000ac8:    3908        .9      SUBS     r1,r1,#8
        0x08000aca:    6849        Ih      LDR      r1,[r1,#4]
        0x08000acc:    f4412170    A.p!    ORR      r1,r1,#0xf0000
        0x08000ad0:    4a2d        -J      LDR      r2,[pc,#180] ; [0x8000b88] = 0x40020008
        0x08000ad2:    3a08        .:      SUBS     r2,r2,#8
        0x08000ad4:    6051        Q`      STR      r1,[r2,#4]
        0x08000ad6:    e056        V.      B        0x8000b86 ; DMA_DeInit + 322
        0x08000ad8:    492b        +I      LDR      r1,[pc,#172] ; [0x8000b88] = 0x40020008
        0x08000ada:    3164        d1      ADDS     r1,r1,#0x64
        0x08000adc:    4288        .B      CMP      r0,r1
        0x08000ade:    d108        ..      BNE      0x8000af2 ; DMA_DeInit + 174
        0x08000ae0:    4929        )I      LDR      r1,[pc,#164] ; [0x8000b88] = 0x40020008
        0x08000ae2:    3908        .9      SUBS     r1,r1,#8
        0x08000ae4:    6849        Ih      LDR      r1,[r1,#4]
        0x08000ae6:    f4410170    A.p.    ORR      r1,r1,#0xf00000
        0x08000aea:    4a27        'J      LDR      r2,[pc,#156] ; [0x8000b88] = 0x40020008
        0x08000aec:    3a08        .:      SUBS     r2,r2,#8
        0x08000aee:    6051        Q`      STR      r1,[r2,#4]
        0x08000af0:    e049        I.      B        0x8000b86 ; DMA_DeInit + 322
        0x08000af2:    4925        %I      LDR      r1,[pc,#148] ; [0x8000b88] = 0x40020008
        0x08000af4:    3178        x1      ADDS     r1,r1,#0x78
        0x08000af6:    4288        .B      CMP      r0,r1
        0x08000af8:    d108        ..      BNE      0x8000b0c ; DMA_DeInit + 200
        0x08000afa:    4923        #I      LDR      r1,[pc,#140] ; [0x8000b88] = 0x40020008
        0x08000afc:    3908        .9      SUBS     r1,r1,#8
        0x08000afe:    6849        Ih      LDR      r1,[r1,#4]
        0x08000b00:    f0416170    A.pa    ORR      r1,r1,#0xf000000
        0x08000b04:    4a20         J      LDR      r2,[pc,#128] ; [0x8000b88] = 0x40020008
        0x08000b06:    3a08        .:      SUBS     r2,r2,#8
        0x08000b08:    6051        Q`      STR      r1,[r2,#4]
        0x08000b0a:    e03c        <.      B        0x8000b86 ; DMA_DeInit + 322
        0x08000b0c:    491f        .I      LDR      r1,[pc,#124] ; [0x8000b8c] = 0x40020408
        0x08000b0e:    4288        .B      CMP      r0,r1
        0x08000b10:    d106        ..      BNE      0x8000b20 ; DMA_DeInit + 220
        0x08000b12:    1f01        ..      SUBS     r1,r0,#4
        0x08000b14:    6809        .h      LDR      r1,[r1,#0]
        0x08000b16:    f041010f    A...    ORR      r1,r1,#0xf
        0x08000b1a:    1f02        ..      SUBS     r2,r0,#4
        0x08000b1c:    6011        .`      STR      r1,[r2,#0]
        0x08000b1e:    e032        2.      B        0x8000b86 ; DMA_DeInit + 322
        0x08000b20:    491a        .I      LDR      r1,[pc,#104] ; [0x8000b8c] = 0x40020408
        0x08000b22:    3114        .1      ADDS     r1,r1,#0x14
        0x08000b24:    4288        .B      CMP      r0,r1
        0x08000b26:    d108        ..      BNE      0x8000b3a ; DMA_DeInit + 246
        0x08000b28:    4918        .I      LDR      r1,[pc,#96] ; [0x8000b8c] = 0x40020408
        0x08000b2a:    1f09        ..      SUBS     r1,r1,#4
        0x08000b2c:    6809        .h      LDR      r1,[r1,#0]
        0x08000b2e:    f04101f0    A...    ORR      r1,r1,#0xf0
        0x08000b32:    4a16        .J      LDR      r2,[pc,#88] ; [0x8000b8c] = 0x40020408
        0x08000b34:    1f12        ..      SUBS     r2,r2,#4
        0x08000b36:    6011        .`      STR      r1,[r2,#0]
        0x08000b38:    e025        %.      B        0x8000b86 ; DMA_DeInit + 322
        0x08000b3a:    4914        .I      LDR      r1,[pc,#80] ; [0x8000b8c] = 0x40020408
        0x08000b3c:    3128        (1      ADDS     r1,r1,#0x28
        0x08000b3e:    4288        .B      CMP      r0,r1
        0x08000b40:    d108        ..      BNE      0x8000b54 ; DMA_DeInit + 272
        0x08000b42:    4912        .I      LDR      r1,[pc,#72] ; [0x8000b8c] = 0x40020408
        0x08000b44:    1f09        ..      SUBS     r1,r1,#4
        0x08000b46:    6809        .h      LDR      r1,[r1,#0]
        0x08000b48:    f4416170    A.pa    ORR      r1,r1,#0xf00
        0x08000b4c:    4a0f        .J      LDR      r2,[pc,#60] ; [0x8000b8c] = 0x40020408
        0x08000b4e:    1f12        ..      SUBS     r2,r2,#4
        0x08000b50:    6011        .`      STR      r1,[r2,#0]
        0x08000b52:    e018        ..      B        0x8000b86 ; DMA_DeInit + 322
        0x08000b54:    490d        .I      LDR      r1,[pc,#52] ; [0x8000b8c] = 0x40020408
        0x08000b56:    313c        <1      ADDS     r1,r1,#0x3c
        0x08000b58:    4288        .B      CMP      r0,r1
        0x08000b5a:    d108        ..      BNE      0x8000b6e ; DMA_DeInit + 298
        0x08000b5c:    490b        .I      LDR      r1,[pc,#44] ; [0x8000b8c] = 0x40020408
        0x08000b5e:    1f09        ..      SUBS     r1,r1,#4
        0x08000b60:    6809        .h      LDR      r1,[r1,#0]
        0x08000b62:    f4414170    A.pA    ORR      r1,r1,#0xf000
        0x08000b66:    4a09        .J      LDR      r2,[pc,#36] ; [0x8000b8c] = 0x40020408
        0x08000b68:    1f12        ..      SUBS     r2,r2,#4
        0x08000b6a:    6011        .`      STR      r1,[r2,#0]
        0x08000b6c:    e00b        ..      B        0x8000b86 ; DMA_DeInit + 322
        0x08000b6e:    4907        .I      LDR      r1,[pc,#28] ; [0x8000b8c] = 0x40020408
        0x08000b70:    3150        P1      ADDS     r1,r1,#0x50
        0x08000b72:    4288        .B      CMP      r0,r1
        0x08000b74:    d107        ..      BNE      0x8000b86 ; DMA_DeInit + 322
        0x08000b76:    4905        .I      LDR      r1,[pc,#20] ; [0x8000b8c] = 0x40020408
        0x08000b78:    1f09        ..      SUBS     r1,r1,#4
        0x08000b7a:    6809        .h      LDR      r1,[r1,#0]
        0x08000b7c:    f4412170    A.p!    ORR      r1,r1,#0xf0000
        0x08000b80:    4a02        .J      LDR      r2,[pc,#8] ; [0x8000b8c] = 0x40020408
        0x08000b82:    1f12        ..      SUBS     r2,r2,#4
        0x08000b84:    6011        .`      STR      r1,[r2,#0]
        0x08000b86:    4770        pG      BX       lr
    $d
        0x08000b88:    40020008    ...@    DCD    1073872904
        0x08000b8c:    40020408    ...@    DCD    1073873928
    $t
    i.DMA_GetFlagStatus
    DMA_GetFlagStatus
        0x08000b90:    4601        .F      MOV      r1,r0
        0x08000b92:    2000        .       MOVS     r0,#0
        0x08000b94:    2200        ."      MOVS     r2,#0
        0x08000b96:    f0015380    ...S    AND      r3,r1,#0x10000000
        0x08000b9a:    b113        ..      CBZ      r3,0x8000ba2 ; DMA_GetFlagStatus + 18
        0x08000b9c:    4b05        .K      LDR      r3,[pc,#20] ; [0x8000bb4] = 0x40020400
        0x08000b9e:    681a        .h      LDR      r2,[r3,#0]
        0x08000ba0:    e001        ..      B        0x8000ba6 ; DMA_GetFlagStatus + 22
        0x08000ba2:    4b05        .K      LDR      r3,[pc,#20] ; [0x8000bb8] = 0x40020000
        0x08000ba4:    681a        .h      LDR      r2,[r3,#0]
        0x08000ba6:    ea020301    ....    AND      r3,r2,r1
        0x08000baa:    b10b        ..      CBZ      r3,0x8000bb0 ; DMA_GetFlagStatus + 32
        0x08000bac:    2001        .       MOVS     r0,#1
        0x08000bae:    e000        ..      B        0x8000bb2 ; DMA_GetFlagStatus + 34
        0x08000bb0:    2000        .       MOVS     r0,#0
        0x08000bb2:    4770        pG      BX       lr
    $d
        0x08000bb4:    40020400    ...@    DCD    1073873920
        0x08000bb8:    40020000    ...@    DCD    1073872896
    $t
    i.DMA_ITConfig
    DMA_ITConfig
        0x08000bbc:    b11a        ..      CBZ      r2,0x8000bc6 ; DMA_ITConfig + 10
        0x08000bbe:    6803        .h      LDR      r3,[r0,#0]
        0x08000bc0:    430b        .C      ORRS     r3,r3,r1
        0x08000bc2:    6003        .`      STR      r3,[r0,#0]
        0x08000bc4:    e002        ..      B        0x8000bcc ; DMA_ITConfig + 16
        0x08000bc6:    6803        .h      LDR      r3,[r0,#0]
        0x08000bc8:    438b        .C      BICS     r3,r3,r1
        0x08000bca:    6003        .`      STR      r3,[r0,#0]
        0x08000bcc:    4770        pG      BX       lr
    i.DMA_Init
    DMA_Init
        0x08000bce:    b510        ..      PUSH     {r4,lr}
        0x08000bd0:    2200        ."      MOVS     r2,#0
        0x08000bd2:    6802        .h      LDR      r2,[r0,#0]
        0x08000bd4:    f64773f0    G..s    MOV      r3,#0x7ff0
        0x08000bd8:    439a        .C      BICS     r2,r2,r3
        0x08000bda:    6a0c        .j      LDR      r4,[r1,#0x20]
        0x08000bdc:    688b        .h      LDR      r3,[r1,#8]
        0x08000bde:    4323        #C      ORRS     r3,r3,r4
        0x08000be0:    690c        .i      LDR      r4,[r1,#0x10]
        0x08000be2:    4323        #C      ORRS     r3,r3,r4
        0x08000be4:    694c        Li      LDR      r4,[r1,#0x14]
        0x08000be6:    4323        #C      ORRS     r3,r3,r4
        0x08000be8:    698c        .i      LDR      r4,[r1,#0x18]
        0x08000bea:    4323        #C      ORRS     r3,r3,r4
        0x08000bec:    69cc        .i      LDR      r4,[r1,#0x1c]
        0x08000bee:    4323        #C      ORRS     r3,r3,r4
        0x08000bf0:    6a4c        Lj      LDR      r4,[r1,#0x24]
        0x08000bf2:    4323        #C      ORRS     r3,r3,r4
        0x08000bf4:    6a8c        .j      LDR      r4,[r1,#0x28]
        0x08000bf6:    4323        #C      ORRS     r3,r3,r4
        0x08000bf8:    431a        .C      ORRS     r2,r2,r3
        0x08000bfa:    6002        .`      STR      r2,[r0,#0]
        0x08000bfc:    68cb        .h      LDR      r3,[r1,#0xc]
        0x08000bfe:    6043        C`      STR      r3,[r0,#4]
        0x08000c00:    680b        .h      LDR      r3,[r1,#0]
        0x08000c02:    6083        .`      STR      r3,[r0,#8]
        0x08000c04:    684b        Kh      LDR      r3,[r1,#4]
        0x08000c06:    60c3        .`      STR      r3,[r0,#0xc]
        0x08000c08:    bd10        ..      POP      {r4,pc}
    i.DMA_SetCurrDataCounter
    DMA_SetCurrDataCounter
        0x08000c0a:    6041        A`      STR      r1,[r0,#4]
        0x08000c0c:    4770        pG      BX       lr
    i.DebugMon_Handler
    DebugMon_Handler
        0x08000c0e:    4770        pG      BX       lr
    i.DefaultDinosaurCollisionEXCUTE
    DefaultDinosaurCollisionEXCUTE
        0x08000c10:    b510        ..      PUSH     {r4,lr}
        0x08000c12:    f001f85b    ..[.    BL       IndicateLedClose ; 0x8001ccc
        0x08000c16:    4802        .H      LDR      r0,[pc,#8] ; [0x8000c20] = 0x2000270c
        0x08000c18:    f000fcac    ....    BL       GameStop ; 0x8001574
        0x08000c1c:    bd10        ..      POP      {r4,pc}
    $d
        0x08000c1e:    0000        ..      DCW    0
        0x08000c20:    2000270c    .'.     DCD    536880908
    $t
    i.DefaultDinosaurCollisionJUDGE
    DefaultDinosaurCollisionJUDGE
        0x08000c24:    4804        .H      LDR      r0,[pc,#16] ; [0x8000c38] = 0x20000404
        0x08000c26:    6800        .h      LDR      r0,[r0,#0]
        0x08000c28:    6900        .i      LDR      r0,[r0,#0x10]
        0x08000c2a:    282b        +(      CMP      r0,#0x2b
        0x08000c2c:    dd01        ..      BLE      0x8000c32 ; DefaultDinosaurCollisionJUDGE + 14
        0x08000c2e:    2001        .       MOVS     r0,#1
        0x08000c30:    4770        pG      BX       lr
        0x08000c32:    2000        .       MOVS     r0,#0
        0x08000c34:    e7fc        ..      B        0x8000c30 ; DefaultDinosaurCollisionJUDGE + 12
    $d
        0x08000c36:    0000        ..      DCW    0
        0x08000c38:    20000404    ...     DCD    536871940
    $t
    i.DefaultDinosaurJUMP
    DefaultDinosaurJUMP
        0x08000c3c:    b510        ..      PUSH     {r4,lr}
        0x08000c3e:    4804        .H      LDR      r0,[pc,#16] ; [0x8000c50] = 0x20000404
        0x08000c40:    6800        .h      LDR      r0,[r0,#0]
        0x08000c42:    2102        .!      MOVS     r1,#2
        0x08000c44:    6a02        .j      LDR      r2,[r0,#0x20]
        0x08000c46:    4802        .H      LDR      r0,[pc,#8] ; [0x8000c50] = 0x20000404
        0x08000c48:    6800        .h      LDR      r0,[r0,#0]
        0x08000c4a:    4790        .G      BLX      r2
        0x08000c4c:    bd10        ..      POP      {r4,pc}
    $d
        0x08000c4e:    0000        ..      DCW    0
        0x08000c50:    20000404    ...     DCD    536871940
    $t
    i.DefaultGameControl
    DefaultGameControl
        0x08000c54:    b510        ..      PUSH     {r4,lr}
        0x08000c56:    4604        .F      MOV      r4,r0
        0x08000c58:    b124        $.      CBZ      r4,0x8000c64 ; DefaultGameControl + 16
        0x08000c5a:    2c01        .,      CMP      r4,#1
        0x08000c5c:    d009        ..      BEQ      0x8000c72 ; DefaultGameControl + 30
        0x08000c5e:    2c02        .,      CMP      r4,#2
        0x08000c60:    d10d        ..      BNE      0x8000c7e ; DefaultGameControl + 42
        0x08000c62:    e00b        ..      B        0x8000c7c ; DefaultGameControl + 40
        0x08000c64:    4807        .H      LDR      r0,[pc,#28] ; [0x8000c84] = 0x2000044c
        0x08000c66:    6800        .h      LDR      r0,[r0,#0]
        0x08000c68:    7800        .x      LDRB     r0,[r0,#0]
        0x08000c6a:    b908        ..      CBNZ     r0,0x8000c70 ; DefaultGameControl + 28
        0x08000c6c:    f7ffffe6    ....    BL       DefaultDinosaurJUMP ; 0x8000c3c
        0x08000c70:    e005        ..      B        0x8000c7e ; DefaultGameControl + 42
        0x08000c72:    4804        .H      LDR      r0,[pc,#16] ; [0x8000c84] = 0x2000044c
        0x08000c74:    6800        .h      LDR      r0,[r0,#0]
        0x08000c76:    f000fc0f    ....    BL       GameRunning ; 0x8001498
        0x08000c7a:    e000        ..      B        0x8000c7e ; DefaultGameControl + 42
        0x08000c7c:    bf00        ..      NOP      
        0x08000c7e:    bf00        ..      NOP      
        0x08000c80:    2000        .       MOVS     r0,#0
        0x08000c82:    bd10        ..      POP      {r4,pc}
    $d
        0x08000c84:    2000044c    L..     DCD    536872012
    $t
    i.DefaultPlayerControl
    DefaultPlayerControl
        0x08000c88:    b570        p.      PUSH     {r4-r6,lr}
        0x08000c8a:    4605        .F      MOV      r5,r0
        0x08000c8c:    460c        .F      MOV      r4,r1
        0x08000c8e:    2d07        .-      CMP      r5,#7
        0x08000c90:    d231        1.      BCS      0x8000cf6 ; DefaultPlayerControl + 110
        0x08000c92:    e8dff005    ....    TBB      [pc,r5]
    $d
        0x08000c96:    0904        ..      DCW    2308
        0x08000c98:    2618130e    ...&    DCD    639111950
        0x08000c9c:    002b        +.      DCW    43
    $t
        0x08000c9e:    4817        .H      LDR      r0,[pc,#92] ; [0x8000cfc] = 0x20000174
        0x08000ca0:    6800        .h      LDR      r0,[r0,#0]
        0x08000ca2:    f001fcec    ....    BL       PlayerPlay ; 0x800267e
        0x08000ca6:    e026        &.      B        0x8000cf6 ; DefaultPlayerControl + 110
        0x08000ca8:    4814        .H      LDR      r0,[pc,#80] ; [0x8000cfc] = 0x20000174
        0x08000caa:    6800        .h      LDR      r0,[r0,#0]
        0x08000cac:    f001fdda    ....    BL       PlayerStop ; 0x8002864
        0x08000cb0:    e021        !.      B        0x8000cf6 ; DefaultPlayerControl + 110
        0x08000cb2:    4812        .H      LDR      r0,[pc,#72] ; [0x8000cfc] = 0x20000174
        0x08000cb4:    6800        .h      LDR      r0,[r0,#0]
        0x08000cb6:    f001fc9f    ....    BL       PlayerLast ; 0x80025f8
        0x08000cba:    e01c        ..      B        0x8000cf6 ; DefaultPlayerControl + 110
        0x08000cbc:    480f        .H      LDR      r0,[pc,#60] ; [0x8000cfc] = 0x20000174
        0x08000cbe:    6800        .h      LDR      r0,[r0,#0]
        0x08000cc0:    f001fcbb    ....    BL       PlayerNext ; 0x800263a
        0x08000cc4:    e017        ..      B        0x8000cf6 ; DefaultPlayerControl + 110
        0x08000cc6:    490d        .I      LDR      r1,[pc,#52] ; [0x8000cfc] = 0x20000174
        0x08000cc8:    6820         h      LDR      r0,[r4,#0]
        0x08000cca:    6809        .h      LDR      r1,[r1,#0]
        0x08000ccc:    6048        H`      STR      r0,[r1,#4]
        0x08000cce:    480b        .H      LDR      r0,[pc,#44] ; [0x8000cfc] = 0x20000174
        0x08000cd0:    6800        .h      LDR      r0,[r0,#0]
        0x08000cd2:    6c00        .l      LDR      r0,[r0,#0x40]
        0x08000cd4:    68c2        .h      LDR      r2,[r0,#0xc]
        0x08000cd6:    4809        .H      LDR      r0,[pc,#36] ; [0x8000cfc] = 0x20000174
        0x08000cd8:    6801        .h      LDR      r1,[r0,#0]
        0x08000cda:    1d09        ..      ADDS     r1,r1,#4
        0x08000cdc:    2000        .       MOVS     r0,#0
        0x08000cde:    4790        .G      BLX      r2
        0x08000ce0:    e009        ..      B        0x8000cf6 ; DefaultPlayerControl + 110
        0x08000ce2:    4806        .H      LDR      r0,[pc,#24] ; [0x8000cfc] = 0x20000174
        0x08000ce4:    6800        .h      LDR      r0,[r0,#0]
        0x08000ce6:    6840        @h      LDR      r0,[r0,#4]
        0x08000ce8:    6020         `      STR      r0,[r4,#0]
        0x08000cea:    e004        ..      B        0x8000cf6 ; DefaultPlayerControl + 110
        0x08000cec:    4803        .H      LDR      r0,[pc,#12] ; [0x8000cfc] = 0x20000174
        0x08000cee:    6800        .h      LDR      r0,[r0,#0]
        0x08000cf0:    7800        .x      LDRB     r0,[r0,#0]
        0x08000cf2:    6020         `      STR      r0,[r4,#0]
        0x08000cf4:    bf00        ..      NOP      
        0x08000cf6:    bf00        ..      NOP      
        0x08000cf8:    2000        .       MOVS     r0,#0
        0x08000cfa:    bd70        p.      POP      {r4-r6,pc}
    $d
        0x08000cfc:    20000174    t..     DCD    536871284
    $t
    i.DisplayDevInit
    DisplayDevInit
        0x08000d00:    e92d41f0    -..A    PUSH     {r4-r8,lr}
        0x08000d04:    a663        c.      ADR      r6,{pc}+0x190 ; 0x8000e94
        0x08000d06:    f002f8c5    ....    BL       SetDefaultDisplayDev ; 0x8002e94
        0x08000d0a:    4965        eI      LDR      r1,[pc,#404] ; [0x8000ea0] = 0x20000790
        0x08000d0c:    6008        .`      STR      r0,[r1,#0]
        0x08000d0e:    4608        .F      MOV      r0,r1
        0x08000d10:    6800        .h      LDR      r0,[r0,#0]
        0x08000d12:    b920         .      CBNZ     r0,0x8000d1e ; DisplayDevInit + 30
        0x08000d14:    a063        c.      ADR      r0,{pc}+0x190 ; 0x8000ea4
        0x08000d16:    f002fd19    ....    BL       __0printf$3 ; 0x800374c
        0x08000d1a:    e8bd81f0    ....    POP      {r4-r8,pc}
        0x08000d1e:    a067        g.      ADR      r0,{pc}+0x19e ; 0x8000ebc
        0x08000d20:    f002fd14    ....    BL       __0printf$3 ; 0x800374c
        0x08000d24:    f003fb2a    ..*.    BL       oled_clear ; 0x800437c
        0x08000d28:    a06a        j.      ADR      r0,{pc}+0x1ac ; 0x8000ed4
        0x08000d2a:    f002fd0f    ....    BL       __0printf$3 ; 0x800374c
        0x08000d2e:    2400        .$      MOVS     r4,#0
        0x08000d30:    e011        ..      B        0x8000d56 ; DisplayDevInit + 86
        0x08000d32:    2500        .%      MOVS     r5,#0
        0x08000d34:    e009        ..      B        0x8000d4a ; DisplayDevInit + 74
        0x08000d36:    485a        ZH      LDR      r0,[pc,#360] ; [0x8000ea0] = 0x20000790
        0x08000d38:    6800        .h      LDR      r0,[r0,#0]
        0x08000d3a:    2301        .#      MOVS     r3,#1
        0x08000d3c:    4622        "F      MOV      r2,r4
        0x08000d3e:    4629        )F      MOV      r1,r5
        0x08000d40:    6a07        .j      LDR      r7,[r0,#0x20]
        0x08000d42:    4857        WH      LDR      r0,[pc,#348] ; [0x8000ea0] = 0x20000790
        0x08000d44:    6800        .h      LDR      r0,[r0,#0]
        0x08000d46:    47b8        .G      BLX      r7
        0x08000d48:    1c6d        m.      ADDS     r5,r5,#1
        0x08000d4a:    4855        UH      LDR      r0,[pc,#340] ; [0x8000ea0] = 0x20000790
        0x08000d4c:    6800        .h      LDR      r0,[r0,#0]
        0x08000d4e:    6880        .h      LDR      r0,[r0,#8]
        0x08000d50:    42a8        .B      CMP      r0,r5
        0x08000d52:    dcf0        ..      BGT      0x8000d36 ; DisplayDevInit + 54
        0x08000d54:    1c64        d.      ADDS     r4,r4,#1
        0x08000d56:    4852        RH      LDR      r0,[pc,#328] ; [0x8000ea0] = 0x20000790
        0x08000d58:    6800        .h      LDR      r0,[r0,#0]
        0x08000d5a:    68c0        .h      LDR      r0,[r0,#0xc]
        0x08000d5c:    42a0        .B      CMP      r0,r4
        0x08000d5e:    dce8        ..      BGT      0x8000d32 ; DisplayDevInit + 50
        0x08000d60:    494f        OI      LDR      r1,[pc,#316] ; [0x8000ea0] = 0x20000790
        0x08000d62:    6809        .h      LDR      r1,[r1,#0]
        0x08000d64:    68c8        .h      LDR      r0,[r1,#0xc]
        0x08000d66:    eb0071d0    ...q    ADD      r1,r0,r0,LSR #31
        0x08000d6a:    104c        L.      ASRS     r4,r1,#1
        0x08000d6c:    2500        .%      MOVS     r5,#0
        0x08000d6e:    e009        ..      B        0x8000d84 ; DisplayDevInit + 132
        0x08000d70:    484b        KH      LDR      r0,[pc,#300] ; [0x8000ea0] = 0x20000790
        0x08000d72:    6800        .h      LDR      r0,[r0,#0]
        0x08000d74:    2301        .#      MOVS     r3,#1
        0x08000d76:    4622        "F      MOV      r2,r4
        0x08000d78:    4629        )F      MOV      r1,r5
        0x08000d7a:    6a07        .j      LDR      r7,[r0,#0x20]
        0x08000d7c:    4848        HH      LDR      r0,[pc,#288] ; [0x8000ea0] = 0x20000790
        0x08000d7e:    6800        .h      LDR      r0,[r0,#0]
        0x08000d80:    47b8        .G      BLX      r7
        0x08000d82:    1c6d        m.      ADDS     r5,r5,#1
        0x08000d84:    4846        FH      LDR      r0,[pc,#280] ; [0x8000ea0] = 0x20000790
        0x08000d86:    6800        .h      LDR      r0,[r0,#0]
        0x08000d88:    6880        .h      LDR      r0,[r0,#8]
        0x08000d8a:    42a8        .B      CMP      r0,r5
        0x08000d8c:    dcf0        ..      BGT      0x8000d70 ; DisplayDevInit + 112
        0x08000d8e:    4944        DI      LDR      r1,[pc,#272] ; [0x8000ea0] = 0x20000790
        0x08000d90:    6809        .h      LDR      r1,[r1,#0]
        0x08000d92:    6888        .h      LDR      r0,[r1,#8]
        0x08000d94:    eb0071d0    ...q    ADD      r1,r0,r0,LSR #31
        0x08000d98:    104d        M.      ASRS     r5,r1,#1
        0x08000d9a:    2400        .$      MOVS     r4,#0
        0x08000d9c:    e009        ..      B        0x8000db2 ; DisplayDevInit + 178
        0x08000d9e:    4840        @H      LDR      r0,[pc,#256] ; [0x8000ea0] = 0x20000790
        0x08000da0:    6800        .h      LDR      r0,[r0,#0]
        0x08000da2:    2301        .#      MOVS     r3,#1
        0x08000da4:    4622        "F      MOV      r2,r4
        0x08000da6:    4629        )F      MOV      r1,r5
        0x08000da8:    6a07        .j      LDR      r7,[r0,#0x20]
        0x08000daa:    483d        =H      LDR      r0,[pc,#244] ; [0x8000ea0] = 0x20000790
        0x08000dac:    6800        .h      LDR      r0,[r0,#0]
        0x08000dae:    47b8        .G      BLX      r7
        0x08000db0:    1c64        d.      ADDS     r4,r4,#1
        0x08000db2:    483b        ;H      LDR      r0,[pc,#236] ; [0x8000ea0] = 0x20000790
        0x08000db4:    6800        .h      LDR      r0,[r0,#0]
        0x08000db6:    68c0        .h      LDR      r0,[r0,#0xc]
        0x08000db8:    42a0        .B      CMP      r0,r4
        0x08000dba:    dcf0        ..      BGT      0x8000d9e ; DisplayDevInit + 158
        0x08000dbc:    2500        .%      MOVS     r5,#0
        0x08000dbe:    e00a        ..      B        0x8000dd6 ; DisplayDevInit + 214
        0x08000dc0:    006c        l.      LSLS     r4,r5,#1
        0x08000dc2:    4837        7H      LDR      r0,[pc,#220] ; [0x8000ea0] = 0x20000790
        0x08000dc4:    6800        .h      LDR      r0,[r0,#0]
        0x08000dc6:    2301        .#      MOVS     r3,#1
        0x08000dc8:    4622        "F      MOV      r2,r4
        0x08000dca:    4629        )F      MOV      r1,r5
        0x08000dcc:    6a07        .j      LDR      r7,[r0,#0x20]
        0x08000dce:    4834        4H      LDR      r0,[pc,#208] ; [0x8000ea0] = 0x20000790
        0x08000dd0:    6800        .h      LDR      r0,[r0,#0]
        0x08000dd2:    47b8        .G      BLX      r7
        0x08000dd4:    1c6d        m.      ADDS     r5,r5,#1
        0x08000dd6:    4832        2H      LDR      r0,[pc,#200] ; [0x8000ea0] = 0x20000790
        0x08000dd8:    6800        .h      LDR      r0,[r0,#0]
        0x08000dda:    6880        .h      LDR      r0,[r0,#8]
        0x08000ddc:    42a8        .B      CMP      r0,r5
        0x08000dde:    dcef        ..      BGT      0x8000dc0 ; DisplayDevInit + 192
        0x08000de0:    2400        .$      MOVS     r4,#0
        0x08000de2:    e00c        ..      B        0x8000dfe ; DisplayDevInit + 254
        0x08000de4:    f1c40040    ..@.    RSB      r0,r4,#0x40
        0x08000de8:    0045        E.      LSLS     r5,r0,#1
        0x08000dea:    482d        -H      LDR      r0,[pc,#180] ; [0x8000ea0] = 0x20000790
        0x08000dec:    6800        .h      LDR      r0,[r0,#0]
        0x08000dee:    2301        .#      MOVS     r3,#1
        0x08000df0:    4622        "F      MOV      r2,r4
        0x08000df2:    4629        )F      MOV      r1,r5
        0x08000df4:    6a07        .j      LDR      r7,[r0,#0x20]
        0x08000df6:    482a        *H      LDR      r0,[pc,#168] ; [0x8000ea0] = 0x20000790
        0x08000df8:    6800        .h      LDR      r0,[r0,#0]
        0x08000dfa:    47b8        .G      BLX      r7
        0x08000dfc:    1c64        d.      ADDS     r4,r4,#1
        0x08000dfe:    4828        (H      LDR      r0,[pc,#160] ; [0x8000ea0] = 0x20000790
        0x08000e00:    6800        .h      LDR      r0,[r0,#0]
        0x08000e02:    68c0        .h      LDR      r0,[r0,#0xc]
        0x08000e04:    42a0        .B      CMP      r0,r4
        0x08000e06:    dced        ..      BGT      0x8000de4 ; DisplayDevInit + 228
        0x08000e08:    4825        %H      LDR      r0,[pc,#148] ; [0x8000ea0] = 0x20000790
        0x08000e0a:    6800        .h      LDR      r0,[r0,#0]
        0x08000e0c:    69c1        .i      LDR      r1,[r0,#0x1c]
        0x08000e0e:    4824        $H      LDR      r0,[pc,#144] ; [0x8000ea0] = 0x20000790
        0x08000e10:    6800        .h      LDR      r0,[r0,#0]
        0x08000e12:    4788        .G      BLX      r1
        0x08000e14:    a032        2.      ADR      r0,{pc}+0xcc ; 0x8000ee0
        0x08000e16:    f002fc99    ....    BL       __0printf$3 ; 0x800374c
        0x08000e1a:    f002f87b    ..{.    BL       SetDefaultFontLib ; 0x8002f14
        0x08000e1e:    a036        6.      ADR      r0,{pc}+0xda ; 0x8000ef8
        0x08000e20:    f002fc94    ....    BL       __0printf$3 ; 0x800374c
        0x08000e24:    f64323b6    C..#    MOV      r3,#0x3ab6
        0x08000e28:    2220         "      MOVS     r2,#0x20
        0x08000e2a:    2132        2!      MOVS     r1,#0x32
        0x08000e2c:    481c        .H      LDR      r0,[pc,#112] ; [0x8000ea0] = 0x20000790
        0x08000e2e:    6800        .h      LDR      r0,[r0,#0]
        0x08000e30:    f002f964    ..d.    BL       ShowNumberInDisplayDev ; 0x80030fc
        0x08000e34:    4633        3F      MOV      r3,r6
        0x08000e36:    2240        @"      MOVS     r2,#0x40
        0x08000e38:    210c        .!      MOVS     r1,#0xc
        0x08000e3a:    4819        .H      LDR      r0,[pc,#100] ; [0x8000ea0] = 0x20000790
        0x08000e3c:    6800        .h      LDR      r0,[r0,#0]
        0x08000e3e:    f002f985    ....    BL       ShowTextInDisplayDev ; 0x800314c
        0x08000e42:    2400        .$      MOVS     r4,#0
        0x08000e44:    e011        ..      B        0x8000e6a ; DisplayDevInit + 362
        0x08000e46:    2500        .%      MOVS     r5,#0
        0x08000e48:    e009        ..      B        0x8000e5e ; DisplayDevInit + 350
        0x08000e4a:    4815        .H      LDR      r0,[pc,#84] ; [0x8000ea0] = 0x20000790
        0x08000e4c:    6800        .h      LDR      r0,[r0,#0]
        0x08000e4e:    2300        .#      MOVS     r3,#0
        0x08000e50:    4622        "F      MOV      r2,r4
        0x08000e52:    4629        )F      MOV      r1,r5
        0x08000e54:    6a07        .j      LDR      r7,[r0,#0x20]
        0x08000e56:    4812        .H      LDR      r0,[pc,#72] ; [0x8000ea0] = 0x20000790
        0x08000e58:    6800        .h      LDR      r0,[r0,#0]
        0x08000e5a:    47b8        .G      BLX      r7
        0x08000e5c:    1c6d        m.      ADDS     r5,r5,#1
        0x08000e5e:    4810        .H      LDR      r0,[pc,#64] ; [0x8000ea0] = 0x20000790
        0x08000e60:    6800        .h      LDR      r0,[r0,#0]
        0x08000e62:    6880        .h      LDR      r0,[r0,#8]
        0x08000e64:    42a8        .B      CMP      r0,r5
        0x08000e66:    dcf0        ..      BGT      0x8000e4a ; DisplayDevInit + 330
        0x08000e68:    1c64        d.      ADDS     r4,r4,#1
        0x08000e6a:    480d        .H      LDR      r0,[pc,#52] ; [0x8000ea0] = 0x20000790
        0x08000e6c:    6800        .h      LDR      r0,[r0,#0]
        0x08000e6e:    68c0        .h      LDR      r0,[r0,#0xc]
        0x08000e70:    42a0        .B      CMP      r0,r4
        0x08000e72:    dce8        ..      BGT      0x8000e46 ; DisplayDevInit + 326
        0x08000e74:    a017        ..      ADR      r0,{pc}+0x60 ; 0x8000ed4
        0x08000e76:    f002fc69    ..i.    BL       __0printf$3 ; 0x800374c
        0x08000e7a:    f44f707a    O.zp    MOV      r0,#0x3e8
        0x08000e7e:    f002ff77    ..w.    BL       delay ; 0x8003d70
        0x08000e82:    a022        ".      ADR      r0,{pc}+0x8a ; 0x8000f0c
        0x08000e84:    f002fc62    ..b.    BL       __0printf$3 ; 0x800374c
        0x08000e88:    2000        .       MOVS     r0,#0
        0x08000e8a:    f002fc83    ....    BL       __DisplayDevTimerFlushControl ; 0x8003794
        0x08000e8e:    bf00        ..      NOP      
        0x08000e90:    e743        C.      B        0x8000d1a ; DisplayDevInit + 26
    $d
        0x08000e92:    0000        ..      DCW    0
        0x08000e94:    316b7361    ask1    DCD    829125473
        0x08000e98:    32313030    0012    DCD    842084400
        0x08000e9c:    00333231    123.    DCD    3355185
        0x08000ea0:    20000790    ...     DCD    536872848
        0x08000ea4:    d0d3bbc3    ....    DCD    3503537091
        0x08000ea8:    d6d7fbc3    ....    DCD    3604478915
        0x08000eac:    6c6faace    ..ol    DCD    1819257550
        0x08000eb0:    c4b56465    ed..    DCD    3300222053
        0x08000eb4:    b8b1e8c9    ....    DCD    3098667209
        0x08000eb8:    000a0d2e    ....    DCD    658734
        0x08000ebc:    c3b5f1bb    ....    DCD    3283481019
        0x08000ec0:    becad4cf    ....    DCD    3200963791
        0x08000ec4:    b8b1e8c9    ....    DCD    3098667209
        0x08000ec8:    656c6f3a    :ole    DCD    1701605178
        0x08000ecc:    0a0d2e64    d...    DCD    168636004
        0x08000ed0:    00000000    ....    DCD    0
        0x08000ed4:    fdb3e5c7    ....    DCD    4256425415
        0x08000ed8:    bbc4c1c6    ....    DCD    3150234054
        0x08000edc:    000a0d2e    ....    DCD    658734
        0x08000ee0:    cfc8acc4    ....    DCD    3486035140
        0x08000ee4:    e2bfd6d7    ....    DCD    3804223191
        0x08000ee8:    49435341    ASCI    DCD    1229148993
        0x08000eec:    caf5b349    I...    DCD    3405099849
        0x08000ef0:    2eafbbbc    ....    DCD    783268796
        0x08000ef4:    00000a0d    ....    DCD    2573
        0x08000ef8:    becad4cf    ....    DCD    3200963791
        0x08000efc:    fbb7d6d7    ....    DCD    4223129303
        0x08000f00:    c333aeb4    ..3.    DCD    3274944180
        0x08000f04:    0a0d2eeb    ....    DCD    168636139
        0x08000f08:    00000000    ....    DCD    0
        0x08000f0c:    f4c6aabf    ....    DCD    4106660543
        0x08000f10:    b1caa8b6    ....    DCD    2982848694
        0x08000f14:    a2cbf7c6    ....    DCD    2731276230
        0x08000f18:    c1c6c2d0    ....    DCD    3251028688
        0x08000f1c:    0d2ebbc4    ....    DCD    221166532
        0x08000f20:    0000000a    ....    DCD    10
    $t
    i.DisplayDevTimerFlushControl
    DisplayDevTimerFlushControl
        0x08000f24:    4601        .F      MOV      r1,r0
        0x08000f26:    b919        ..      CBNZ     r1,0x8000f30 ; DisplayDevTimerFlushControl + 12
        0x08000f28:    2201        ."      MOVS     r2,#1
        0x08000f2a:    4b03        .K      LDR      r3,[pc,#12] ; [0x8000f38] = 0x2000010c
        0x08000f2c:    601a        .`      STR      r2,[r3,#0]
        0x08000f2e:    e002        ..      B        0x8000f36 ; DisplayDevTimerFlushControl + 18
        0x08000f30:    2200        ."      MOVS     r2,#0
        0x08000f32:    4b01        .K      LDR      r3,[pc,#4] ; [0x8000f38] = 0x2000010c
        0x08000f34:    601a        .`      STR      r2,[r3,#0]
        0x08000f36:    4770        pG      BX       lr
    $d
        0x08000f38:    2000010c    ...     DCD    536871180
    $t
    i.DisplayDeviceRegister
    DisplayDeviceRegister
        0x08000f3c:    b570        p.      PUSH     {r4-r6,lr}
        0x08000f3e:    4604        .F      MOV      r4,r0
        0x08000f40:    460d        .F      MOV      r5,r1
        0x08000f42:    4620         F      MOV      r0,r4
        0x08000f44:    69a1        .i      LDR      r1,[r4,#0x18]
        0x08000f46:    4788        .G      BLX      r1
        0x08000f48:    6025        %`      STR      r5,[r4,#0]
        0x08000f4a:    4805        .H      LDR      r0,[pc,#20] ; [0x8000f60] = 0x20000110
        0x08000f4c:    6801        .h      LDR      r1,[r0,#0]
        0x08000f4e:    6800        .h      LDR      r0,[r0,#0]
        0x08000f50:    1c40        @.      ADDS     r0,r0,#1
        0x08000f52:    4a03        .J      LDR      r2,[pc,#12] ; [0x8000f60] = 0x20000110
        0x08000f54:    6010        .`      STR      r0,[r2,#0]
        0x08000f56:    f1020008    ....    ADD      r0,r2,#8
        0x08000f5a:    f8404021    @.!@    STR      r4,[r0,r1,LSL #2]
        0x08000f5e:    bd70        p.      POP      {r4-r6,pc}
    $d
        0x08000f60:    20000110    ...     DCD    536871184
    $t
    i.DrawBitMapOnFrameBuffer
    DrawBitMapOnFrameBuffer
        0x08000f64:    e92d41f0    -..A    PUSH     {r4-r8,lr}
        0x08000f68:    4607        .F      MOV      r7,r0
        0x08000f6a:    460c        .F      MOV      r4,r1
        0x08000f6c:    6866        fh      LDR      r6,[r4,#4]
        0x08000f6e:    e015        ..      B        0x8000f9c ; DrawBitMapOnFrameBuffer + 56
        0x08000f70:    6825        %h      LDR      r5,[r4,#0]
        0x08000f72:    e00d        ..      B        0x8000f90 ; DrawBitMapOnFrameBuffer + 44
        0x08000f74:    4632        2F      MOV      r2,r6
        0x08000f76:    4629        )F      MOV      r1,r5
        0x08000f78:    4620         F      MOV      r0,r4
        0x08000f7a:    f000fd1d    ....    BL       GetPixelColorFromFrameBuffer ; 0x80019b8
        0x08000f7e:    4680        .F      MOV      r8,r0
        0x08000f80:    4643        CF      MOV      r3,r8
        0x08000f82:    4632        2F      MOV      r2,r6
        0x08000f84:    4629        )F      MOV      r1,r5
        0x08000f86:    4638        8F      MOV      r0,r7
        0x08000f88:    f8d7c020    .. .    LDR      r12,[r7,#0x20]
        0x08000f8c:    47e0        .G      BLX      r12
        0x08000f8e:    1c6d        m.      ADDS     r5,r5,#1
        0x08000f90:    68a1        .h      LDR      r1,[r4,#8]
        0x08000f92:    6820         h      LDR      r0,[r4,#0]
        0x08000f94:    4408        .D      ADD      r0,r0,r1
        0x08000f96:    42a8        .B      CMP      r0,r5
        0x08000f98:    dcec        ..      BGT      0x8000f74 ; DrawBitMapOnFrameBuffer + 16
        0x08000f9a:    1c76        v.      ADDS     r6,r6,#1
        0x08000f9c:    68e1        .h      LDR      r1,[r4,#0xc]
        0x08000f9e:    6860        `h      LDR      r0,[r4,#4]
        0x08000fa0:    4408        .D      ADD      r0,r0,r1
        0x08000fa2:    42b0        .B      CMP      r0,r6
        0x08000fa4:    dce4        ..      BGT      0x8000f70 ; DrawBitMapOnFrameBuffer + 12
        0x08000fa6:    e8bd81f0    ....    POP      {r4-r8,pc}
    i.DrawGraphBitMapOnFrameBuffer
    DrawGraphBitMapOnFrameBuffer
        0x08000faa:    e92d41f0    -..A    PUSH     {r4-r8,lr}
        0x08000fae:    4607        .F      MOV      r7,r0
        0x08000fb0:    460c        .F      MOV      r4,r1
        0x08000fb2:    6866        fh      LDR      r6,[r4,#4]
        0x08000fb4:    e015        ..      B        0x8000fe2 ; DrawGraphBitMapOnFrameBuffer + 56
        0x08000fb6:    6825        %h      LDR      r5,[r4,#0]
        0x08000fb8:    e00d        ..      B        0x8000fd6 ; DrawGraphBitMapOnFrameBuffer + 44
        0x08000fba:    4632        2F      MOV      r2,r6
        0x08000fbc:    4629        )F      MOV      r1,r5
        0x08000fbe:    4620         F      MOV      r0,r4
        0x08000fc0:    f000fc30    ..0.    BL       GetGraphPixelColorFromFrameBuffer ; 0x8001824
        0x08000fc4:    4680        .F      MOV      r8,r0
        0x08000fc6:    4643        CF      MOV      r3,r8
        0x08000fc8:    4632        2F      MOV      r2,r6
        0x08000fca:    4629        )F      MOV      r1,r5
        0x08000fcc:    4638        8F      MOV      r0,r7
        0x08000fce:    f8d7c020    .. .    LDR      r12,[r7,#0x20]
        0x08000fd2:    47e0        .G      BLX      r12
        0x08000fd4:    1c6d        m.      ADDS     r5,r5,#1
        0x08000fd6:    68a1        .h      LDR      r1,[r4,#8]
        0x08000fd8:    6820         h      LDR      r0,[r4,#0]
        0x08000fda:    4408        .D      ADD      r0,r0,r1
        0x08000fdc:    42a8        .B      CMP      r0,r5
        0x08000fde:    dcec        ..      BGT      0x8000fba ; DrawGraphBitMapOnFrameBuffer + 16
        0x08000fe0:    1c76        v.      ADDS     r6,r6,#1
        0x08000fe2:    68e1        .h      LDR      r1,[r4,#0xc]
        0x08000fe4:    6860        `h      LDR      r0,[r4,#4]
        0x08000fe6:    4408        .D      ADD      r0,r0,r1
        0x08000fe8:    42b0        .B      CMP      r0,r6
        0x08000fea:    dce4        ..      BGT      0x8000fb6 ; DrawGraphBitMapOnFrameBuffer + 12
        0x08000fec:    e8bd81f0    ....    POP      {r4-r8,pc}
    i.EncodeStr
    EncodeStr
        0x08000ff0:    7802        .x      LDRB     r2,[r0,#0]
        0x08000ff2:    600a        .`      STR      r2,[r1,#0]
        0x08000ff4:    4770        pG      BX       lr
    i.FKLPVisit
    FKLPVisit
        0x08000ff6:    b510        ..      PUSH     {r4,lr}
        0x08000ff8:    4604        .F      MOV      r4,r0
        0x08000ffa:    68e0        .h      LDR      r0,[r4,#0xc]
        0x08000ffc:    4780        .G      BLX      r0
        0x08000ffe:    bd10        ..      POP      {r4,pc}
    i.FKSPVisit
    FKSPVisit
        0x08001000:    b510        ..      PUSH     {r4,lr}
        0x08001002:    4604        .F      MOV      r4,r0
        0x08001004:    6820         h      LDR      r0,[r4,#0]
        0x08001006:    4780        .G      BLX      r0
        0x08001008:    bd10        ..      POP      {r4,pc}
        0x0800100a:    0000        ..      MOVS     r0,r0
    i.FontLibRegister
    FontLibRegister
        0x0800100c:    b510        ..      PUSH     {r4,lr}
        0x0800100e:    6001        .`      STR      r1,[r0,#0]
        0x08001010:    4a04        .J      LDR      r2,[pc,#16] ; [0x8001024] = 0x20002640
        0x08001012:    6813        .h      LDR      r3,[r2,#0]
        0x08001014:    6812        .h      LDR      r2,[r2,#0]
        0x08001016:    1c52        R.      ADDS     r2,r2,#1
        0x08001018:    4c02        .L      LDR      r4,[pc,#8] ; [0x8001024] = 0x20002640
        0x0800101a:    6022        "`      STR      r2,[r4,#0]
        0x0800101c:    1d22        ".      ADDS     r2,r4,#4
        0x0800101e:    f8420023    B.#.    STR      r0,[r2,r3,LSL #2]
        0x08001022:    bd10        ..      POP      {r4,pc}
    $d
        0x08001024:    20002640    @&.     DCD    536880704
    $t
    i.GAMEInfoOptionChooseFUN
    GAMEInfoOptionChooseFUN
        0x08001028:    b510        ..      PUSH     {r4,lr}
        0x0800102a:    4604        .F      MOV      r4,r0
        0x0800102c:    a311        ..      ADR      r3,{pc}+0x48 ; 0x8001074
        0x0800102e:    2210        ."      MOVS     r2,#0x10
        0x08001030:    210a        .!      MOVS     r1,#0xa
        0x08001032:    4812        .H      LDR      r0,[pc,#72] ; [0x800107c] = 0x20000790
        0x08001034:    6800        .h      LDR      r0,[r0,#0]
        0x08001036:    f002f889    ....    BL       ShowTextInDisplayDev ; 0x800314c
        0x0800103a:    a311        ..      ADR      r3,{pc}+0x46 ; 0x8001080
        0x0800103c:    2220         "      MOVS     r2,#0x20
        0x0800103e:    210a        .!      MOVS     r1,#0xa
        0x08001040:    480e        .H      LDR      r0,[pc,#56] ; [0x800107c] = 0x20000790
        0x08001042:    6800        .h      LDR      r0,[r0,#0]
        0x08001044:    f002f882    ....    BL       ShowTextInDisplayDev ; 0x800314c
        0x08001048:    a30e        ..      ADR      r3,{pc}+0x3c ; 0x8001084
        0x0800104a:    2230        0"      MOVS     r2,#0x30
        0x0800104c:    210a        .!      MOVS     r1,#0xa
        0x0800104e:    480b        .H      LDR      r0,[pc,#44] ; [0x800107c] = 0x20000790
        0x08001050:    6800        .h      LDR      r0,[r0,#0]
        0x08001052:    f002f87b    ..{.    BL       ShowTextInDisplayDev ; 0x800314c
        0x08001056:    a30d        ..      ADR      r3,{pc}+0x36 ; 0x800108c
        0x08001058:    2220         "      MOVS     r2,#0x20
        0x0800105a:    2137        7!      MOVS     r1,#0x37
        0x0800105c:    4807        .H      LDR      r0,[pc,#28] ; [0x800107c] = 0x20000790
        0x0800105e:    6800        .h      LDR      r0,[r0,#0]
        0x08001060:    f002f874    ..t.    BL       ShowTextInDisplayDev ; 0x800314c
        0x08001064:    a30a        ..      ADR      r3,{pc}+0x2c ; 0x8001090
        0x08001066:    2230        0"      MOVS     r2,#0x30
        0x08001068:    2137        7!      MOVS     r1,#0x37
        0x0800106a:    4804        .H      LDR      r0,[pc,#16] ; [0x800107c] = 0x20000790
        0x0800106c:    6800        .h      LDR      r0,[r0,#0]
        0x0800106e:    f002f86d    ..m.    BL       ShowTextInDisplayDev ; 0x800314c
        0x08001072:    bd10        ..      POP      {r4,pc}
    $d
        0x08001074:    52415453    STAR    DCD    1380013139
        0x08001078:    00000054    T...    DCD    84
        0x0800107c:    20000790    ...     DCD    536872848
        0x08001080:    00544553    SET.    DCD    5522771
        0x08001084:    4f464e49    INFO    DCD    1330007625
        0x08001088:    00000000    ....    DCD    0
        0x0800108c:    00002020      ..    DCD    8224
        0x08001090:    00002d3c    <-..    DCD    11580
    $t
    i.GAMEInfoOptionEnterFUN
    GAMEInfoOptionEnterFUN
        0x08001094:    b510        ..      PUSH     {r4,lr}
        0x08001096:    4604        .F      MOV      r4,r0
        0x08001098:    4804        .H      LDR      r0,[pc,#16] ; [0x80010ac] = 0x20000708
        0x0800109a:    6800        .h      LDR      r0,[r0,#0]
        0x0800109c:    b910        ..      CBNZ     r0,0x80010a4 ; GAMEInfoOptionEnterFUN + 16
        0x0800109e:    a004        ..      ADR      r0,{pc}+0x12 ; 0x80010b0
        0x080010a0:    f002fb54    ..T.    BL       __0printf$3 ; 0x800374c
        0x080010a4:    2001        .       MOVS     r0,#1
        0x080010a6:    4901        .I      LDR      r1,[pc,#4] ; [0x80010ac] = 0x20000708
        0x080010a8:    6008        .`      STR      r0,[r1,#0]
        0x080010aa:    bd10        ..      POP      {r4,pc}
    $d
        0x080010ac:    20000708    ...     DCD    536872712
        0x080010b0:    b7cfced3    ....    DCD    3083849427
        0x080010b4:    a2cfc5d0    ....    DCD    2731525584
        0x080010b8:    000a0d2e    ....    DCD    658734
    $t
    i.GAMESetOptionChooseFUN
    GAMESetOptionChooseFUN
        0x080010bc:    b510        ..      PUSH     {r4,lr}
        0x080010be:    4604        .F      MOV      r4,r0
        0x080010c0:    a311        ..      ADR      r3,{pc}+0x48 ; 0x8001108
        0x080010c2:    2210        ."      MOVS     r2,#0x10
        0x080010c4:    210a        .!      MOVS     r1,#0xa
        0x080010c6:    4812        .H      LDR      r0,[pc,#72] ; [0x8001110] = 0x20000790
        0x080010c8:    6800        .h      LDR      r0,[r0,#0]
        0x080010ca:    f002f83f    ..?.    BL       ShowTextInDisplayDev ; 0x800314c
        0x080010ce:    a311        ..      ADR      r3,{pc}+0x46 ; 0x8001114
        0x080010d0:    2220         "      MOVS     r2,#0x20
        0x080010d2:    210a        .!      MOVS     r1,#0xa
        0x080010d4:    480e        .H      LDR      r0,[pc,#56] ; [0x8001110] = 0x20000790
        0x080010d6:    6800        .h      LDR      r0,[r0,#0]
        0x080010d8:    f002f838    ..8.    BL       ShowTextInDisplayDev ; 0x800314c
        0x080010dc:    a30e        ..      ADR      r3,{pc}+0x3c ; 0x8001118
        0x080010de:    2230        0"      MOVS     r2,#0x30
        0x080010e0:    210a        .!      MOVS     r1,#0xa
        0x080010e2:    480b        .H      LDR      r0,[pc,#44] ; [0x8001110] = 0x20000790
        0x080010e4:    6800        .h      LDR      r0,[r0,#0]
        0x080010e6:    f002f831    ..1.    BL       ShowTextInDisplayDev ; 0x800314c
        0x080010ea:    a30d        ..      ADR      r3,{pc}+0x36 ; 0x8001120
        0x080010ec:    2210        ."      MOVS     r2,#0x10
        0x080010ee:    2137        7!      MOVS     r1,#0x37
        0x080010f0:    4807        .H      LDR      r0,[pc,#28] ; [0x8001110] = 0x20000790
        0x080010f2:    6800        .h      LDR      r0,[r0,#0]
        0x080010f4:    f002f82a    ..*.    BL       ShowTextInDisplayDev ; 0x800314c
        0x080010f8:    a30a        ..      ADR      r3,{pc}+0x2c ; 0x8001124
        0x080010fa:    2220         "      MOVS     r2,#0x20
        0x080010fc:    2137        7!      MOVS     r1,#0x37
        0x080010fe:    4804        .H      LDR      r0,[pc,#16] ; [0x8001110] = 0x20000790
        0x08001100:    6800        .h      LDR      r0,[r0,#0]
        0x08001102:    f002f823    ..#.    BL       ShowTextInDisplayDev ; 0x800314c
        0x08001106:    bd10        ..      POP      {r4,pc}
    $d
        0x08001108:    52415453    STAR    DCD    1380013139
        0x0800110c:    00000054    T...    DCD    84
        0x08001110:    20000790    ...     DCD    536872848
        0x08001114:    00544553    SET.    DCD    5522771
        0x08001118:    4f464e49    INFO    DCD    1330007625
        0x0800111c:    00000000    ....    DCD    0
        0x08001120:    00002020      ..    DCD    8224
        0x08001124:    00002d3c    <-..    DCD    11580
    $t
    i.GAMESetOptionEnterFUN
    GAMESetOptionEnterFUN
        0x08001128:    b510        ..      PUSH     {r4,lr}
        0x0800112a:    4604        .F      MOV      r4,r0
        0x0800112c:    4804        .H      LDR      r0,[pc,#16] ; [0x8001140] = 0x20000704
        0x0800112e:    6800        .h      LDR      r0,[r0,#0]
        0x08001130:    b910        ..      CBNZ     r0,0x8001138 ; GAMESetOptionEnterFUN + 16
        0x08001132:    a004        ..      ADR      r0,{pc}+0x12 ; 0x8001144
        0x08001134:    f002fb0a    ....    BL       __0printf$3 ; 0x800374c
        0x08001138:    2001        .       MOVS     r0,#1
        0x0800113a:    4901        .I      LDR      r1,[pc,#4] ; [0x8001140] = 0x20000704
        0x0800113c:    6008        .`      STR      r0,[r1,#0]
        0x0800113e:    bd10        ..      POP      {r4,pc}
    $d
        0x08001140:    20000704    ...     DCD    536872708
        0x08001144:    b7cfced3    ....    DCD    3083849427
        0x08001148:    c3d6e8c9    ....    DCD    3285641417
        0x0800114c:    000a0d2e    ....    DCD    658734
    $t
    i.GAMEStartOptionChooseFUN
    GAMEStartOptionChooseFUN
        0x08001150:    b538        8.      PUSH     {r3-r5,lr}
        0x08001152:    4604        .F      MOV      r4,r0
        0x08001154:    481a        .H      LDR      r0,[pc,#104] ; [0x80011c0] = 0x20000450
        0x08001156:    6800        .h      LDR      r0,[r0,#0]
        0x08001158:    b968        h.      CBNZ     r0,0x8001176 ; GAMEStartOptionChooseFUN + 38
        0x0800115a:    2040        @       MOVS     r0,#0x40
        0x0800115c:    2380        .#      MOVS     r3,#0x80
        0x0800115e:    4602        .F      MOV      r2,r0
        0x08001160:    2100        .!      MOVS     r1,#0
        0x08001162:    9000        ..      STR      r0,[sp,#0]
        0x08001164:    4817        .H      LDR      r0,[pc,#92] ; [0x80011c4] = 0x20000790
        0x08001166:    6800        .h      LDR      r0,[r0,#0]
        0x08001168:    f7fffbfc    ....    BL       ClearInDisplayDev ; 0x8000964
        0x0800116c:    4814        .H      LDR      r0,[pc,#80] ; [0x80011c0] = 0x20000450
        0x0800116e:    6800        .h      LDR      r0,[r0,#0]
        0x08001170:    1c40        @.      ADDS     r0,r0,#1
        0x08001172:    4913        .I      LDR      r1,[pc,#76] ; [0x80011c0] = 0x20000450
        0x08001174:    6008        .`      STR      r0,[r1,#0]
        0x08001176:    a314        ..      ADR      r3,{pc}+0x52 ; 0x80011c8
        0x08001178:    2210        ."      MOVS     r2,#0x10
        0x0800117a:    210a        .!      MOVS     r1,#0xa
        0x0800117c:    4811        .H      LDR      r0,[pc,#68] ; [0x80011c4] = 0x20000790
        0x0800117e:    6800        .h      LDR      r0,[r0,#0]
        0x08001180:    f001ffe4    ....    BL       ShowTextInDisplayDev ; 0x800314c
        0x08001184:    a312        ..      ADR      r3,{pc}+0x4c ; 0x80011d0
        0x08001186:    2220         "      MOVS     r2,#0x20
        0x08001188:    210a        .!      MOVS     r1,#0xa
        0x0800118a:    480e        .H      LDR      r0,[pc,#56] ; [0x80011c4] = 0x20000790
        0x0800118c:    6800        .h      LDR      r0,[r0,#0]
        0x0800118e:    f001ffdd    ....    BL       ShowTextInDisplayDev ; 0x800314c
        0x08001192:    a310        ..      ADR      r3,{pc}+0x42 ; 0x80011d4
        0x08001194:    2230        0"      MOVS     r2,#0x30
        0x08001196:    210a        .!      MOVS     r1,#0xa
        0x08001198:    480a        .H      LDR      r0,[pc,#40] ; [0x80011c4] = 0x20000790
        0x0800119a:    6800        .h      LDR      r0,[r0,#0]
        0x0800119c:    f001ffd6    ....    BL       ShowTextInDisplayDev ; 0x800314c
        0x080011a0:    a30e        ..      ADR      r3,{pc}+0x3c ; 0x80011dc
        0x080011a2:    2230        0"      MOVS     r2,#0x30
        0x080011a4:    2137        7!      MOVS     r1,#0x37
        0x080011a6:    4807        .H      LDR      r0,[pc,#28] ; [0x80011c4] = 0x20000790
        0x080011a8:    6800        .h      LDR      r0,[r0,#0]
        0x080011aa:    f001ffcf    ....    BL       ShowTextInDisplayDev ; 0x800314c
        0x080011ae:    a30c        ..      ADR      r3,{pc}+0x32 ; 0x80011e0
        0x080011b0:    2210        ."      MOVS     r2,#0x10
        0x080011b2:    2137        7!      MOVS     r1,#0x37
        0x080011b4:    4803        .H      LDR      r0,[pc,#12] ; [0x80011c4] = 0x20000790
        0x080011b6:    6800        .h      LDR      r0,[r0,#0]
        0x080011b8:    f001ffc8    ....    BL       ShowTextInDisplayDev ; 0x800314c
        0x080011bc:    bd38        8.      POP      {r3-r5,pc}
    $d
        0x080011be:    0000        ..      DCW    0
        0x080011c0:    20000450    P..     DCD    536872016
        0x080011c4:    20000790    ...     DCD    536872848
        0x080011c8:    52415453    STAR    DCD    1380013139
        0x080011cc:    00000054    T...    DCD    84
        0x080011d0:    00544553    SET.    DCD    5522771
        0x080011d4:    4f464e49    INFO    DCD    1330007625
        0x080011d8:    00000000    ....    DCD    0
        0x080011dc:    00002020      ..    DCD    8224
        0x080011e0:    00002d3c    <-..    DCD    11580
    $t
    i.GAMEStartOptionEnterFUN
    GAMEStartOptionEnterFUN
        0x080011e4:    b510        ..      PUSH     {r4,lr}
        0x080011e6:    4604        .F      MOV      r4,r0
        0x080011e8:    4804        .H      LDR      r0,[pc,#16] ; [0x80011fc] = 0x20000700
        0x080011ea:    6800        .h      LDR      r0,[r0,#0]
        0x080011ec:    b910        ..      CBNZ     r0,0x80011f4 ; GAMEStartOptionEnterFUN + 16
        0x080011ee:    a004        ..      ADR      r0,{pc}+0x12 ; 0x8001200
        0x080011f0:    f002faac    ....    BL       __0printf$3 ; 0x800374c
        0x080011f4:    2001        .       MOVS     r0,#1
        0x080011f6:    4901        .I      LDR      r1,[pc,#4] ; [0x80011fc] = 0x20000700
        0x080011f8:    6008        .`      STR      r0,[r1,#0]
        0x080011fa:    bd10        ..      POP      {r4,pc}
    $d
        0x080011fc:    20000700    ...     DCD    536872704
        0x08001200:    a5c8aad7    ....    DCD    2781391575
        0x08001204:    b7cfced3    ....    DCD    3083849427
        0x08001208:    ccb3dfcf    ....    DCD    3434340303
        0x0800120c:    000a0d2e    ....    DCD    658734
    $t
    i.GPIOButtonInit
    GPIOButtonInit
        0x08001210:    b510        ..      PUSH     {r4,lr}
        0x08001212:    4604        .F      MOV      r4,r0
        0x08001214:    4620         F      MOV      r0,r4
        0x08001216:    f000fde3    ....    BL       KAL_GPIOButtonInit ; 0x8001de0
        0x0800121a:    bd10        ..      POP      {r4,pc}
    i.GPIO_Init
    GPIO_Init
        0x0800121c:    e92d41f0    -..A    PUSH     {r4-r8,lr}
        0x08001220:    4602        .F      MOV      r2,r0
        0x08001222:    2500        .%      MOVS     r5,#0
        0x08001224:    2600        .&      MOVS     r6,#0
        0x08001226:    2000        .       MOVS     r0,#0
        0x08001228:    2300        .#      MOVS     r3,#0
        0x0800122a:    2400        .$      MOVS     r4,#0
        0x0800122c:    2700        .'      MOVS     r7,#0
        0x0800122e:    f891c003    ....    LDRB     r12,[r1,#3]
        0x08001232:    f00c050f    ....    AND      r5,r12,#0xf
        0x08001236:    f891c003    ....    LDRB     r12,[r1,#3]
        0x0800123a:    f00c0c10    ....    AND      r12,r12,#0x10
        0x0800123e:    f1bc0f00    ....    CMP      r12,#0
        0x08001242:    d003        ..      BEQ      0x800124c ; GPIO_Init + 48
        0x08001244:    f891c002    ....    LDRB     r12,[r1,#2]
        0x08001248:    ea4c0505    L...    ORR      r5,r12,r5
        0x0800124c:    f891c000    ....    LDRB     r12,[r1,#0]
        0x08001250:    f1bc0f00    ....    CMP      r12,#0
        0x08001254:    d031        1.      BEQ      0x80012ba ; GPIO_Init + 158
        0x08001256:    6814        .h      LDR      r4,[r2,#0]
        0x08001258:    2000        .       MOVS     r0,#0
        0x0800125a:    e02b        +.      B        0x80012b4 ; GPIO_Init + 152
        0x0800125c:    f04f0c01    O...    MOV      r12,#1
        0x08001260:    fa0cf300    ....    LSL      r3,r12,r0
        0x08001264:    f8b1c000    ....    LDRH     r12,[r1,#0]
        0x08001268:    ea0c0603    ....    AND      r6,r12,r3
        0x0800126c:    429e        .B      CMP      r6,r3
        0x0800126e:    d120         .      BNE      0x80012b2 ; GPIO_Init + 150
        0x08001270:    0083        ..      LSLS     r3,r0,#2
        0x08001272:    f04f0c0f    O...    MOV      r12,#0xf
        0x08001276:    fa0cf703    ....    LSL      r7,r12,r3
        0x0800127a:    43bc        .C      BICS     r4,r4,r7
        0x0800127c:    fa05fc03    ....    LSL      r12,r5,r3
        0x08001280:    ea4c0404    L...    ORR      r4,r12,r4
        0x08001284:    f891c003    ....    LDRB     r12,[r1,#3]
        0x08001288:    f1bc0f28    ..(.    CMP      r12,#0x28
        0x0800128c:    d106        ..      BNE      0x800129c ; GPIO_Init + 128
        0x0800128e:    f04f0c01    O...    MOV      r12,#1
        0x08001292:    fa0cfc00    ....    LSL      r12,r12,r0
        0x08001296:    f8c2c014    ....    STR      r12,[r2,#0x14]
        0x0800129a:    e00a        ..      B        0x80012b2 ; GPIO_Init + 150
        0x0800129c:    f891c003    ....    LDRB     r12,[r1,#3]
        0x080012a0:    f1bc0f48    ..H.    CMP      r12,#0x48
        0x080012a4:    d105        ..      BNE      0x80012b2 ; GPIO_Init + 150
        0x080012a6:    f04f0c01    O...    MOV      r12,#1
        0x080012aa:    fa0cfc00    ....    LSL      r12,r12,r0
        0x080012ae:    f8c2c010    ....    STR      r12,[r2,#0x10]
        0x080012b2:    1c40        @.      ADDS     r0,r0,#1
        0x080012b4:    2808        .(      CMP      r0,#8
        0x080012b6:    d3d1        ..      BCC      0x800125c ; GPIO_Init + 64
        0x080012b8:    6014        .`      STR      r4,[r2,#0]
        0x080012ba:    f8b1c000    ....    LDRH     r12,[r1,#0]
        0x080012be:    f1bc0fff    ....    CMP      r12,#0xff
        0x080012c2:    dd34        4.      BLE      0x800132e ; GPIO_Init + 274
        0x080012c4:    6854        Th      LDR      r4,[r2,#4]
        0x080012c6:    2000        .       MOVS     r0,#0
        0x080012c8:    e02e        ..      B        0x8001328 ; GPIO_Init + 268
        0x080012ca:    f1000c08    ....    ADD      r12,r0,#8
        0x080012ce:    f04f0801    O...    MOV      r8,#1
        0x080012d2:    fa08f30c    ....    LSL      r3,r8,r12
        0x080012d6:    f8b1c000    ....    LDRH     r12,[r1,#0]
        0x080012da:    ea0c0603    ....    AND      r6,r12,r3
        0x080012de:    429e        .B      CMP      r6,r3
        0x080012e0:    d121        !.      BNE      0x8001326 ; GPIO_Init + 266
        0x080012e2:    0083        ..      LSLS     r3,r0,#2
        0x080012e4:    f04f0c0f    O...    MOV      r12,#0xf
        0x080012e8:    fa0cf703    ....    LSL      r7,r12,r3
        0x080012ec:    43bc        .C      BICS     r4,r4,r7
        0x080012ee:    fa05fc03    ....    LSL      r12,r5,r3
        0x080012f2:    ea4c0404    L...    ORR      r4,r12,r4
        0x080012f6:    f891c003    ....    LDRB     r12,[r1,#3]
        0x080012fa:    f1bc0f28    ..(.    CMP      r12,#0x28
        0x080012fe:    d105        ..      BNE      0x800130c ; GPIO_Init + 240
        0x08001300:    f1000c08    ....    ADD      r12,r0,#8
        0x08001304:    fa08f80c    ....    LSL      r8,r8,r12
        0x08001308:    f8c28014    ....    STR      r8,[r2,#0x14]
        0x0800130c:    f891c003    ....    LDRB     r12,[r1,#3]
        0x08001310:    f1bc0f48    ..H.    CMP      r12,#0x48
        0x08001314:    d107        ..      BNE      0x8001326 ; GPIO_Init + 266
        0x08001316:    f1000c08    ....    ADD      r12,r0,#8
        0x0800131a:    f04f0801    O...    MOV      r8,#1
        0x0800131e:    fa08f80c    ....    LSL      r8,r8,r12
        0x08001322:    f8c28010    ....    STR      r8,[r2,#0x10]
        0x08001326:    1c40        @.      ADDS     r0,r0,#1
        0x08001328:    2808        .(      CMP      r0,#8
        0x0800132a:    d3ce        ..      BCC      0x80012ca ; GPIO_Init + 174
        0x0800132c:    6054        T`      STR      r4,[r2,#4]
        0x0800132e:    e8bd81f0    ....    POP      {r4-r8,pc}
    i.GPIO_ReadInputDataBit
    GPIO_ReadInputDataBit
        0x08001332:    4602        .F      MOV      r2,r0
        0x08001334:    2000        .       MOVS     r0,#0
        0x08001336:    6893        .h      LDR      r3,[r2,#8]
        0x08001338:    400b        .@      ANDS     r3,r3,r1
        0x0800133a:    b10b        ..      CBZ      r3,0x8001340 ; GPIO_ReadInputDataBit + 14
        0x0800133c:    2001        .       MOVS     r0,#1
        0x0800133e:    e000        ..      B        0x8001342 ; GPIO_ReadInputDataBit + 16
        0x08001340:    2000        .       MOVS     r0,#0
        0x08001342:    4770        pG      BX       lr
    i.GameChooseFUN
    GameChooseFUN
        0x08001344:    b538        8.      PUSH     {r3-r5,lr}
        0x08001346:    4604        .F      MOV      r4,r0
        0x08001348:    4829        )H      LDR      r0,[pc,#164] ; [0x80013f0] = 0x20000450
        0x0800134a:    6800        .h      LDR      r0,[r0,#0]
        0x0800134c:    b168        h.      CBZ      r0,0x800136a ; GameChooseFUN + 38
        0x0800134e:    2040        @       MOVS     r0,#0x40
        0x08001350:    2380        .#      MOVS     r3,#0x80
        0x08001352:    4602        .F      MOV      r2,r0
        0x08001354:    2100        .!      MOVS     r1,#0
        0x08001356:    9000        ..      STR      r0,[sp,#0]
        0x08001358:    4826        &H      LDR      r0,[pc,#152] ; [0x80013f4] = 0x20000790
        0x0800135a:    6800        .h      LDR      r0,[r0,#0]
        0x0800135c:    f7fffb02    ....    BL       ClearInDisplayDev ; 0x8000964
        0x08001360:    4823        #H      LDR      r0,[pc,#140] ; [0x80013f0] = 0x20000450
        0x08001362:    6800        .h      LDR      r0,[r0,#0]
        0x08001364:    1e40        @.      SUBS     r0,r0,#1
        0x08001366:    4922        "I      LDR      r1,[pc,#136] ; [0x80013f0] = 0x20000450
        0x08001368:    6008        .`      STR      r0,[r1,#0]
        0x0800136a:    2030        0       MOVS     r0,#0x30
        0x0800136c:    4603        .F      MOV      r3,r0
        0x0800136e:    2240        @"      MOVS     r2,#0x40
        0x08001370:    2128        (!      MOVS     r1,#0x28
        0x08001372:    9000        ..      STR      r0,[sp,#0]
        0x08001374:    481f        .H      LDR      r0,[pc,#124] ; [0x80013f4] = 0x20000790
        0x08001376:    6800        .h      LDR      r0,[r0,#0]
        0x08001378:    f7fffaf4    ....    BL       ClearInDisplayDev ; 0x8000964
        0x0800137c:    4b1e        .K      LDR      r3,[pc,#120] ; [0x80013f8] = 0x20000454
        0x0800137e:    2218        ."      MOVS     r2,#0x18
        0x08001380:    2100        .!      MOVS     r1,#0
        0x08001382:    481c        .H      LDR      r0,[pc,#112] ; [0x80013f4] = 0x20000790
        0x08001384:    6800        .h      LDR      r0,[r0,#0]
        0x08001386:    f001fea5    ....    BL       ShowGraphInDisplayDev ; 0x80030d4
        0x0800138a:    4b1c        .K      LDR      r3,[pc,#112] ; [0x80013fc] = 0x20000474
        0x0800138c:    2210        ."      MOVS     r2,#0x10
        0x0800138e:    2114        .!      MOVS     r1,#0x14
        0x08001390:    4818        .H      LDR      r0,[pc,#96] ; [0x80013f4] = 0x20000790
        0x08001392:    6800        .h      LDR      r0,[r0,#0]
        0x08001394:    f001fe9e    ....    BL       ShowGraphInDisplayDev ; 0x80030d4
        0x08001398:    4b19        .K      LDR      r3,[pc,#100] ; [0x8001400] = 0x20000494
        0x0800139a:    2210        ."      MOVS     r2,#0x10
        0x0800139c:    2170        p!      MOVS     r1,#0x70
        0x0800139e:    4815        .H      LDR      r0,[pc,#84] ; [0x80013f4] = 0x20000790
        0x080013a0:    6800        .h      LDR      r0,[r0,#0]
        0x080013a2:    f001fe97    ....    BL       ShowGraphInDisplayDev ; 0x80030d4
        0x080013a6:    4b17        .K      LDR      r3,[pc,#92] ; [0x8001404] = 0x200004b4
        0x080013a8:    2230        0"      MOVS     r2,#0x30
        0x080013aa:    210c        .!      MOVS     r1,#0xc
        0x080013ac:    4811        .H      LDR      r0,[pc,#68] ; [0x80013f4] = 0x20000790
        0x080013ae:    6800        .h      LDR      r0,[r0,#0]
        0x080013b0:    f001fe90    ....    BL       ShowGraphInDisplayDev ; 0x80030d4
        0x080013b4:    4b14        .K      LDR      r3,[pc,#80] ; [0x8001408] = 0x200004d4
        0x080013b6:    2230        0"      MOVS     r2,#0x30
        0x080013b8:    2164        d!      MOVS     r1,#0x64
        0x080013ba:    480e        .H      LDR      r0,[pc,#56] ; [0x80013f4] = 0x20000790
        0x080013bc:    6800        .h      LDR      r0,[r0,#0]
        0x080013be:    f001fe89    ....    BL       ShowGraphInDisplayDev ; 0x80030d4
        0x080013c2:    4b12        .K      LDR      r3,[pc,#72] ; [0x800140c] = 0x200005ac
        0x080013c4:    2240        @"      MOVS     r2,#0x40
        0x080013c6:    2128        (!      MOVS     r1,#0x28
        0x080013c8:    480a        .H      LDR      r0,[pc,#40] ; [0x80013f4] = 0x20000790
        0x080013ca:    6800        .h      LDR      r0,[r0,#0]
        0x080013cc:    f001fe82    ....    BL       ShowGraphInDisplayDev ; 0x80030d4
        0x080013d0:    4b0f        .K      LDR      r3,[pc,#60] ; [0x8001410] = 0x20000514
        0x080013d2:    2240        @"      MOVS     r2,#0x40
        0x080013d4:    2104        .!      MOVS     r1,#4
        0x080013d6:    4807        .H      LDR      r0,[pc,#28] ; [0x80013f4] = 0x20000790
        0x080013d8:    6800        .h      LDR      r0,[r0,#0]
        0x080013da:    f001fe7b    ..{.    BL       ShowGraphInDisplayDev ; 0x80030d4
        0x080013de:    4b0d        .K      LDR      r3,[pc,#52] ; [0x8001414] = 0x20000534
        0x080013e0:    2240        @"      MOVS     r2,#0x40
        0x080013e2:    216c        l!      MOVS     r1,#0x6c
        0x080013e4:    4803        .H      LDR      r0,[pc,#12] ; [0x80013f4] = 0x20000790
        0x080013e6:    6800        .h      LDR      r0,[r0,#0]
        0x080013e8:    f001fe74    ..t.    BL       ShowGraphInDisplayDev ; 0x80030d4
        0x080013ec:    bd38        8.      POP      {r3-r5,pc}
    $d
        0x080013ee:    0000        ..      DCW    0
        0x080013f0:    20000450    P..     DCD    536872016
        0x080013f4:    20000790    ...     DCD    536872848
        0x080013f8:    20000454    T..     DCD    536872020
        0x080013fc:    20000474    t..     DCD    536872052
        0x08001400:    20000494    ...     DCD    536872084
        0x08001404:    200004b4    ...     DCD    536872116
        0x08001408:    200004d4    ...     DCD    536872148
        0x0800140c:    200005ac    ...     DCD    536872364
        0x08001410:    20000514    ...     DCD    536872212
        0x08001414:    20000534    4..     DCD    536872244
    $t
    i.GameEnterFUN
    GameEnterFUN
        0x08001418:    b510        ..      PUSH     {r4,lr}
        0x0800141a:    4604        .F      MOV      r4,r0
        0x0800141c:    a001        ..      ADR      r0,{pc}+8 ; 0x8001424
        0x0800141e:    f002f995    ....    BL       __0printf$3 ; 0x800374c
        0x08001422:    bd10        ..      POP      {r4,pc}
    $d
        0x08001424:    b6d4c0d3    ....    DCD    3067396307
        0x08001428:    e1bbbbb2    ....    DCD    3787176882
        0x0800142c:    efb4bdb5    ....    DCD    4021599669
        0x08001430:    d4f1b72e    ....    DCD    3572610862
        0x08001434:    ceedb4f2    ....    DCD    3471684850
        0x08001438:    0a0d2ef3    ....    DCD    168636147
        0x0800143c:    00000000    ....    DCD    0
    $t
    i.GameFirstKeyLongPressFun
    GameFirstKeyLongPressFun
        0x08001440:    b510        ..      PUSH     {r4,lr}
        0x08001442:    a002        ..      ADR      r0,{pc}+0xa ; 0x800144c
        0x08001444:    f002f982    ....    BL       __0printf$3 ; 0x800374c
        0x08001448:    bd10        ..      POP      {r4,pc}
    $d
        0x0800144a:    0000        ..      DCW    0
        0x0800144c:    b7cfced3    ....    DCD    3083849427
        0x08001450:    acccb4d7    ....    DCD    2899096791
        0x08001454:    b53ac2cf    ..:.    DCD    3040527055
        0x08001458:    b8bbd2da    ....    DCD    3099316954
        0x0800145c:    bcb4b0f6    ....    DCD    3165958390
        0x08001460:    b0a4b3fc    ....    DCD    2963583996
        0x08001464:    0a0d2eb4    ....    DCD    168636084
        0x08001468:    00000000    ....    DCD    0
    $t
    i.GameFirstKeyShortPressFun
    GameFirstKeyShortPressFun
        0x0800146c:    b510        ..      PUSH     {r4,lr}
        0x0800146e:    a002        ..      ADR      r0,{pc}+0xa ; 0x8001478
        0x08001470:    f002f96c    ..l.    BL       __0printf$3 ; 0x800374c
        0x08001474:    bd10        ..      POP      {r4,pc}
    $d
        0x08001476:    0000        ..      DCW    0
        0x08001478:    b7cfced3    ....    DCD    3083849427
        0x0800147c:    acccb4d7    ....    DCD    2899096791
        0x08001480:    b53ac2cf    ..:.    DCD    3040527055
        0x08001484:    b8bbd2da    ....    DCD    3099316954
        0x08001488:    bcb4b0f6    ....    DCD    3165958390
        0x0800148c:    b0ccb6fc    ....    DCD    2966206204
        0x08001490:    0a0d2eb4    ....    DCD    168636084
        0x08001494:    00000000    ....    DCD    0
    $t
    i.GameRunning
    GameRunning
        0x08001498:    b538        8.      PUSH     {r3-r5,lr}
        0x0800149a:    4604        .F      MOV      r4,r0
        0x0800149c:    7820         x      LDRB     r0,[r4,#0]
        0x0800149e:    b180        ..      CBZ      r0,0x80014c2 ; GameRunning + 42
        0x080014a0:    2000        .       MOVS     r0,#0
        0x080014a2:    7020         p      STRB     r0,[r4,#0]
        0x080014a4:    a008        ..      ADR      r0,{pc}+0x24 ; 0x80014c8
        0x080014a6:    f002f951    ..Q.    BL       __0printf$3 ; 0x800374c
        0x080014aa:    2040        @       MOVS     r0,#0x40
        0x080014ac:    2380        .#      MOVS     r3,#0x80
        0x080014ae:    4602        .F      MOV      r2,r0
        0x080014b0:    2100        .!      MOVS     r1,#0
        0x080014b2:    9000        ..      STR      r0,[sp,#0]
        0x080014b4:    4809        .H      LDR      r0,[pc,#36] ; [0x80014dc] = 0x20000790
        0x080014b6:    6800        .h      LDR      r0,[r0,#0]
        0x080014b8:    f7fffa54    ..T.    BL       ClearInDisplayDev ; 0x8000964
        0x080014bc:    6920         i      LDR      r0,[r4,#0x10]
        0x080014be:    6841        Ah      LDR      r1,[r0,#4]
        0x080014c0:    4788        .G      BLX      r1
        0x080014c2:    2000        .       MOVS     r0,#0
        0x080014c4:    bd38        8.      POP      {r3-r5,pc}
    $d
        0x080014c6:    0000        ..      DCW    0
        0x080014c8:    b7cfced3    ....    DCD    3083849427
        0x080014cc:    ebc8f8bd    ....    DCD    3955816637
        0x080014d0:    d0d0cbd4    ....    DCD    3503344596
        0x080014d4:    acccb4d7    ....    DCD    2899096791
        0x080014d8:    0000002e    ....    DCD    46
        0x080014dc:    20000790    ...     DCD    536872848
    $t
    i.GameSecondKeyLongPressFun
    GameSecondKeyLongPressFun
        0x080014e0:    b510        ..      PUSH     {r4,lr}
        0x080014e2:    a002        ..      ADR      r0,{pc}+0xa ; 0x80014ec
        0x080014e4:    f002f932    ..2.    BL       __0printf$3 ; 0x800374c
        0x080014e8:    bd10        ..      POP      {r4,pc}
    $d
        0x080014ea:    0000        ..      DCW    0
        0x080014ec:    b7cfced3    ....    DCD    3083849427
        0x080014f0:    acccb4d7    ....    DCD    2899096791
        0x080014f4:    b53ac2cf    ..:.    DCD    3040527055
        0x080014f8:    b8feb6da    ....    DCD    3103700698
        0x080014fc:    bcb4b0f6    ....    DCD    3165958390
        0x08001500:    b0a4b3fc    ....    DCD    2963583996
        0x08001504:    0a0d2eb4    ....    DCD    168636084
        0x08001508:    00000000    ....    DCD    0
    $t
    i.GameSecondKeyShortPressFun
    GameSecondKeyShortPressFun
        0x0800150c:    b510        ..      PUSH     {r4,lr}
        0x0800150e:    a003        ..      ADR      r0,{pc}+0xe ; 0x800151c
        0x08001510:    f002f91c    ....    BL       __0printf$3 ; 0x800374c
        0x08001514:    2001        .       MOVS     r0,#1
        0x08001516:    f7fffb9d    ....    BL       DefaultGameControl ; 0x8000c54
        0x0800151a:    bd10        ..      POP      {r4,pc}
    $d
        0x0800151c:    b7cfced3    ....    DCD    3083849427
        0x08001520:    acccb4d7    ....    DCD    2899096791
        0x08001524:    b53ac2cf    ..:.    DCD    3040527055
        0x08001528:    b8feb6da    ....    DCD    3103700698
        0x0800152c:    bcb4b0f6    ....    DCD    3165958390
        0x08001530:    b0ccb6fc    ....    DCD    2966206204
        0x08001534:    0a0d2eb4    ....    DCD    168636084
        0x08001538:    00000000    ....    DCD    0
    $t
    i.GameShow
    GameShow
        0x0800153c:    b510        ..      PUSH     {r4,lr}
        0x0800153e:    4604        .F      MOV      r4,r0
        0x08001540:    a30a        ..      ADR      r3,{pc}+0x2c ; 0x800156c
        0x08001542:    2210        ."      MOVS     r2,#0x10
        0x08001544:    2123        #!      MOVS     r1,#0x23
        0x08001546:    480a        .H      LDR      r0,[pc,#40] ; [0x8001570] = 0x20000790
        0x08001548:    6800        .h      LDR      r0,[r0,#0]
        0x0800154a:    f001fdff    ....    BL       ShowTextInDisplayDev ; 0x800314c
        0x0800154e:    2210        ."      MOVS     r2,#0x10
        0x08001550:    213a        :!      MOVS     r1,#0x3a
        0x08001552:    4807        .H      LDR      r0,[pc,#28] ; [0x8001570] = 0x20000790
        0x08001554:    6863        ch      LDR      r3,[r4,#4]
        0x08001556:    6800        .h      LDR      r0,[r0,#0]
        0x08001558:    f001fdd0    ....    BL       ShowNumberInDisplayDev ; 0x80030fc
        0x0800155c:    2210        ."      MOVS     r2,#0x10
        0x0800155e:    215c        \!      MOVS     r1,#0x5c
        0x08001560:    4803        .H      LDR      r0,[pc,#12] ; [0x8001570] = 0x20000790
        0x08001562:    68a3        .h      LDR      r3,[r4,#8]
        0x08001564:    6800        .h      LDR      r0,[r0,#0]
        0x08001566:    f001fdc9    ....    BL       ShowNumberInDisplayDev ; 0x80030fc
        0x0800156a:    bd10        ..      POP      {r4,pc}
    $d
        0x0800156c:    003a4948    HI:.    DCD    3819848
        0x08001570:    20000790    ...     DCD    536872848
    $t
    i.GameStop
    GameStop
        0x08001574:    b510        ..      PUSH     {r4,lr}
        0x08001576:    4604        .F      MOV      r4,r0
        0x08001578:    7820         x      LDRB     r0,[r4,#0]
        0x0800157a:    2801        .(      CMP      r0,#1
        0x0800157c:    d001        ..      BEQ      0x8001582 ; GameStop + 14
        0x0800157e:    2001        .       MOVS     r0,#1
        0x08001580:    7020         p      STRB     r0,[r4,#0]
        0x08001582:    e9d41001    ....    LDRD     r1,r0,[r4,#4]
        0x08001586:    4288        .B      CMP      r0,r1
        0x08001588:    dd01        ..      BLE      0x800158e ; GameStop + 26
        0x0800158a:    68a0        .h      LDR      r0,[r4,#8]
        0x0800158c:    6060        ``      STR      r0,[r4,#4]
        0x0800158e:    2000        .       MOVS     r0,#0
        0x08001590:    60a0        .`      STR      r0,[r4,#8]
        0x08001592:    4b0b        .K      LDR      r3,[pc,#44] ; [0x80015c0] = 0x2000040c
        0x08001594:    2228        ("      MOVS     r2,#0x28
        0x08001596:    2132        2!      MOVS     r1,#0x32
        0x08001598:    480a        .H      LDR      r0,[pc,#40] ; [0x80015c4] = 0x20000790
        0x0800159a:    6800        .h      LDR      r0,[r0,#0]
        0x0800159c:    f001fd9a    ....    BL       ShowGraphInDisplayDev ; 0x80030d4
        0x080015a0:    a309        ..      ADR      r3,{pc}+0x28 ; 0x80015c8
        0x080015a2:    2228        ("      MOVS     r2,#0x28
        0x080015a4:    210a        .!      MOVS     r1,#0xa
        0x080015a6:    4807        .H      LDR      r0,[pc,#28] ; [0x80015c4] = 0x20000790
        0x080015a8:    6800        .h      LDR      r0,[r0,#0]
        0x080015aa:    f001fdcf    ....    BL       ShowTextInDisplayDev ; 0x800314c
        0x080015ae:    a308        ..      ADR      r3,{pc}+0x22 ; 0x80015d0
        0x080015b0:    2228        ("      MOVS     r2,#0x28
        0x080015b2:    2156        V!      MOVS     r1,#0x56
        0x080015b4:    4803        .H      LDR      r0,[pc,#12] ; [0x80015c4] = 0x20000790
        0x080015b6:    6800        .h      LDR      r0,[r0,#0]
        0x080015b8:    f001fdc8    ....    BL       ShowTextInDisplayDev ; 0x800314c
        0x080015bc:    2000        .       MOVS     r0,#0
        0x080015be:    bd10        ..      POP      {r4,pc}
    $d
        0x080015c0:    2000040c    ...     DCD    536871948
        0x080015c4:    20000790    ...     DCD    536872848
        0x080015c8:    454d4147    GAME    DCD    1162690887
        0x080015cc:    00000000    ....    DCD    0
        0x080015d0:    5245564f    OVER    DCD    1380275791
        0x080015d4:    00000000    ....    DCD    0
    $t
    i.GameThirdKeyLongPressFun
    GameThirdKeyLongPressFun
        0x080015d8:    b510        ..      PUSH     {r4,lr}
        0x080015da:    a002        ..      ADR      r0,{pc}+0xa ; 0x80015e4
        0x080015dc:    f002f8b6    ....    BL       __0printf$3 ; 0x800374c
        0x080015e0:    bd10        ..      POP      {r4,pc}
    $d
        0x080015e2:    0000        ..      DCW    0
        0x080015e4:    b7cfced3    ....    DCD    3083849427
        0x080015e8:    acccb4d7    ....    DCD    2899096791
        0x080015ec:    b53ac2cf    ..:.    DCD    3040527055
        0x080015f0:    b8fdc8da    ....    DCD    3103639770
        0x080015f4:    bcb4b0f6    ....    DCD    3165958390
        0x080015f8:    b0a4b3fc    ....    DCD    2963583996
        0x080015fc:    0a0d2eb4    ....    DCD    168636084
        0x08001600:    00000000    ....    DCD    0
    $t
    i.GameThirdKeyShortPressFun
    GameThirdKeyShortPressFun
        0x08001604:    b510        ..      PUSH     {r4,lr}
        0x08001606:    a003        ..      ADR      r0,{pc}+0xe ; 0x8001614
        0x08001608:    f002f8a0    ....    BL       __0printf$3 ; 0x800374c
        0x0800160c:    2000        .       MOVS     r0,#0
        0x0800160e:    f7fffb21    ..!.    BL       DefaultGameControl ; 0x8000c54
        0x08001612:    bd10        ..      POP      {r4,pc}
    $d
        0x08001614:    b7cfced3    ....    DCD    3083849427
        0x08001618:    acccb4d7    ....    DCD    2899096791
        0x0800161c:    b53ac2cf    ..:.    DCD    3040527055
        0x08001620:    b8fdc8da    ....    DCD    3103639770
        0x08001624:    bcb4b0f6    ....    DCD    3165958390
        0x08001628:    b0ccb6fc    ....    DCD    2966206204
        0x0800162c:    0a0d2eb4    ....    DCD    168636084
        0x08001630:    00000000    ....    DCD    0
    $t
    i.GameThreadEntry
    GameThreadEntry
        0x08001634:    f7feff6e    ..n.    BL       AddRole ; 0x8000514
        0x08001638:    f000f8f0    ....    BL       GetGame ; 0x800181c
        0x0800163c:    4922        "I      LDR      r1,[pc,#136] ; [0x80016c8] = 0x2000044c
        0x0800163e:    6008        .`      STR      r0,[r1,#0]
        0x08001640:    4b22        "K      LDR      r3,[pc,#136] ; [0x80016cc] = 0x2000042c
        0x08001642:    2240        @"      MOVS     r2,#0x40
        0x08001644:    2100        .!      MOVS     r1,#0
        0x08001646:    4822        "H      LDR      r0,[pc,#136] ; [0x80016d0] = 0x20000790
        0x08001648:    6800        .h      LDR      r0,[r0,#0]
        0x0800164a:    f001fd43    ..C.    BL       ShowGraphInDisplayDev ; 0x80030d4
        0x0800164e:    f64260e0    B..`    MOV      r0,#0x2ee0
        0x08001652:    f002fb8d    ....    BL       delay ; 0x8003d70
        0x08001656:    2400        .$      MOVS     r4,#0
        0x08001658:    e011        ..      B        0x800167e ; GameThreadEntry + 74
        0x0800165a:    2500        .%      MOVS     r5,#0
        0x0800165c:    e009        ..      B        0x8001672 ; GameThreadEntry + 62
        0x0800165e:    481c        .H      LDR      r0,[pc,#112] ; [0x80016d0] = 0x20000790
        0x08001660:    6800        .h      LDR      r0,[r0,#0]
        0x08001662:    2300        .#      MOVS     r3,#0
        0x08001664:    4622        "F      MOV      r2,r4
        0x08001666:    4629        )F      MOV      r1,r5
        0x08001668:    6a06        .j      LDR      r6,[r0,#0x20]
        0x0800166a:    4819        .H      LDR      r0,[pc,#100] ; [0x80016d0] = 0x20000790
        0x0800166c:    6800        .h      LDR      r0,[r0,#0]
        0x0800166e:    47b0        .G      BLX      r6
        0x08001670:    1c6d        m.      ADDS     r5,r5,#1
        0x08001672:    4817        .H      LDR      r0,[pc,#92] ; [0x80016d0] = 0x20000790
        0x08001674:    6800        .h      LDR      r0,[r0,#0]
        0x08001676:    6880        .h      LDR      r0,[r0,#8]
        0x08001678:    42a8        .B      CMP      r0,r5
        0x0800167a:    dcf0        ..      BGT      0x800165e ; GameThreadEntry + 42
        0x0800167c:    1c64        d.      ADDS     r4,r4,#1
        0x0800167e:    4814        .H      LDR      r0,[pc,#80] ; [0x80016d0] = 0x20000790
        0x08001680:    6800        .h      LDR      r0,[r0,#0]
        0x08001682:    68c0        .h      LDR      r0,[r0,#0xc]
        0x08001684:    42a0        .B      CMP      r0,r4
        0x08001686:    dce8        ..      BGT      0x800165a ; GameThreadEntry + 38
        0x08001688:    a012        ..      ADR      r0,{pc}+0x4c ; 0x80016d4
        0x0800168a:    f002f85f    .._.    BL       __0printf$3 ; 0x800374c
        0x0800168e:    e019        ..      B        0x80016c4 ; GameThreadEntry + 144
        0x08001690:    480d        .H      LDR      r0,[pc,#52] ; [0x80016c8] = 0x2000044c
        0x08001692:    6800        .h      LDR      r0,[r0,#0]
        0x08001694:    7800        .x      LDRB     r0,[r0,#0]
        0x08001696:    b9a8        ..      CBNZ     r0,0x80016c4 ; GameThreadEntry + 144
        0x08001698:    480b        .H      LDR      r0,[pc,#44] ; [0x80016c8] = 0x2000044c
        0x0800169a:    6800        .h      LDR      r0,[r0,#0]
        0x0800169c:    6880        .h      LDR      r0,[r0,#8]
        0x0800169e:    1c40        @.      ADDS     r0,r0,#1
        0x080016a0:    4909        .I      LDR      r1,[pc,#36] ; [0x80016c8] = 0x2000044c
        0x080016a2:    6809        .h      LDR      r1,[r1,#0]
        0x080016a4:    6088        .`      STR      r0,[r1,#8]
        0x080016a6:    4a08        .J      LDR      r2,[pc,#32] ; [0x80016c8] = 0x2000044c
        0x080016a8:    6812        .h      LDR      r2,[r2,#0]
        0x080016aa:    6910        .i      LDR      r0,[r2,#0x10]
        0x080016ac:    4a06        .J      LDR      r2,[pc,#24] ; [0x80016c8] = 0x2000044c
        0x080016ae:    6812        .h      LDR      r2,[r2,#0]
        0x080016b0:    6912        .i      LDR      r2,[r2,#0x10]
        0x080016b2:    6811        .h      LDR      r1,[r2,#0]
        0x080016b4:    4788        .G      BLX      r1
        0x080016b6:    4804        .H      LDR      r0,[pc,#16] ; [0x80016c8] = 0x2000044c
        0x080016b8:    6800        .h      LDR      r0,[r0,#0]
        0x080016ba:    f7ffff3f    ..?.    BL       GameShow ; 0x800153c
        0x080016be:    20c8        .       MOVS     r0,#0xc8
        0x080016c0:    f002fb56    ..V.    BL       delay ; 0x8003d70
        0x080016c4:    e7e4        ..      B        0x8001690 ; GameThreadEntry + 92
    $d
        0x080016c6:    0000        ..      DCW    0
        0x080016c8:    2000044c    L..     DCD    536872012
        0x080016cc:    2000042c    ,..     DCD    536871980
        0x080016d0:    20000790    ...     DCD    536872848
        0x080016d4:    656d6147    Game    DCD    1701667143
        0x080016d8:    72685420     Thr    DCD    1919439904
        0x080016dc:    2e646165    ead.    DCD    778330469
        0x080016e0:    00000a0d    ....    DCD    2573
    $t
    i.GetBackOption
    GetBackOption
        0x080016e4:    b570        p.      PUSH     {r4-r6,lr}
        0x080016e6:    4605        .F      MOV      r5,r0
        0x080016e8:    1d28        (.      ADDS     r0,r5,#4
        0x080016ea:    f000f949    ..I.    BL       GetNodeParent ; 0x8001980
        0x080016ee:    4604        .F      MOV      r4,r0
        0x080016f0:    480c        .H      LDR      r0,[pc,#48] ; [0x8001724] = 0x2000070c
        0x080016f2:    6800        .h      LDR      r0,[r0,#0]
        0x080016f4:    7c00        .|      LDRB     r0,[r0,#0x10]
        0x080016f6:    2801        .(      CMP      r0,#1
        0x080016f8:    d107        ..      BNE      0x800170a ; GetBackOption + 38
        0x080016fa:    a00b        ..      ADR      r0,{pc}+0x2e ; 0x8001728
        0x080016fc:    f002f826    ..&.    BL       __0printf$3 ; 0x800374c
        0x08001700:    2000        .       MOVS     r0,#0
        0x08001702:    4908        .I      LDR      r1,[pc,#32] ; [0x8001724] = 0x2000070c
        0x08001704:    6809        .h      LDR      r1,[r1,#0]
        0x08001706:    7408        .t      STRB     r0,[r1,#0x10]
        0x08001708:    e00a        ..      B        0x8001720 ; GetBackOption + 60
        0x0800170a:    b134        4.      CBZ      r4,0x800171a ; GetBackOption + 54
        0x0800170c:    a00d        ..      ADR      r0,{pc}+0x38 ; 0x8001744
        0x0800170e:    f002f81d    ....    BL       __0printf$3 ; 0x800374c
        0x08001712:    1f20         .      SUBS     r0,r4,#4
        0x08001714:    4903        .I      LDR      r1,[pc,#12] ; [0x8001724] = 0x2000070c
        0x08001716:    6008        .`      STR      r0,[r1,#0]
        0x08001718:    e002        ..      B        0x8001720 ; GetBackOption + 60
        0x0800171a:    a00d        ..      ADR      r0,{pc}+0x36 ; 0x8001750
        0x0800171c:    f002f816    ....    BL       __0printf$3 ; 0x800374c
        0x08001720:    bd70        p.      POP      {r4-r6,pc}
    $d
        0x08001722:    0000        ..      DCW    0
        0x08001724:    2000070c    ...     DCD    536872716
        0x08001728:    bbbbd0c7    ....    DCD    3149648071
        0x0800172c:    504fbdb5    ..OP    DCD    1347403189
        0x08001730:    4e4f4954    TION    DCD    1313818964
        0x08001734:    4f48435f    _CHO    DCD    1330135903
        0x08001738:    d745534f    OSE.    DCD    3611644751
        0x0800173c:    2eacccb4    ....    DCD    783076532
        0x08001740:    00000a0d    ....    DCD    2573
        0x08001744:    b8b8d0d3    ....    DCD    3099119827
        0x08001748:    e3b5dabd    ....    DCD    3820346045
        0x0800174c:    000a0d2e    ....    DCD    658734
        0x08001750:    d0d3bbc3    ....    DCD    3503537091
        0x08001754:    e1bdb8b8    ....    DCD    3787307192
        0x08001758:    0d2ee3b5    ....    DCD    221176757
        0x0800175c:    0000000a    ....    DCD    10
    $t
    i.GetBeepDevice
    GetBeepDevice
        0x08001760:    b510        ..      PUSH     {r4,lr}
        0x08001762:    4604        .F      MOV      r4,r0
        0x08001764:    4620         F      MOV      r0,r4
        0x08001766:    f002f81f    ....    BL       __GetBeepDevice ; 0x80037a8
        0x0800176a:    bd10        ..      POP      {r4,pc}
    i.GetBeepSongLen
    GetBeepSongLen
        0x0800176c:    4602        .F      MOV      r2,r0
        0x0800176e:    2100        .!      MOVS     r1,#0
        0x08001770:    e000        ..      B        0x8001774 ; GetBeepSongLen + 8
        0x08001772:    1c89        ..      ADDS     r1,r1,#2
        0x08001774:    f102001e    ....    ADD      r0,r2,#0x1e
        0x08001778:    5c40        @\      LDRB     r0,[r0,r1]
        0x0800177a:    2800        .(      CMP      r0,#0
        0x0800177c:    d1f9        ..      BNE      0x8001772 ; GetBeepSongLen + 6
        0x0800177e:    460b        .F      MOV      r3,r1
        0x08001780:    eb0170d3    ...p    ADD      r0,r1,r3,LSR #31
        0x08001784:    1040        @.      ASRS     r0,r0,#1
        0x08001786:    4770        pG      BX       lr
    i.GetBeepSongName
    GetBeepSongName
        0x08001788:    4602        .F      MOV      r2,r0
        0x0800178a:    2000        .       MOVS     r0,#0
        0x0800178c:    e002        ..      B        0x8001794 ; GetBeepSongName + 12
        0x0800178e:    5c13        .\      LDRB     r3,[r2,r0]
        0x08001790:    540b        .T      STRB     r3,[r1,r0]
        0x08001792:    1c40        @.      ADDS     r0,r0,#1
        0x08001794:    5c13        .\      LDRB     r3,[r2,r0]
        0x08001796:    2b00        .+      CMP      r3,#0
        0x08001798:    d1f9        ..      BNE      0x800178e ; GetBeepSongName + 6
        0x0800179a:    540b        .T      STRB     r3,[r1,r0]
        0x0800179c:    4770        pG      BX       lr
    i.GetDisplayDevice
    GetDisplayDevice
        0x0800179e:    b510        ..      PUSH     {r4,lr}
        0x080017a0:    4604        .F      MOV      r4,r0
        0x080017a2:    4620         F      MOV      r0,r4
        0x080017a4:    f002f832    ..2.    BL       __GetDisplayDevice ; 0x800380c
        0x080017a8:    bd10        ..      POP      {r4,pc}
        0x080017aa:    0000        ..      MOVS     r0,r0
    i.GetEnterOption
    GetEnterOption
        0x080017ac:    b570        p.      PUSH     {r4-r6,lr}
        0x080017ae:    4605        .F      MOV      r5,r0
        0x080017b0:    1d28        (.      ADDS     r0,r5,#4
        0x080017b2:    f000f8d7    ....    BL       GetNodeFirstChild ; 0x8001964
        0x080017b6:    4604        .F      MOV      r4,r0
        0x080017b8:    b134        4.      CBZ      r4,0x80017c8 ; GetEnterOption + 28
        0x080017ba:    a007        ..      ADR      r0,{pc}+0x1e ; 0x80017d8
        0x080017bc:    f001ffc6    ....    BL       __0printf$3 ; 0x800374c
        0x080017c0:    1f20         .      SUBS     r0,r4,#4
        0x080017c2:    4908        .I      LDR      r1,[pc,#32] ; [0x80017e4] = 0x2000070c
        0x080017c4:    6008        .`      STR      r0,[r1,#0]
        0x080017c6:    e006        ..      B        0x80017d6 ; GetEnterOption + 42
        0x080017c8:    a007        ..      ADR      r0,{pc}+0x20 ; 0x80017e8
        0x080017ca:    f001ffbf    ....    BL       __0printf$3 ; 0x800374c
        0x080017ce:    2001        .       MOVS     r0,#1
        0x080017d0:    4904        .I      LDR      r1,[pc,#16] ; [0x80017e4] = 0x2000070c
        0x080017d2:    6809        .h      LDR      r1,[r1,#0]
        0x080017d4:    7408        .t      STRB     r0,[r1,#0x10]
        0x080017d6:    bd70        p.      POP      {r4-r6,pc}
    $d
        0x080017d8:    d3d7d0d3    ....    DCD    3554136275
        0x080017dc:    e3b5e1bd    ....    DCD    3820347837
        0x080017e0:    000a0d2e    ....    DCD    658734
        0x080017e4:    2000070c    ...     DCD    536872716
        0x080017e8:    d0d3bbc3    ....    DCD    3503537091
        0x080017ec:    e1bdd3d7    ....    DCD    3787314135
        0x080017f0:    0d2ee3b5    ....    DCD    221176757
        0x080017f4:    0000000a    ....    DCD    10
    $t
    i.GetFontBitMap
    GetFontBitMap
        0x080017f8:    b570        p.      PUSH     {r4-r6,lr}
        0x080017fa:    4604        .F      MOV      r4,r0
        0x080017fc:    460d        .F      MOV      r5,r1
        0x080017fe:    4803        .H      LDR      r0,[pc,#12] ; [0x800180c] = 0x20000144
        0x08001800:    6800        .h      LDR      r0,[r0,#0]
        0x08001802:    4629        )F      MOV      r1,r5
        0x08001804:    6902        .i      LDR      r2,[r0,#0x10]
        0x08001806:    4620         F      MOV      r0,r4
        0x08001808:    4790        .G      BLX      r2
        0x0800180a:    bd70        p.      POP      {r4-r6,pc}
    $d
        0x0800180c:    20000144    D..     DCD    536871236
    $t
    i.GetFontLib
    GetFontLib
        0x08001810:    b510        ..      PUSH     {r4,lr}
        0x08001812:    4604        .F      MOV      r4,r0
        0x08001814:    4620         F      MOV      r0,r4
        0x08001816:    f002f811    ....    BL       __GetFontLib ; 0x800383c
        0x0800181a:    bd10        ..      POP      {r4,pc}
    i.GetGame
    GetGame
        0x0800181c:    b510        ..      PUSH     {r4,lr}
        0x0800181e:    f002f825    ..%.    BL       __GetGame ; 0x800386c
        0x08001822:    bd10        ..      POP      {r4,pc}
    i.GetGraphPixelColorFromFrameBuffer
    GetGraphPixelColorFromFrameBuffer
        0x08001824:    b5f0        ..      PUSH     {r4-r7,lr}
        0x08001826:    4603        .F      MOV      r3,r0
        0x08001828:    460c        .F      MOV      r4,r1
        0x0800182a:    e9d30706    ....    LDRD     r0,r7,[r3,#0x18]
        0x0800182e:    19c5        ..      ADDS     r5,r0,r7
        0x08001830:    6818        .h      LDR      r0,[r3,#0]
        0x08001832:    1a26        &.      SUBS     r6,r4,r0
        0x08001834:    6858        Xh      LDR      r0,[r3,#4]
        0x08001836:    1a11        ..      SUBS     r1,r2,r0
        0x08001838:    4608        .F      MOV      r0,r1
        0x0800183a:    17cf        ..      ASRS     r7,r1,#31
        0x0800183c:    eb017757    ..Ww    ADD      r7,r1,r7,LSR #29
        0x08001840:    10ff        ..      ASRS     r7,r7,#3
        0x08001842:    f8d3c008    ....    LDR      r12,[r3,#8]
        0x08001846:    fb07670c    ...g    MLA      r7,r7,r12,r6
        0x0800184a:    443d        =D      ADD      r5,r5,r7
        0x0800184c:    17cf        ..      ASRS     r7,r1,#31
        0x0800184e:    eb017757    ..Ww    ADD      r7,r1,r7,LSR #29
        0x08001852:    10ff        ..      ASRS     r7,r7,#3
        0x08001854:    eba101c7    ....    SUB      r1,r1,r7,LSL #3
        0x08001858:    7828        (x      LDRB     r0,[r5,#0]
        0x0800185a:    2701        .'      MOVS     r7,#1
        0x0800185c:    408f        .@      LSLS     r7,r7,r1
        0x0800185e:    4038        8@      ANDS     r0,r0,r7
        0x08001860:    b108        ..      CBZ      r0,0x8001866 ; GetGraphPixelColorFromFrameBuffer + 66
        0x08001862:    2001        .       MOVS     r0,#1
        0x08001864:    bdf0        ..      POP      {r4-r7,pc}
        0x08001866:    2000        .       MOVS     r0,#0
        0x08001868:    e7fc        ..      B        0x8001864 ; GetGraphPixelColorFromFrameBuffer + 64
    i.GetI2CDevice
    GetI2CDevice
        0x0800186a:    b510        ..      PUSH     {r4,lr}
        0x0800186c:    4604        .F      MOV      r4,r0
        0x0800186e:    4620         F      MOV      r0,r4
        0x08001870:    f002f82c    ..,.    BL       __GetI2CDevice ; 0x80038cc
        0x08001874:    bd10        ..      POP      {r4,pc}
        0x08001876:    0000        ..      MOVS     r0,r0
    i.GetInputBuffer
    GetInputBuffer
        0x08001878:    b510        ..      PUSH     {r4,lr}
        0x0800187a:    4604        .F      MOV      r4,r0
        0x0800187c:    b914        ..      CBNZ     r4,0x8001884 ; GetInputBuffer + 12
        0x0800187e:    f04f30ff    O..0    MOV      r0,#0xffffffff
        0x08001882:    bd10        ..      POP      {r4,pc}
        0x08001884:    4813        .H      LDR      r0,[pc,#76] ; [0x80018d4] = 0x20001474
        0x08001886:    f8d001bc    ....    LDR      r0,[r0,#0x1bc]
        0x0800188a:    4912        .I      LDR      r1,[pc,#72] ; [0x80018d4] = 0x20001474
        0x0800188c:    f8d111b8    ....    LDR      r1,[r1,#0x1b8]
        0x08001890:    4288        .B      CMP      r0,r1
        0x08001892:    d102        ..      BNE      0x800189a ; GetInputBuffer + 34
        0x08001894:    f04f30ff    O..0    MOV      r0,#0xffffffff
        0x08001898:    e7f3        ..      B        0x8001882 ; GetInputBuffer + 10
        0x0800189a:    480e        .H      LDR      r0,[pc,#56] ; [0x80018d4] = 0x20001474
        0x0800189c:    f8d001bc    ....    LDR      r0,[r0,#0x1bc]
        0x080018a0:    eb000240    ..@.    ADD      r2,r0,r0,LSL #1
        0x080018a4:    eb0200c0    ....    ADD      r0,r2,r0,LSL #3
        0x080018a8:    4a0a        .J      LDR      r2,[pc,#40] ; [0x80018d4] = 0x20001474
        0x080018aa:    eb020180    ....    ADD      r1,r2,r0,LSL #2
        0x080018ae:    222c        ,"      MOVS     r2,#0x2c
        0x080018b0:    4620         F      MOV      r0,r4
        0x080018b2:    f7fefc99    ....    BL       __aeabi_memcpy ; 0x80001e8
        0x080018b6:    4807        .H      LDR      r0,[pc,#28] ; [0x80018d4] = 0x20001474
        0x080018b8:    f8d001bc    ....    LDR      r0,[r0,#0x1bc]
        0x080018bc:    1c40        @.      ADDS     r0,r0,#1
        0x080018be:    210a        .!      MOVS     r1,#0xa
        0x080018c0:    fbb0f2f1    ....    UDIV     r2,r0,r1
        0x080018c4:    fb010012    ....    MLS      r0,r1,r2,r0
        0x080018c8:    4902        .I      LDR      r1,[pc,#8] ; [0x80018d4] = 0x20001474
        0x080018ca:    f8c101bc    ....    STR      r0,[r1,#0x1bc]
        0x080018ce:    2000        .       MOVS     r0,#0
        0x080018d0:    e7d7        ..      B        0x8001882 ; GetInputBuffer + 10
    $d
        0x080018d2:    0000        ..      DCW    0
        0x080018d4:    20001474    t..     DCD    536876148
    $t
    i.GetLedDevice
    GetLedDevice
        0x080018d8:    b510        ..      PUSH     {r4,lr}
        0x080018da:    4604        .F      MOV      r4,r0
        0x080018dc:    4620         F      MOV      r0,r4
        0x080018de:    f002f80d    ....    BL       __GetLedDevice ; 0x80038fc
        0x080018e2:    bd10        ..      POP      {r4,pc}
    i.GetNextOption
    GetNextOption
        0x080018e4:    b570        p.      PUSH     {r4-r6,lr}
        0x080018e6:    4605        .F      MOV      r5,r0
        0x080018e8:    1d28        (.      ADDS     r0,r5,#4
        0x080018ea:    f000f857    ..W.    BL       GetNodeRightSibling ; 0x800199c
        0x080018ee:    4604        .F      MOV      r4,r0
        0x080018f0:    480b        .H      LDR      r0,[pc,#44] ; [0x8001920] = 0x2000070c
        0x080018f2:    6800        .h      LDR      r0,[r0,#0]
        0x080018f4:    7c00        .|      LDRB     r0,[r0,#0x10]
        0x080018f6:    2801        .(      CMP      r0,#1
        0x080018f8:    d106        ..      BNE      0x8001908 ; GetNextOption + 36
        0x080018fa:    a00a        ..      ADR      r0,{pc}+0x2a ; 0x8001924
        0x080018fc:    f001ff26    ..&.    BL       __0printf$3 ; 0x800374c
        0x08001900:    2000        .       MOVS     r0,#0
        0x08001902:    4907        .I      LDR      r1,[pc,#28] ; [0x8001920] = 0x2000070c
        0x08001904:    6809        .h      LDR      r1,[r1,#0]
        0x08001906:    7408        .t      STRB     r0,[r1,#0x10]
        0x08001908:    b134        4.      CBZ      r4,0x8001918 ; GetNextOption + 52
        0x0800190a:    a00d        ..      ADR      r0,{pc}+0x36 ; 0x8001940
        0x0800190c:    f001ff1e    ....    BL       __0printf$3 ; 0x800374c
        0x08001910:    1f20         .      SUBS     r0,r4,#4
        0x08001912:    4903        .I      LDR      r1,[pc,#12] ; [0x8001920] = 0x2000070c
        0x08001914:    6008        .`      STR      r0,[r1,#0]
        0x08001916:    e002        ..      B        0x800191e ; GetNextOption + 58
        0x08001918:    a00e        ..      ADR      r0,{pc}+0x3c ; 0x8001954
        0x0800191a:    f001ff17    ....    BL       __0printf$3 ; 0x800374c
        0x0800191e:    bd70        p.      POP      {r4-r6,pc}
    $d
        0x08001920:    2000070c    ...     DCD    536872716
        0x08001924:    bbbbd0c7    ....    DCD    3149648071
        0x08001928:    504fbdb5    ..OP    DCD    1347403189
        0x0800192c:    4e4f4954    TION    DCD    1313818964
        0x08001930:    4f48435f    _CHO    DCD    1330135903
        0x08001934:    d745534f    OSE.    DCD    3611644751
        0x08001938:    2eacccb4    ....    DCD    783076532
        0x0800193c:    00000a0d    ....    DCD    2573
        0x08001940:    bbbbd0c7    ....    DCD    3149648071
        0x08001944:    d6d0bdb5    ....    DCD    3604004277
        0x08001948:    e1bddcb5    ....    DCD    3787316405
        0x0800194c:    0d2ee3b5    ....    DCD    221176757
        0x08001950:    0000000a    ....    DCD    10
        0x08001954:    d0d3bbc3    ....    DCD    3503537091
        0x08001958:    dcb5d6d0    ....    DCD    3702904528
        0x0800195c:    e3b5e1bd    ....    DCD    3820347837
        0x08001960:    000a0d2e    ....    DCD    658734
    $t
    i.GetNodeFirstChild
    GetNodeFirstChild
        0x08001964:    4601        .F      MOV      r1,r0
        0x08001966:    6848        Hh      LDR      r0,[r1,#4]
        0x08001968:    1c40        @.      ADDS     r0,r0,#1
        0x0800196a:    b908        ..      CBNZ     r0,0x8001970 ; GetNodeFirstChild + 12
        0x0800196c:    2000        .       MOVS     r0,#0
        0x0800196e:    4770        pG      BX       lr
        0x08001970:    4802        .H      LDR      r0,[pc,#8] ; [0x800197c] = 0x20002724
        0x08001972:    684a        Jh      LDR      r2,[r1,#4]
        0x08001974:    f8500022    P.".    LDR      r0,[r0,r2,LSL #2]
        0x08001978:    e7f9        ..      B        0x800196e ; GetNodeFirstChild + 10
    $d
        0x0800197a:    0000        ..      DCW    0
        0x0800197c:    20002724    $'.     DCD    536880932
    $t
    i.GetNodeParent
    GetNodeParent
        0x08001980:    4601        .F      MOV      r1,r0
        0x08001982:    6808        .h      LDR      r0,[r1,#0]
        0x08001984:    1c40        @.      ADDS     r0,r0,#1
        0x08001986:    b908        ..      CBNZ     r0,0x800198c ; GetNodeParent + 12
        0x08001988:    2000        .       MOVS     r0,#0
        0x0800198a:    4770        pG      BX       lr
        0x0800198c:    4802        .H      LDR      r0,[pc,#8] ; [0x8001998] = 0x20002724
        0x0800198e:    680a        .h      LDR      r2,[r1,#0]
        0x08001990:    f8500022    P.".    LDR      r0,[r0,r2,LSL #2]
        0x08001994:    e7f9        ..      B        0x800198a ; GetNodeParent + 10
    $d
        0x08001996:    0000        ..      DCW    0
        0x08001998:    20002724    $'.     DCD    536880932
    $t
    i.GetNodeRightSibling
    GetNodeRightSibling
        0x0800199c:    4601        .F      MOV      r1,r0
        0x0800199e:    6888        .h      LDR      r0,[r1,#8]
        0x080019a0:    1c40        @.      ADDS     r0,r0,#1
        0x080019a2:    b908        ..      CBNZ     r0,0x80019a8 ; GetNodeRightSibling + 12
        0x080019a4:    2000        .       MOVS     r0,#0
        0x080019a6:    4770        pG      BX       lr
        0x080019a8:    4802        .H      LDR      r0,[pc,#8] ; [0x80019b4] = 0x20002724
        0x080019aa:    688a        .h      LDR      r2,[r1,#8]
        0x080019ac:    f8500022    P.".    LDR      r0,[r0,r2,LSL #2]
        0x080019b0:    e7f9        ..      B        0x80019a6 ; GetNodeRightSibling + 10
    $d
        0x080019b2:    0000        ..      DCW    0
        0x080019b4:    20002724    $'.     DCD    536880932
    $t
    i.GetPixelColorFromFrameBuffer
    GetPixelColorFromFrameBuffer
        0x080019b8:    b5f0        ..      PUSH     {r4-r7,lr}
        0x080019ba:    4603        .F      MOV      r3,r0
        0x080019bc:    460c        .F      MOV      r4,r1
        0x080019be:    4615        .F      MOV      r5,r2
        0x080019c0:    6a1a        .j      LDR      r2,[r3,#0x20]
        0x080019c2:    6818        .h      LDR      r0,[r3,#0]
        0x080019c4:    1a26        &.      SUBS     r6,r4,r0
        0x080019c6:    6858        Xh      LDR      r0,[r3,#4]
        0x080019c8:    1a29        ).      SUBS     r1,r5,r0
        0x080019ca:    2908        .)      CMP      r1,#8
        0x080019cc:    da01        ..      BGE      0x80019d2 ; GetPixelColorFromFrameBuffer + 26
        0x080019ce:    4432        2D      ADD      r2,r2,r6
        0x080019d0:    e002        ..      B        0x80019d8 ; GetPixelColorFromFrameBuffer + 32
        0x080019d2:    f1060008    ....    ADD      r0,r6,#8
        0x080019d6:    4402        .D      ADD      r2,r2,r0
        0x080019d8:    2908        .)      CMP      r1,#8
        0x080019da:    db00        ..      BLT      0x80019de ; GetPixelColorFromFrameBuffer + 38
        0x080019dc:    3908        .9      SUBS     r1,r1,#8
        0x080019de:    7817        .x      LDRB     r7,[r2,#0]
        0x080019e0:    2001        .       MOVS     r0,#1
        0x080019e2:    4088        .@      LSLS     r0,r0,r1
        0x080019e4:    4007        .@      ANDS     r7,r7,r0
        0x080019e6:    b10f        ..      CBZ      r7,0x80019ec ; GetPixelColorFromFrameBuffer + 52
        0x080019e8:    2001        .       MOVS     r0,#1
        0x080019ea:    bdf0        ..      POP      {r4-r7,pc}
        0x080019ec:    2000        .       MOVS     r0,#0
        0x080019ee:    e7fc        ..      B        0x80019ea ; GetPixelColorFromFrameBuffer + 50
    i.HardFault_Handler
    HardFault_Handler
        0x080019f0:    bf00        ..      NOP      
        0x080019f2:    e7fe        ..      B        0x80019f2 ; HardFault_Handler + 2
    i.HomeChooseFUN
    HomeChooseFUN
        0x080019f4:    b510        ..      PUSH     {r4,lr}
        0x080019f6:    4604        .F      MOV      r4,r0
        0x080019f8:    4b1c        .K      LDR      r3,[pc,#112] ; [0x8001a6c] = 0x20000454
        0x080019fa:    2218        ."      MOVS     r2,#0x18
        0x080019fc:    2100        .!      MOVS     r1,#0
        0x080019fe:    481c        .H      LDR      r0,[pc,#112] ; [0x8001a70] = 0x20000790
        0x08001a00:    6800        .h      LDR      r0,[r0,#0]
        0x08001a02:    f001fb67    ..g.    BL       ShowGraphInDisplayDev ; 0x80030d4
        0x08001a06:    4b1b        .K      LDR      r3,[pc,#108] ; [0x8001a74] = 0x20000474
        0x08001a08:    2210        ."      MOVS     r2,#0x10
        0x08001a0a:    2114        .!      MOVS     r1,#0x14
        0x08001a0c:    4818        .H      LDR      r0,[pc,#96] ; [0x8001a70] = 0x20000790
        0x08001a0e:    6800        .h      LDR      r0,[r0,#0]
        0x08001a10:    f001fb60    ..`.    BL       ShowGraphInDisplayDev ; 0x80030d4
        0x08001a14:    4b18        .K      LDR      r3,[pc,#96] ; [0x8001a78] = 0x20000494
        0x08001a16:    2210        ."      MOVS     r2,#0x10
        0x08001a18:    2170        p!      MOVS     r1,#0x70
        0x08001a1a:    4815        .H      LDR      r0,[pc,#84] ; [0x8001a70] = 0x20000790
        0x08001a1c:    6800        .h      LDR      r0,[r0,#0]
        0x08001a1e:    f001fb59    ..Y.    BL       ShowGraphInDisplayDev ; 0x80030d4
        0x08001a22:    4b16        .K      LDR      r3,[pc,#88] ; [0x8001a7c] = 0x200004b4
        0x08001a24:    2230        0"      MOVS     r2,#0x30
        0x08001a26:    210c        .!      MOVS     r1,#0xc
        0x08001a28:    4811        .H      LDR      r0,[pc,#68] ; [0x8001a70] = 0x20000790
        0x08001a2a:    6800        .h      LDR      r0,[r0,#0]
        0x08001a2c:    f001fb52    ..R.    BL       ShowGraphInDisplayDev ; 0x80030d4
        0x08001a30:    4b13        .K      LDR      r3,[pc,#76] ; [0x8001a80] = 0x200004d4
        0x08001a32:    2230        0"      MOVS     r2,#0x30
        0x08001a34:    2164        d!      MOVS     r1,#0x64
        0x08001a36:    480e        .H      LDR      r0,[pc,#56] ; [0x8001a70] = 0x20000790
        0x08001a38:    6800        .h      LDR      r0,[r0,#0]
        0x08001a3a:    f001fb4b    ..K.    BL       ShowGraphInDisplayDev ; 0x80030d4
        0x08001a3e:    4b11        .K      LDR      r3,[pc,#68] ; [0x8001a84] = 0x200004f4
        0x08001a40:    2240        @"      MOVS     r2,#0x40
        0x08001a42:    2128        (!      MOVS     r1,#0x28
        0x08001a44:    480a        .H      LDR      r0,[pc,#40] ; [0x8001a70] = 0x20000790
        0x08001a46:    6800        .h      LDR      r0,[r0,#0]
        0x08001a48:    f001fb44    ..D.    BL       ShowGraphInDisplayDev ; 0x80030d4
        0x08001a4c:    4b0e        .K      LDR      r3,[pc,#56] ; [0x8001a88] = 0x20000514
        0x08001a4e:    2240        @"      MOVS     r2,#0x40
        0x08001a50:    2104        .!      MOVS     r1,#4
        0x08001a52:    4807        .H      LDR      r0,[pc,#28] ; [0x8001a70] = 0x20000790
        0x08001a54:    6800        .h      LDR      r0,[r0,#0]
        0x08001a56:    f001fb3d    ..=.    BL       ShowGraphInDisplayDev ; 0x80030d4
        0x08001a5a:    4b0c        .K      LDR      r3,[pc,#48] ; [0x8001a8c] = 0x20000534
        0x08001a5c:    2240        @"      MOVS     r2,#0x40
        0x08001a5e:    216c        l!      MOVS     r1,#0x6c
        0x08001a60:    4803        .H      LDR      r0,[pc,#12] ; [0x8001a70] = 0x20000790
        0x08001a62:    6800        .h      LDR      r0,[r0,#0]
        0x08001a64:    f001fb36    ..6.    BL       ShowGraphInDisplayDev ; 0x80030d4
        0x08001a68:    bd10        ..      POP      {r4,pc}
    $d
        0x08001a6a:    0000        ..      DCW    0
        0x08001a6c:    20000454    T..     DCD    536872020
        0x08001a70:    20000790    ...     DCD    536872848
        0x08001a74:    20000474    t..     DCD    536872052
        0x08001a78:    20000494    ...     DCD    536872084
        0x08001a7c:    200004b4    ...     DCD    536872116
        0x08001a80:    200004d4    ...     DCD    536872148
        0x08001a84:    200004f4    ...     DCD    536872180
        0x08001a88:    20000514    ...     DCD    536872212
        0x08001a8c:    20000534    4..     DCD    536872244
    $t
    i.HomeEnterFUN
    HomeEnterFUN
        0x08001a90:    b510        ..      PUSH     {r4,lr}
        0x08001a92:    4604        .F      MOV      r4,r0
        0x08001a94:    a001        ..      ADR      r0,{pc}+8 ; 0x8001a9c
        0x08001a96:    f001fe59    ..Y.    BL       __0printf$3 ; 0x800374c
        0x08001a9a:    bd10        ..      POP      {r4,pc}
    $d
        0x08001a9c:    b6d4c0d3    ....    DCD    3067396307
        0x08001aa0:    e1bbbbb2    ....    DCD    3787176882
        0x08001aa4:    efb4bdb5    ....    DCD    4021599669
        0x08001aa8:    d4f1b72e    ....    DCD    3572610862
        0x08001aac:    ceedb4f2    ....    DCD    3471684850
        0x08001ab0:    0a0d2ef3    ....    DCD    168636147
        0x08001ab4:    00000000    ....    DCD    0
    $t
    i.I2CDeviceDMACfg
    I2CDeviceDMACfg
        0x08001ab8:    b510        ..      PUSH     {r4,lr}
        0x08001aba:    4604        .F      MOV      r4,r0
        0x08001abc:    4620         F      MOV      r0,r4
        0x08001abe:    f000f9af    ....    BL       KAL_I2CDMACfg ; 0x8001e20
        0x08001ac2:    bd10        ..      POP      {r4,pc}
    i.I2CDeviceDMAEnable
    I2CDeviceDMAEnable
        0x08001ac4:    b510        ..      PUSH     {r4,lr}
        0x08001ac6:    4604        .F      MOV      r4,r0
        0x08001ac8:    4620         F      MOV      r0,r4
        0x08001aca:    f000f9af    ....    BL       KAL_I2CDMAEnable ; 0x8001e2c
        0x08001ace:    bd10        ..      POP      {r4,pc}
    i.I2CDeviceInit
    I2CDeviceInit
        0x08001ad0:    b510        ..      PUSH     {r4,lr}
        0x08001ad2:    4604        .F      MOV      r4,r0
        0x08001ad4:    4620         F      MOV      r0,r4
        0x08001ad6:    f000f989    ....    BL       KAL_GPIOI2CDevInit ; 0x8001dec
        0x08001ada:    bd10        ..      POP      {r4,pc}
    i.I2CDeviceRegister
    I2CDeviceRegister
        0x08001adc:    b570        p.      PUSH     {r4-r6,lr}
        0x08001ade:    4604        .F      MOV      r4,r0
        0x08001ae0:    460d        .F      MOV      r5,r1
        0x08001ae2:    4620         F      MOV      r0,r4
        0x08001ae4:    6921        !i      LDR      r1,[r4,#0x10]
        0x08001ae6:    4788        .G      BLX      r1
        0x08001ae8:    6025        %`      STR      r5,[r4,#0]
        0x08001aea:    4805        .H      LDR      r0,[pc,#20] ; [0x8001b00] = 0x20001634
        0x08001aec:    6801        .h      LDR      r1,[r0,#0]
        0x08001aee:    6800        .h      LDR      r0,[r0,#0]
        0x08001af0:    1c40        @.      ADDS     r0,r0,#1
        0x08001af2:    4a03        .J      LDR      r2,[pc,#12] ; [0x8001b00] = 0x20001634
        0x08001af4:    6010        .`      STR      r0,[r2,#0]
        0x08001af6:    1d10        ..      ADDS     r0,r2,#4
        0x08001af8:    f8404021    @.!@    STR      r4,[r0,r1,LSL #2]
        0x08001afc:    bd70        p.      POP      {r4-r6,pc}
    $d
        0x08001afe:    0000        ..      DCW    0
        0x08001b00:    20001634    4..     DCD    536876596
    $t
    i.I2C_CheckEvent
    I2C_CheckEvent
        0x08001b04:    b570        p.      PUSH     {r4-r6,lr}
        0x08001b06:    4602        .F      MOV      r2,r0
        0x08001b08:    2400        .$      MOVS     r4,#0
        0x08001b0a:    2500        .%      MOVS     r5,#0
        0x08001b0c:    2300        .#      MOVS     r3,#0
        0x08001b0e:    2000        .       MOVS     r0,#0
        0x08001b10:    8a95        ..      LDRH     r5,[r2,#0x14]
        0x08001b12:    8b13        ..      LDRH     r3,[r2,#0x18]
        0x08001b14:    041b        ..      LSLS     r3,r3,#16
        0x08001b16:    ea450603    E...    ORR      r6,r5,r3
        0x08001b1a:    f026447f    &..D    BIC      r4,r6,#0xff000000
        0x08001b1e:    ea040601    ....    AND      r6,r4,r1
        0x08001b22:    428e        .B      CMP      r6,r1
        0x08001b24:    d101        ..      BNE      0x8001b2a ; I2C_CheckEvent + 38
        0x08001b26:    2001        .       MOVS     r0,#1
        0x08001b28:    e000        ..      B        0x8001b2c ; I2C_CheckEvent + 40
        0x08001b2a:    2000        .       MOVS     r0,#0
        0x08001b2c:    bd70        p.      POP      {r4-r6,pc}
    i.I2C_Cmd
    I2C_Cmd
        0x08001b2e:    b121        !.      CBZ      r1,0x8001b3a ; I2C_Cmd + 12
        0x08001b30:    8802        ..      LDRH     r2,[r0,#0]
        0x08001b32:    f0420201    B...    ORR      r2,r2,#1
        0x08001b36:    8002        ..      STRH     r2,[r0,#0]
        0x08001b38:    e004        ..      B        0x8001b44 ; I2C_Cmd + 22
        0x08001b3a:    8802        ..      LDRH     r2,[r0,#0]
        0x08001b3c:    f64f73fe    O..s    MOV      r3,#0xfffe
        0x08001b40:    401a        .@      ANDS     r2,r2,r3
        0x08001b42:    8002        ..      STRH     r2,[r0,#0]
        0x08001b44:    4770        pG      BX       lr
    i.I2C_DMACmd
    I2C_DMACmd
        0x08001b46:    b121        !.      CBZ      r1,0x8001b52 ; I2C_DMACmd + 12
        0x08001b48:    8882        ..      LDRH     r2,[r0,#4]
        0x08001b4a:    f4426200    B..b    ORR      r2,r2,#0x800
        0x08001b4e:    8082        ..      STRH     r2,[r0,#4]
        0x08001b50:    e004        ..      B        0x8001b5c ; I2C_DMACmd + 22
        0x08001b52:    8882        ..      LDRH     r2,[r0,#4]
        0x08001b54:    f24f73ff    O..s    MOV      r3,#0xf7ff
        0x08001b58:    401a        .@      ANDS     r2,r2,r3
        0x08001b5a:    8082        ..      STRH     r2,[r0,#4]
        0x08001b5c:    4770        pG      BX       lr
    i.I2C_GenerateSTART
    I2C_GenerateSTART
        0x08001b5e:    b121        !.      CBZ      r1,0x8001b6a ; I2C_GenerateSTART + 12
        0x08001b60:    8802        ..      LDRH     r2,[r0,#0]
        0x08001b62:    f4427280    B..r    ORR      r2,r2,#0x100
        0x08001b66:    8002        ..      STRH     r2,[r0,#0]
        0x08001b68:    e004        ..      B        0x8001b74 ; I2C_GenerateSTART + 22
        0x08001b6a:    8802        ..      LDRH     r2,[r0,#0]
        0x08001b6c:    f64f63ff    O..c    MOV      r3,#0xfeff
        0x08001b70:    401a        .@      ANDS     r2,r2,r3
        0x08001b72:    8002        ..      STRH     r2,[r0,#0]
        0x08001b74:    4770        pG      BX       lr
    i.I2C_GenerateSTOP
    I2C_GenerateSTOP
        0x08001b76:    b121        !.      CBZ      r1,0x8001b82 ; I2C_GenerateSTOP + 12
        0x08001b78:    8802        ..      LDRH     r2,[r0,#0]
        0x08001b7a:    f4427200    B..r    ORR      r2,r2,#0x200
        0x08001b7e:    8002        ..      STRH     r2,[r0,#0]
        0x08001b80:    e004        ..      B        0x8001b8c ; I2C_GenerateSTOP + 22
        0x08001b82:    8802        ..      LDRH     r2,[r0,#0]
        0x08001b84:    f64f53ff    O..S    MOV      r3,#0xfdff
        0x08001b88:    401a        .@      ANDS     r2,r2,r3
        0x08001b8a:    8002        ..      STRH     r2,[r0,#0]
        0x08001b8c:    4770        pG      BX       lr
    i.I2C_GetFlagStatus
    I2C_GetFlagStatus
        0x08001b8e:    b50c        ..      PUSH     {r2,r3,lr}
        0x08001b90:    4602        .F      MOV      r2,r0
        0x08001b92:    2000        .       MOVS     r0,#0
        0x08001b94:    2300        .#      MOVS     r3,#0
        0x08001b96:    9301        ..      STR      r3,[sp,#4]
        0x08001b98:    9300        ..      STR      r3,[sp,#0]
        0x08001b9a:    9200        ..      STR      r2,[sp,#0]
        0x08001b9c:    0f0b        ..      LSRS     r3,r1,#28
        0x08001b9e:    9301        ..      STR      r3,[sp,#4]
        0x08001ba0:    f021417f    !..A    BIC      r1,r1,#0xff000000
        0x08001ba4:    9b01        ..      LDR      r3,[sp,#4]
        0x08001ba6:    b11b        ..      CBZ      r3,0x8001bb0 ; I2C_GetFlagStatus + 34
        0x08001ba8:    9b00        ..      LDR      r3,[sp,#0]
        0x08001baa:    3314        .3      ADDS     r3,r3,#0x14
        0x08001bac:    9300        ..      STR      r3,[sp,#0]
        0x08001bae:    e003        ..      B        0x8001bb8 ; I2C_GetFlagStatus + 42
        0x08001bb0:    0c09        ..      LSRS     r1,r1,#16
        0x08001bb2:    9b00        ..      LDR      r3,[sp,#0]
        0x08001bb4:    3318        .3      ADDS     r3,r3,#0x18
        0x08001bb6:    9300        ..      STR      r3,[sp,#0]
        0x08001bb8:    9b00        ..      LDR      r3,[sp,#0]
        0x08001bba:    681b        .h      LDR      r3,[r3,#0]
        0x08001bbc:    400b        .@      ANDS     r3,r3,r1
        0x08001bbe:    b10b        ..      CBZ      r3,0x8001bc4 ; I2C_GetFlagStatus + 54
        0x08001bc0:    2001        .       MOVS     r0,#1
        0x08001bc2:    e000        ..      B        0x8001bc6 ; I2C_GetFlagStatus + 56
        0x08001bc4:    2000        .       MOVS     r0,#0
        0x08001bc6:    bd0c        ..      POP      {r2,r3,pc}
    i.I2C_Init
    I2C_Init
        0x08001bc8:    e92d43f0    -..C    PUSH     {r4-r9,lr}
        0x08001bcc:    b085        ..      SUB      sp,sp,#0x14
        0x08001bce:    4604        .F      MOV      r4,r0
        0x08001bd0:    460d        .F      MOV      r5,r1
        0x08001bd2:    2600        .&      MOVS     r6,#0
        0x08001bd4:    46b1        .F      MOV      r9,r6
        0x08001bd6:    2704        .'      MOVS     r7,#4
        0x08001bd8:    f8df80cc    ....    LDR      r8,[pc,#204] ; [0x8001ca8] = 0x7a1200
        0x08001bdc:    88a6        ..      LDRH     r6,[r4,#4]
        0x08001bde:    f64f70c0    O..p    MOV      r0,#0xffc0
        0x08001be2:    4006        .@      ANDS     r6,r6,r0
        0x08001be4:    4668        hF      MOV      r0,sp
        0x08001be6:    f000ff49    ..I.    BL       RCC_GetClocksFreq ; 0x8002a7c
        0x08001bea:    f8dd8008    ....    LDR      r8,[sp,#8]
        0x08001bee:    482f        /H      LDR      r0,[pc,#188] ; [0x8001cac] = 0xf4240
        0x08001bf0:    fbb8f0f0    ....    UDIV     r0,r8,r0
        0x08001bf4:    fa1ff980    ....    UXTH     r9,r0
        0x08001bf8:    ea460609    F...    ORR      r6,r6,r9
        0x08001bfc:    80a6        ..      STRH     r6,[r4,#4]
        0x08001bfe:    8820         .      LDRH     r0,[r4,#0]
        0x08001c00:    f64f71fe    O..q    MOV      r1,#0xfffe
        0x08001c04:    4008        .@      ANDS     r0,r0,r1
        0x08001c06:    8020         .      STRH     r0,[r4,#0]
        0x08001c08:    2600        .&      MOVS     r6,#0
        0x08001c0a:    4929        )I      LDR      r1,[pc,#164] ; [0x8001cb0] = 0x186a0
        0x08001c0c:    6828        (h      LDR      r0,[r5,#0]
        0x08001c0e:    4288        .B      CMP      r0,r1
        0x08001c10:    d80c        ..      BHI      0x8001c2c ; I2C_Init + 100
        0x08001c12:    6828        (h      LDR      r0,[r5,#0]
        0x08001c14:    0040        @.      LSLS     r0,r0,#1
        0x08001c16:    fbb8f0f0    ....    UDIV     r0,r8,r0
        0x08001c1a:    b287        ..      UXTH     r7,r0
        0x08001c1c:    2f04        ./      CMP      r7,#4
        0x08001c1e:    da00        ..      BGE      0x8001c22 ; I2C_Init + 90
        0x08001c20:    2704        .'      MOVS     r7,#4
        0x08001c22:    433e        >C      ORRS     r6,r6,r7
        0x08001c24:    f1090001    ....    ADD      r0,r9,#1
        0x08001c28:    8420         .      STRH     r0,[r4,#0x20]
        0x08001c2a:    e027        '.      B        0x8001c7c ; I2C_Init + 180
        0x08001c2c:    88e8        ..      LDRH     r0,[r5,#6]
        0x08001c2e:    f64b71ff    K..q    MOV      r1,#0xbfff
        0x08001c32:    4288        .B      CMP      r0,r1
        0x08001c34:    d106        ..      BNE      0x8001c44 ; I2C_Init + 124
        0x08001c36:    6828        (h      LDR      r0,[r5,#0]
        0x08001c38:    eb000040    ..@.    ADD      r0,r0,r0,LSL #1
        0x08001c3c:    fbb8f0f0    ....    UDIV     r0,r8,r0
        0x08001c40:    b287        ..      UXTH     r7,r0
        0x08001c42:    e009        ..      B        0x8001c58 ; I2C_Init + 144
        0x08001c44:    6828        (h      LDR      r0,[r5,#0]
        0x08001c46:    eb0001c0    ....    ADD      r1,r0,r0,LSL #3
        0x08001c4a:    eb011000    ....    ADD      r0,r1,r0,LSL #4
        0x08001c4e:    fbb8f0f0    ....    UDIV     r0,r8,r0
        0x08001c52:    b287        ..      UXTH     r7,r0
        0x08001c54:    f4474780    G..G    ORR      r7,r7,#0x4000
        0x08001c58:    f3c7000b    ....    UBFX     r0,r7,#0,#12
        0x08001c5c:    b908        ..      CBNZ     r0,0x8001c62 ; I2C_Init + 154
        0x08001c5e:    f0470701    G...    ORR      r7,r7,#1
        0x08001c62:    f4474000    G..@    ORR      r0,r7,#0x8000
        0x08001c66:    4306        .C      ORRS     r6,r6,r0
        0x08001c68:    f44f7096    O..p    MOV      r0,#0x12c
        0x08001c6c:    fb09f000    ....    MUL      r0,r9,r0
        0x08001c70:    f44f717a    O.zq    MOV      r1,#0x3e8
        0x08001c74:    fb90f0f1    ....    SDIV     r0,r0,r1
        0x08001c78:    1c40        @.      ADDS     r0,r0,#1
        0x08001c7a:    8420         .      STRH     r0,[r4,#0x20]
        0x08001c7c:    83a6        ..      STRH     r6,[r4,#0x1c]
        0x08001c7e:    8820         .      LDRH     r0,[r4,#0]
        0x08001c80:    f0400001    @...    ORR      r0,r0,#1
        0x08001c84:    8020         .      STRH     r0,[r4,#0]
        0x08001c86:    8826        &.      LDRH     r6,[r4,#0]
        0x08001c88:    f64f30f5    O..0    MOV      r0,#0xfbf5
        0x08001c8c:    4006        .@      ANDS     r6,r6,r0
        0x08001c8e:    88a8        ..      LDRH     r0,[r5,#4]
        0x08001c90:    8969        i.      LDRH     r1,[r5,#0xa]
        0x08001c92:    4308        .C      ORRS     r0,r0,r1
        0x08001c94:    4306        .C      ORRS     r6,r6,r0
        0x08001c96:    8026        &.      STRH     r6,[r4,#0]
        0x08001c98:    89a8        ..      LDRH     r0,[r5,#0xc]
        0x08001c9a:    8929        ).      LDRH     r1,[r5,#8]
        0x08001c9c:    4308        .C      ORRS     r0,r0,r1
        0x08001c9e:    8120         .      STRH     r0,[r4,#8]
        0x08001ca0:    b005        ..      ADD      sp,sp,#0x14
        0x08001ca2:    e8bd83f0    ....    POP      {r4-r9,pc}
    $d
        0x08001ca6:    0000        ..      DCW    0
        0x08001ca8:    007a1200    ..z.    DCD    8000000
        0x08001cac:    000f4240    @B..    DCD    1000000
        0x08001cb0:    000186a0    ....    DCD    100000
    $t
    i.I2C_Send7bitAddress
    I2C_Send7bitAddress
        0x08001cb4:    b112        ..      CBZ      r2,0x8001cbc ; I2C_Send7bitAddress + 8
        0x08001cb6:    f0410101    A...    ORR      r1,r1,#1
        0x08001cba:    e002        ..      B        0x8001cc2 ; I2C_Send7bitAddress + 14
        0x08001cbc:    f64f73fe    O..s    MOV      r3,#0xfffe
        0x08001cc0:    4019        .@      ANDS     r1,r1,r3
        0x08001cc2:    8201        ..      STRH     r1,[r0,#0x10]
        0x08001cc4:    4770        pG      BX       lr
    i.I2C_SendData
    I2C_SendData
        0x08001cc6:    8201        ..      STRH     r1,[r0,#0x10]
        0x08001cc8:    4770        pG      BX       lr
        0x08001cca:    0000        ..      MOVS     r0,r0
    i.IndicateLedClose
    IndicateLedClose
        0x08001ccc:    b510        ..      PUSH     {r4,lr}
        0x08001cce:    a006        ..      ADR      r0,{pc}+0x1a ; 0x8001ce8
        0x08001cd0:    f7fffe02    ....    BL       GetLedDevice ; 0x80018d8
        0x08001cd4:    4906        .I      LDR      r1,[pc,#24] ; [0x8001cf0] = 0x200003bc
        0x08001cd6:    6008        .`      STR      r0,[r1,#0]
        0x08001cd8:    4608        .F      MOV      r0,r1
        0x08001cda:    6800        .h      LDR      r0,[r0,#0]
        0x08001cdc:    2101        .!      MOVS     r1,#1
        0x08001cde:    6902        .i      LDR      r2,[r0,#0x10]
        0x08001ce0:    4803        .H      LDR      r0,[pc,#12] ; [0x8001cf0] = 0x200003bc
        0x08001ce2:    6800        .h      LDR      r0,[r0,#0]
        0x08001ce4:    4790        .G      BLX      r2
        0x08001ce6:    bd10        ..      POP      {r4,pc}
    $d
        0x08001ce8:    54494857    WHIT    DCD    1414088791
        0x08001cec:    00000045    E...    DCD    69
        0x08001cf0:    200003bc    ...     DCD    536871868
    $t
    i.IndicateLedOpen
    IndicateLedOpen
        0x08001cf4:    b510        ..      PUSH     {r4,lr}
        0x08001cf6:    a006        ..      ADR      r0,{pc}+0x1a ; 0x8001d10
        0x08001cf8:    f7fffdee    ....    BL       GetLedDevice ; 0x80018d8
        0x08001cfc:    4906        .I      LDR      r1,[pc,#24] ; [0x8001d18] = 0x200003bc
        0x08001cfe:    6008        .`      STR      r0,[r1,#0]
        0x08001d00:    4608        .F      MOV      r0,r1
        0x08001d02:    6800        .h      LDR      r0,[r0,#0]
        0x08001d04:    2100        .!      MOVS     r1,#0
        0x08001d06:    6902        .i      LDR      r2,[r0,#0x10]
        0x08001d08:    4803        .H      LDR      r0,[pc,#12] ; [0x8001d18] = 0x200003bc
        0x08001d0a:    6800        .h      LDR      r0,[r0,#0]
        0x08001d0c:    4790        .G      BLX      r2
        0x08001d0e:    bd10        ..      POP      {r4,pc}
    $d
        0x08001d10:    54494857    WHIT    DCD    1414088791
        0x08001d14:    00000045    E...    DCD    69
        0x08001d18:    200003bc    ...     DCD    536871868
    $t
    i.InfoChooseFUN
    InfoChooseFUN
        0x08001d1c:    b538        8.      PUSH     {r3-r5,lr}
        0x08001d1e:    4604        .F      MOV      r4,r0
        0x08001d20:    2030        0       MOVS     r0,#0x30
        0x08001d22:    4603        .F      MOV      r3,r0
        0x08001d24:    2240        @"      MOVS     r2,#0x40
        0x08001d26:    2128        (!      MOVS     r1,#0x28
        0x08001d28:    9000        ..      STR      r0,[sp,#0]
        0x08001d2a:    4806        .H      LDR      r0,[pc,#24] ; [0x8001d44] = 0x20000790
        0x08001d2c:    6800        .h      LDR      r0,[r0,#0]
        0x08001d2e:    f7fefe19    ....    BL       ClearInDisplayDev ; 0x8000964
        0x08001d32:    4b05        .K      LDR      r3,[pc,#20] ; [0x8001d48] = 0x20000660
        0x08001d34:    2240        @"      MOVS     r2,#0x40
        0x08001d36:    2128        (!      MOVS     r1,#0x28
        0x08001d38:    4802        .H      LDR      r0,[pc,#8] ; [0x8001d44] = 0x20000790
        0x08001d3a:    6800        .h      LDR      r0,[r0,#0]
        0x08001d3c:    f001f9ca    ....    BL       ShowGraphInDisplayDev ; 0x80030d4
        0x08001d40:    bd38        8.      POP      {r3-r5,pc}
    $d
        0x08001d42:    0000        ..      DCW    0
        0x08001d44:    20000790    ...     DCD    536872848
        0x08001d48:    20000660    `..     DCD    536872544
    $t
    i.InfoEnterFUN
    InfoEnterFUN
        0x08001d4c:    b510        ..      PUSH     {r4,lr}
        0x08001d4e:    4604        .F      MOV      r4,r0
        0x08001d50:    4804        .H      LDR      r0,[pc,#16] ; [0x8001d64] = 0x200006fc
        0x08001d52:    6800        .h      LDR      r0,[r0,#0]
        0x08001d54:    b910        ..      CBNZ     r0,0x8001d5c ; InfoEnterFUN + 16
        0x08001d56:    a004        ..      ADR      r0,{pc}+0x12 ; 0x8001d68
        0x08001d58:    f001fcf8    ....    BL       __0printf$3 ; 0x800374c
        0x08001d5c:    2001        .       MOVS     r0,#1
        0x08001d5e:    4901        .I      LDR      r1,[pc,#4] ; [0x8001d64] = 0x200006fc
        0x08001d60:    6008        .`      STR      r0,[r1,#0]
        0x08001d62:    bd10        ..      POP      {r4,pc}
    $d
        0x08001d64:    200006fc    ...     DCD    536872700
        0x08001d68:    a2cfc5d0    ....    DCD    2731525584
        0x08001d6c:    000a0d2e    ....    DCD    658734
    $t
    i.InitInputDevice
    InitInputDevice
        0x08001d70:    b510        ..      PUSH     {r4,lr}
        0x08001d72:    f001fe0d    ....    BL       __InitInputDevice ; 0x8003990
        0x08001d76:    bd10        ..      POP      {r4,pc}
    i.InitMenuOption
    InitMenuOption
        0x08001d78:    b510        ..      PUSH     {r4,lr}
        0x08001d7a:    f7fefb69    ..i.    BL       AddOptionToManager ; 0x8000450
        0x08001d7e:    a003        ..      ADR      r0,{pc}+0xe ; 0x8001d8c
        0x08001d80:    f001fdd4    ....    BL       __GetOption ; 0x800392c
        0x08001d84:    4903        .I      LDR      r1,[pc,#12] ; [0x8001d94] = 0x2000070c
        0x08001d86:    6008        .`      STR      r0,[r1,#0]
        0x08001d88:    bd10        ..      POP      {r4,pc}
    $d
        0x08001d8a:    0000        ..      DCW    0
        0x08001d8c:    656d6f68    home    DCD    1701670760
        0x08001d90:    00000000    ....    DCD    0
        0x08001d94:    2000070c    ...     DCD    536872716
    $t
    i.InputDeviceRegister
    InputDeviceRegister
        0x08001d98:    4902        .I      LDR      r1,[pc,#8] ; [0x8001da4] = 0x200000b8
        0x08001d9a:    6809        .h      LDR      r1,[r1,#0]
        0x08001d9c:    6101        .a      STR      r1,[r0,#0x10]
        0x08001d9e:    4901        .I      LDR      r1,[pc,#4] ; [0x8001da4] = 0x200000b8
        0x08001da0:    6008        .`      STR      r0,[r1,#0]
        0x08001da2:    4770        pG      BX       lr
    $d
        0x08001da4:    200000b8    ...     DCD    536871096
    $t
    i.KAL_BeepDevicePWMCfg
    KAL_BeepDevicePWMCfg
        0x08001da8:    b570        p.      PUSH     {r4-r6,lr}
        0x08001daa:    4605        .F      MOV      r5,r0
        0x08001dac:    460c        .F      MOV      r4,r1
        0x08001dae:    4616        .F      MOV      r6,r2
        0x08001db0:    4804        .H      LDR      r0,[pc,#16] ; [0x8001dc4] = 0x11940
        0x08001db2:    fbb0f0f4    ....    UDIV     r0,r0,r4
        0x08001db6:    1e44        D.      SUBS     r4,r0,#1
        0x08001db8:    4632        2F      MOV      r2,r6
        0x08001dba:    4621        !F      MOV      r1,r4
        0x08001dbc:    4628        (F      MOV      r0,r5
        0x08001dbe:    f7fefd4d    ..M.    BL       CAL_BeepDevicePWMCfg ; 0x800085c
        0x08001dc2:    bd70        p.      POP      {r4-r6,pc}
    $d
        0x08001dc4:    00011940    @...    DCD    72000
    $t
    i.KAL_BeepDevicePWMOff
    KAL_BeepDevicePWMOff
        0x08001dc8:    b510        ..      PUSH     {r4,lr}
        0x08001dca:    4604        .F      MOV      r4,r0
        0x08001dcc:    4620         F      MOV      r0,r4
        0x08001dce:    f7fefd4f    ..O.    BL       CAL_BeepDevicePWMOff ; 0x8000870
        0x08001dd2:    bd10        ..      POP      {r4,pc}
    i.KAL_BeepDevicePWMOn
    KAL_BeepDevicePWMOn
        0x08001dd4:    b510        ..      PUSH     {r4,lr}
        0x08001dd6:    4604        .F      MOV      r4,r0
        0x08001dd8:    4620         F      MOV      r0,r4
        0x08001dda:    f7fefd4f    ..O.    BL       CAL_BeepDevicePWMOn ; 0x800087c
        0x08001dde:    bd10        ..      POP      {r4,pc}
    i.KAL_GPIOButtonInit
    KAL_GPIOButtonInit
        0x08001de0:    b510        ..      PUSH     {r4,lr}
        0x08001de2:    4604        .F      MOV      r4,r0
        0x08001de4:    4620         F      MOV      r0,r4
        0x08001de6:    f7fefd4f    ..O.    BL       CAL_GPIOButtonInit ; 0x8000888
        0x08001dea:    bd10        ..      POP      {r4,pc}
    i.KAL_GPIOI2CDevInit
    KAL_GPIOI2CDevInit
        0x08001dec:    b510        ..      PUSH     {r4,lr}
        0x08001dee:    4604        .F      MOV      r4,r0
        0x08001df0:    4620         F      MOV      r0,r4
        0x08001df2:    f7fefd4f    ..O.    BL       CAL_GPIOI2CDevInit ; 0x8000894
        0x08001df6:    bd10        ..      POP      {r4,pc}
    i.KAL_GPIOLedDevControl
    KAL_GPIOLedDevControl
        0x08001df8:    b570        p.      PUSH     {r4-r6,lr}
        0x08001dfa:    4604        .F      MOV      r4,r0
        0x08001dfc:    460d        .F      MOV      r5,r1
        0x08001dfe:    4629        )F      MOV      r1,r5
        0x08001e00:    4620         F      MOV      r0,r4
        0x08001e02:    f7fefd4f    ..O.    BL       CAL_GPIOLedDevControl ; 0x80008a4
        0x08001e06:    bd70        p.      POP      {r4-r6,pc}
    i.KAL_GPIOLedDevInit
    KAL_GPIOLedDevInit
        0x08001e08:    b510        ..      PUSH     {r4,lr}
        0x08001e0a:    4604        .F      MOV      r4,r0
        0x08001e0c:    4620         F      MOV      r0,r4
        0x08001e0e:    f7fefd52    ..R.    BL       CAL_GPIOLedDevInit ; 0x80008b6
        0x08001e12:    bd10        ..      POP      {r4,pc}
    i.KAL_HardwareBeepDevInit
    KAL_HardwareBeepDevInit
        0x08001e14:    b510        ..      PUSH     {r4,lr}
        0x08001e16:    4604        .F      MOV      r4,r0
        0x08001e18:    4620         F      MOV      r0,r4
        0x08001e1a:    f7fefd53    ..S.    BL       CAL_HardwareBeepDevInit ; 0x80008c4
        0x08001e1e:    bd10        ..      POP      {r4,pc}
    i.KAL_I2CDMACfg
    KAL_I2CDMACfg
        0x08001e20:    b510        ..      PUSH     {r4,lr}
        0x08001e22:    4604        .F      MOV      r4,r0
        0x08001e24:    4620         F      MOV      r0,r4
        0x08001e26:    f7fefd54    ..T.    BL       CAL_I2CDMACfg ; 0x80008d2
        0x08001e2a:    bd10        ..      POP      {r4,pc}
    i.KAL_I2CDMAEnable
    KAL_I2CDMAEnable
        0x08001e2c:    b510        ..      PUSH     {r4,lr}
        0x08001e2e:    4604        .F      MOV      r4,r0
        0x08001e30:    4620         F      MOV      r0,r4
        0x08001e32:    f7fefd56    ..V.    BL       CAL_I2CDMAEnable ; 0x80008e2
        0x08001e36:    bd10        ..      POP      {r4,pc}
    i.KAL_TimerInit
    KAL_TimerInit
        0x08001e38:    b510        ..      PUSH     {r4,lr}
        0x08001e3a:    f7fefd58    ..X.    BL       CAL_TimerInit ; 0x80008ee
        0x08001e3e:    bd10        ..      POP      {r4,pc}
    i.LedDeviceControl
    LedDeviceControl
        0x08001e40:    b570        p.      PUSH     {r4-r6,lr}
        0x08001e42:    4604        .F      MOV      r4,r0
        0x08001e44:    460d        .F      MOV      r5,r1
        0x08001e46:    4629        )F      MOV      r1,r5
        0x08001e48:    4620         F      MOV      r0,r4
        0x08001e4a:    f7ffffd5    ....    BL       KAL_GPIOLedDevControl ; 0x8001df8
        0x08001e4e:    bd70        p.      POP      {r4-r6,pc}
    i.LedDeviceInit
    LedDeviceInit
        0x08001e50:    b510        ..      PUSH     {r4,lr}
        0x08001e52:    4604        .F      MOV      r4,r0
        0x08001e54:    4620         F      MOV      r0,r4
        0x08001e56:    f7ffffd7    ....    BL       KAL_GPIOLedDevInit ; 0x8001e08
        0x08001e5a:    bd10        ..      POP      {r4,pc}
    i.LedDeviceRegister
    LedDeviceRegister
        0x08001e5c:    b570        p.      PUSH     {r4-r6,lr}
        0x08001e5e:    4604        .F      MOV      r4,r0
        0x08001e60:    460d        .F      MOV      r5,r1
        0x08001e62:    4620         F      MOV      r0,r4
        0x08001e64:    68e1        .h      LDR      r1,[r4,#0xc]
        0x08001e66:    4788        .G      BLX      r1
        0x08001e68:    6025        %`      STR      r5,[r4,#0]
        0x08001e6a:    4805        .H      LDR      r0,[pc,#20] ; [0x8001e80] = 0x2000142c
        0x08001e6c:    6801        .h      LDR      r1,[r0,#0]
        0x08001e6e:    6800        .h      LDR      r0,[r0,#0]
        0x08001e70:    1c40        @.      ADDS     r0,r0,#1
        0x08001e72:    4a03        .J      LDR      r2,[pc,#12] ; [0x8001e80] = 0x2000142c
        0x08001e74:    6010        .`      STR      r0,[r2,#0]
        0x08001e76:    1d10        ..      ADDS     r0,r2,#4
        0x08001e78:    f8404021    @.!@    STR      r4,[r0,r1,LSL #2]
        0x08001e7c:    bd70        p.      POP      {r4-r6,pc}
    $d
        0x08001e7e:    0000        ..      DCW    0
        0x08001e80:    2000142c    ,..     DCD    536876076
    $t
    i.LogicThreadEntry
    LogicThreadEntry
        0x08001e84:    b08c        ..      SUB      sp,sp,#0x30
        0x08001e86:    a048        H.      ADR      r0,{pc}+0x122 ; 0x8001fa8
        0x08001e88:    f001fc60    ..`.    BL       __0printf$3 ; 0x800374c
        0x08001e8c:    484a        JH      LDR      r0,[pc,#296] ; [0x8001fb8] = 0x2000072c
        0x08001e8e:    494b        KI      LDR      r1,[pc,#300] ; [0x8001fbc] = 0x20000778
        0x08001e90:    6008        .`      STR      r0,[r1,#0]
        0x08001e92:    e087        ..      B        0x8001fa4 ; LogicThreadEntry + 288
        0x08001e94:    a801        ..      ADD      r0,sp,#4
        0x08001e96:    f7fffcef    ....    BL       GetInputBuffer ; 0x8001878
        0x08001e9a:    2800        .(      CMP      r0,#0
        0x08001e9c:    d16d        m.      BNE      0x8001f7a ; LogicThreadEntry + 246
        0x08001e9e:    9805        ..      LDR      r0,[sp,#0x14]
        0x08001ea0:    2801        .(      CMP      r0,#1
        0x08001ea2:    d10e        ..      BNE      0x8001ec2 ; LogicThreadEntry + 62
        0x08001ea4:    f89d0008    ....    LDRB     r0,[sp,#8]
        0x08001ea8:    2801        .(      CMP      r0,#1
        0x08001eaa:    d10a        ..      BNE      0x8001ec2 ; LogicThreadEntry + 62
        0x08001eac:    9806        ..      LDR      r0,[sp,#0x18]
        0x08001eae:    b940        @.      CBNZ     r0,0x8001ec2 ; LogicThreadEntry + 62
        0x08001eb0:    4843        CH      LDR      r0,[pc,#268] ; [0x8001fc0] = 0x2000075c
        0x08001eb2:    4944        DI      LDR      r1,[pc,#272] ; [0x8001fc4] = 0x20000774
        0x08001eb4:    6008        .`      STR      r0,[r1,#0]
        0x08001eb6:    4844        DH      LDR      r0,[pc,#272] ; [0x8001fc8] = 0x2000077c
        0x08001eb8:    6800        .h      LDR      r0,[r0,#0]
        0x08001eba:    1c40        @.      ADDS     r0,r0,#1
        0x08001ebc:    4942        BI      LDR      r1,[pc,#264] ; [0x8001fc8] = 0x2000077c
        0x08001ebe:    6008        .`      STR      r0,[r1,#0]
        0x08001ec0:    e05b        [.      B        0x8001f7a ; LogicThreadEntry + 246
        0x08001ec2:    9805        ..      LDR      r0,[sp,#0x14]
        0x08001ec4:    2802        .(      CMP      r0,#2
        0x08001ec6:    d10e        ..      BNE      0x8001ee6 ; LogicThreadEntry + 98
        0x08001ec8:    f89d0008    ....    LDRB     r0,[sp,#8]
        0x08001ecc:    2801        .(      CMP      r0,#1
        0x08001ece:    d10a        ..      BNE      0x8001ee6 ; LogicThreadEntry + 98
        0x08001ed0:    9806        ..      LDR      r0,[sp,#0x18]
        0x08001ed2:    b940        @.      CBNZ     r0,0x8001ee6 ; LogicThreadEntry + 98
        0x08001ed4:    483d        =H      LDR      r0,[pc,#244] ; [0x8001fcc] = 0x20000760
        0x08001ed6:    493b        ;I      LDR      r1,[pc,#236] ; [0x8001fc4] = 0x20000774
        0x08001ed8:    6008        .`      STR      r0,[r1,#0]
        0x08001eda:    483b        ;H      LDR      r0,[pc,#236] ; [0x8001fc8] = 0x2000077c
        0x08001edc:    6800        .h      LDR      r0,[r0,#0]
        0x08001ede:    1c40        @.      ADDS     r0,r0,#1
        0x08001ee0:    4939        9I      LDR      r1,[pc,#228] ; [0x8001fc8] = 0x2000077c
        0x08001ee2:    6008        .`      STR      r0,[r1,#0]
        0x08001ee4:    e049        I.      B        0x8001f7a ; LogicThreadEntry + 246
        0x08001ee6:    9805        ..      LDR      r0,[sp,#0x14]
        0x08001ee8:    2803        .(      CMP      r0,#3
        0x08001eea:    d10e        ..      BNE      0x8001f0a ; LogicThreadEntry + 134
        0x08001eec:    f89d0008    ....    LDRB     r0,[sp,#8]
        0x08001ef0:    2801        .(      CMP      r0,#1
        0x08001ef2:    d10a        ..      BNE      0x8001f0a ; LogicThreadEntry + 134
        0x08001ef4:    9806        ..      LDR      r0,[sp,#0x18]
        0x08001ef6:    b940        @.      CBNZ     r0,0x8001f0a ; LogicThreadEntry + 134
        0x08001ef8:    4835        5H      LDR      r0,[pc,#212] ; [0x8001fd0] = 0x20000764
        0x08001efa:    4932        2I      LDR      r1,[pc,#200] ; [0x8001fc4] = 0x20000774
        0x08001efc:    6008        .`      STR      r0,[r1,#0]
        0x08001efe:    4832        2H      LDR      r0,[pc,#200] ; [0x8001fc8] = 0x2000077c
        0x08001f00:    6800        .h      LDR      r0,[r0,#0]
        0x08001f02:    1c40        @.      ADDS     r0,r0,#1
        0x08001f04:    4930        0I      LDR      r1,[pc,#192] ; [0x8001fc8] = 0x2000077c
        0x08001f06:    6008        .`      STR      r0,[r1,#0]
        0x08001f08:    e037        7.      B        0x8001f7a ; LogicThreadEntry + 246
        0x08001f0a:    9805        ..      LDR      r0,[sp,#0x14]
        0x08001f0c:    2801        .(      CMP      r0,#1
        0x08001f0e:    d10f        ..      BNE      0x8001f30 ; LogicThreadEntry + 172
        0x08001f10:    f89d0008    ....    LDRB     r0,[sp,#8]
        0x08001f14:    2801        .(      CMP      r0,#1
        0x08001f16:    d10b        ..      BNE      0x8001f30 ; LogicThreadEntry + 172
        0x08001f18:    9806        ..      LDR      r0,[sp,#0x18]
        0x08001f1a:    2803        .(      CMP      r0,#3
        0x08001f1c:    d108        ..      BNE      0x8001f30 ; LogicThreadEntry + 172
        0x08001f1e:    482d        -H      LDR      r0,[pc,#180] ; [0x8001fd4] = 0x20000768
        0x08001f20:    4928        (I      LDR      r1,[pc,#160] ; [0x8001fc4] = 0x20000774
        0x08001f22:    6008        .`      STR      r0,[r1,#0]
        0x08001f24:    4828        (H      LDR      r0,[pc,#160] ; [0x8001fc8] = 0x2000077c
        0x08001f26:    6800        .h      LDR      r0,[r0,#0]
        0x08001f28:    1c40        @.      ADDS     r0,r0,#1
        0x08001f2a:    4927        'I      LDR      r1,[pc,#156] ; [0x8001fc8] = 0x2000077c
        0x08001f2c:    6008        .`      STR      r0,[r1,#0]
        0x08001f2e:    e024        $.      B        0x8001f7a ; LogicThreadEntry + 246
        0x08001f30:    9805        ..      LDR      r0,[sp,#0x14]
        0x08001f32:    2802        .(      CMP      r0,#2
        0x08001f34:    d10f        ..      BNE      0x8001f56 ; LogicThreadEntry + 210
        0x08001f36:    f89d0008    ....    LDRB     r0,[sp,#8]
        0x08001f3a:    2801        .(      CMP      r0,#1
        0x08001f3c:    d10b        ..      BNE      0x8001f56 ; LogicThreadEntry + 210
        0x08001f3e:    9806        ..      LDR      r0,[sp,#0x18]
        0x08001f40:    2803        .(      CMP      r0,#3
        0x08001f42:    d108        ..      BNE      0x8001f56 ; LogicThreadEntry + 210
        0x08001f44:    4824        $H      LDR      r0,[pc,#144] ; [0x8001fd8] = 0x2000076c
        0x08001f46:    491f        .I      LDR      r1,[pc,#124] ; [0x8001fc4] = 0x20000774
        0x08001f48:    6008        .`      STR      r0,[r1,#0]
        0x08001f4a:    481f        .H      LDR      r0,[pc,#124] ; [0x8001fc8] = 0x2000077c
        0x08001f4c:    6800        .h      LDR      r0,[r0,#0]
        0x08001f4e:    1c40        @.      ADDS     r0,r0,#1
        0x08001f50:    491d        .I      LDR      r1,[pc,#116] ; [0x8001fc8] = 0x2000077c
        0x08001f52:    6008        .`      STR      r0,[r1,#0]
        0x08001f54:    e011        ..      B        0x8001f7a ; LogicThreadEntry + 246
        0x08001f56:    9805        ..      LDR      r0,[sp,#0x14]
        0x08001f58:    2803        .(      CMP      r0,#3
        0x08001f5a:    d10e        ..      BNE      0x8001f7a ; LogicThreadEntry + 246
        0x08001f5c:    f89d0008    ....    LDRB     r0,[sp,#8]
        0x08001f60:    2801        .(      CMP      r0,#1
        0x08001f62:    d10a        ..      BNE      0x8001f7a ; LogicThreadEntry + 246
        0x08001f64:    9806        ..      LDR      r0,[sp,#0x18]
        0x08001f66:    2803        .(      CMP      r0,#3
        0x08001f68:    d107        ..      BNE      0x8001f7a ; LogicThreadEntry + 246
        0x08001f6a:    481c        .H      LDR      r0,[pc,#112] ; [0x8001fdc] = 0x20000770
        0x08001f6c:    4915        .I      LDR      r1,[pc,#84] ; [0x8001fc4] = 0x20000774
        0x08001f6e:    6008        .`      STR      r0,[r1,#0]
        0x08001f70:    4815        .H      LDR      r0,[pc,#84] ; [0x8001fc8] = 0x2000077c
        0x08001f72:    6800        .h      LDR      r0,[r0,#0]
        0x08001f74:    1c40        @.      ADDS     r0,r0,#1
        0x08001f76:    4914        .I      LDR      r1,[pc,#80] ; [0x8001fc8] = 0x2000077c
        0x08001f78:    6008        .`      STR      r0,[r1,#0]
        0x08001f7a:    4813        .H      LDR      r0,[pc,#76] ; [0x8001fc8] = 0x2000077c
        0x08001f7c:    6800        .h      LDR      r0,[r0,#0]
        0x08001f7e:    2800        .(      CMP      r0,#0
        0x08001f80:    dd0d        ..      BLE      0x8001f9e ; LogicThreadEntry + 282
        0x08001f82:    a017        ..      ADR      r0,{pc}+0x5e ; 0x8001fe0
        0x08001f84:    f001fbe2    ....    BL       __0printf$3 ; 0x800374c
        0x08001f88:    480e        .H      LDR      r0,[pc,#56] ; [0x8001fc4] = 0x20000774
        0x08001f8a:    6800        .h      LDR      r0,[r0,#0]
        0x08001f8c:    6801        .h      LDR      r1,[r0,#0]
        0x08001f8e:    480b        .H      LDR      r0,[pc,#44] ; [0x8001fbc] = 0x20000778
        0x08001f90:    6800        .h      LDR      r0,[r0,#0]
        0x08001f92:    4788        .G      BLX      r1
        0x08001f94:    480c        .H      LDR      r0,[pc,#48] ; [0x8001fc8] = 0x2000077c
        0x08001f96:    6800        .h      LDR      r0,[r0,#0]
        0x08001f98:    1e40        @.      SUBS     r0,r0,#1
        0x08001f9a:    490b        .I      LDR      r1,[pc,#44] ; [0x8001fc8] = 0x2000077c
        0x08001f9c:    6008        .`      STR      r0,[r1,#0]
        0x08001f9e:    4813        .H      LDR      r0,[pc,#76] ; [0x8001fec] = 0x20000804
        0x08001fa0:    f002fb38    ..8.    BL       rt_schedule ; 0x8004614
        0x08001fa4:    e776        v.      B        0x8001e94 ; LogicThreadEntry + 16
    $d
        0x08001fa6:    0000        ..      DCW    0
        0x08001fa8:    69676f4c    Logi    DCD    1768386380
        0x08001fac:    68542063    c Th    DCD    1750343779
        0x08001fb0:    64616572    read    DCD    1684104562
        0x08001fb4:    000a0d2e    ....    DCD    658734
        0x08001fb8:    2000072c    ,..     DCD    536872748
        0x08001fbc:    20000778    x..     DCD    536872824
        0x08001fc0:    2000075c    \..     DCD    536872796
        0x08001fc4:    20000774    t..     DCD    536872820
        0x08001fc8:    2000077c    |..     DCD    536872828
        0x08001fcc:    20000760    `..     DCD    536872800
        0x08001fd0:    20000764    d..     DCD    536872804
        0x08001fd4:    20000768    h..     DCD    536872808
        0x08001fd8:    2000076c    l..     DCD    536872812
        0x08001fdc:    20000770    p..     DCD    536872816
        0x08001fe0:    c3b7d0d3    ....    DCD    3283603667
        0x08001fe4:    dfd5cace    ....    DCD    3755330254
        0x08001fe8:    000a0d2e    ....    DCD    658734
        0x08001fec:    20000804    ...     DCD    536872964
    $t
    i.MemManage_Handler
    MemManage_Handler
        0x08001ff0:    bf00        ..      NOP      
        0x08001ff2:    e7fe        ..      B        0x8001ff2 ; MemManage_Handler + 2
    i.MenuFirstKeyLongPressFun
    MenuFirstKeyLongPressFun
        0x08001ff4:    b510        ..      PUSH     {r4,lr}
        0x08001ff6:    a003        ..      ADR      r0,{pc}+0xe ; 0x8002004
        0x08001ff8:    f001fba8    ....    BL       __0printf$3 ; 0x800374c
        0x08001ffc:    2000        .       MOVS     r0,#0
        0x08001ffe:    f000f9c3    ....    BL       OptionControl ; 0x8002388
        0x08002002:    bd10        ..      POP      {r4,pc}
    $d
        0x08002004:    a5b5cbb2    ....    DCD    2780154802
        0x08002008:    acccb4d7    ....    DCD    2899096791
        0x0800200c:    b53ac2cf    ..:.    DCD    3040527055
        0x08002010:    b8bbd2da    ....    DCD    3099316954
        0x08002014:    bcb4b0f6    ....    DCD    3165958390
        0x08002018:    b0a4b3fc    ....    DCD    2963583996
        0x0800201c:    0a0d2eb4    ....    DCD    168636084
        0x08002020:    00000000    ....    DCD    0
    $t
    i.MenuFirstKeyShortPressFun
    MenuFirstKeyShortPressFun
        0x08002024:    b510        ..      PUSH     {r4,lr}
        0x08002026:    a003        ..      ADR      r0,{pc}+0xe ; 0x8002034
        0x08002028:    f001fb90    ....    BL       __0printf$3 ; 0x800374c
        0x0800202c:    2000        .       MOVS     r0,#0
        0x0800202e:    f000f9ab    ....    BL       OptionControl ; 0x8002388
        0x08002032:    bd10        ..      POP      {r4,pc}
    $d
        0x08002034:    a5b5cbb2    ....    DCD    2780154802
        0x08002038:    acccb4d7    ....    DCD    2899096791
        0x0800203c:    b53ac2cf    ..:.    DCD    3040527055
        0x08002040:    b8bbd2da    ....    DCD    3099316954
        0x08002044:    bcb4b0f6    ....    DCD    3165958390
        0x08002048:    b0ccb6fc    ....    DCD    2966206204
        0x0800204c:    0a0d2eb4    ....    DCD    168636084
        0x08002050:    00000000    ....    DCD    0
    $t
    i.MenuSecondKeyLongPressFun
    MenuSecondKeyLongPressFun
        0x08002054:    b510        ..      PUSH     {r4,lr}
        0x08002056:    a003        ..      ADR      r0,{pc}+0xe ; 0x8002064
        0x08002058:    f001fb78    ..x.    BL       __0printf$3 ; 0x800374c
        0x0800205c:    2001        .       MOVS     r0,#1
        0x0800205e:    f000f993    ....    BL       OptionControl ; 0x8002388
        0x08002062:    bd10        ..      POP      {r4,pc}
    $d
        0x08002064:    a5b5cbb2    ....    DCD    2780154802
        0x08002068:    acccb4d7    ....    DCD    2899096791
        0x0800206c:    b53ac2cf    ..:.    DCD    3040527055
        0x08002070:    b8feb6da    ....    DCD    3103700698
        0x08002074:    bcb4b0f6    ....    DCD    3165958390
        0x08002078:    b0a4b3fc    ....    DCD    2963583996
        0x0800207c:    0a0d2eb4    ....    DCD    168636084
        0x08002080:    00000000    ....    DCD    0
    $t
    i.MenuSecondKeyShortPressFun
    MenuSecondKeyShortPressFun
        0x08002084:    b510        ..      PUSH     {r4,lr}
        0x08002086:    a003        ..      ADR      r0,{pc}+0xe ; 0x8002094
        0x08002088:    f001fb60    ..`.    BL       __0printf$3 ; 0x800374c
        0x0800208c:    2001        .       MOVS     r0,#1
        0x0800208e:    f000f97b    ..{.    BL       OptionControl ; 0x8002388
        0x08002092:    bd10        ..      POP      {r4,pc}
    $d
        0x08002094:    a5b5cbb2    ....    DCD    2780154802
        0x08002098:    acccb4d7    ....    DCD    2899096791
        0x0800209c:    b53ac2cf    ..:.    DCD    3040527055
        0x080020a0:    b8feb6da    ....    DCD    3103700698
        0x080020a4:    bcb4b0f6    ....    DCD    3165958390
        0x080020a8:    b0ccb6fc    ....    DCD    2966206204
        0x080020ac:    0a0d2eb4    ....    DCD    168636084
        0x080020b0:    00000000    ....    DCD    0
    $t
    i.MenuThirdKeyLongPressFun
    MenuThirdKeyLongPressFun
        0x080020b4:    b510        ..      PUSH     {r4,lr}
        0x080020b6:    a003        ..      ADR      r0,{pc}+0xe ; 0x80020c4
        0x080020b8:    f001fb48    ..H.    BL       __0printf$3 ; 0x800374c
        0x080020bc:    2002        .       MOVS     r0,#2
        0x080020be:    f000f963    ..c.    BL       OptionControl ; 0x8002388
        0x080020c2:    bd10        ..      POP      {r4,pc}
    $d
        0x080020c4:    a5b5cbb2    ....    DCD    2780154802
        0x080020c8:    acccb4d7    ....    DCD    2899096791
        0x080020cc:    b53ac2cf    ..:.    DCD    3040527055
        0x080020d0:    b8fdc8da    ....    DCD    3103639770
        0x080020d4:    bcb4b0f6    ....    DCD    3165958390
        0x080020d8:    b0a4b3fc    ....    DCD    2963583996
        0x080020dc:    0a0d2eb4    ....    DCD    168636084
        0x080020e0:    00000000    ....    DCD    0
    $t
    i.MenuThirdKeyShortPressFun
    MenuThirdKeyShortPressFun
        0x080020e4:    b510        ..      PUSH     {r4,lr}
        0x080020e6:    a003        ..      ADR      r0,{pc}+0xe ; 0x80020f4
        0x080020e8:    f001fb30    ..0.    BL       __0printf$3 ; 0x800374c
        0x080020ec:    2002        .       MOVS     r0,#2
        0x080020ee:    f000f94b    ..K.    BL       OptionControl ; 0x8002388
        0x080020f2:    bd10        ..      POP      {r4,pc}
    $d
        0x080020f4:    a5b5cbb2    ....    DCD    2780154802
        0x080020f8:    acccb4d7    ....    DCD    2899096791
        0x080020fc:    b53ac2cf    ..:.    DCD    3040527055
        0x08002100:    b8fdc8da    ....    DCD    3103639770
        0x08002104:    bcb4b0f6    ....    DCD    3165958390
        0x08002108:    b0ccb6fc    ....    DCD    2966206204
        0x0800210c:    0a0d2eb4    ....    DCD    168636084
        0x08002110:    00000000    ....    DCD    0
    $t
    i.MenuThreadEntry
    MenuThreadEntry
        0x08002114:    a00c        ..      ADR      r0,{pc}+0x34 ; 0x8002148
        0x08002116:    f001fb19    ....    BL       __0printf$3 ; 0x800374c
        0x0800211a:    e013        ..      B        0x8002144 ; MenuThreadEntry + 48
        0x0800211c:    a00a        ..      ADR      r0,{pc}+0x2c ; 0x8002148
        0x0800211e:    f001fb15    ....    BL       __0printf$3 ; 0x800374c
        0x08002122:    480d        .H      LDR      r0,[pc,#52] ; [0x8002158] = 0x2000070c
        0x08002124:    6800        .h      LDR      r0,[r0,#0]
        0x08002126:    7c00        .|      LDRB     r0,[r0,#0x10]
        0x08002128:    b930        0.      CBNZ     r0,0x8002138 ; MenuThreadEntry + 36
        0x0800212a:    480b        .H      LDR      r0,[pc,#44] ; [0x8002158] = 0x2000070c
        0x0800212c:    6800        .h      LDR      r0,[r0,#0]
        0x0800212e:    6941        Ai      LDR      r1,[r0,#0x14]
        0x08002130:    4809        .H      LDR      r0,[pc,#36] ; [0x8002158] = 0x2000070c
        0x08002132:    6800        .h      LDR      r0,[r0,#0]
        0x08002134:    4788        .G      BLX      r1
        0x08002136:    e005        ..      B        0x8002144 ; MenuThreadEntry + 48
        0x08002138:    4807        .H      LDR      r0,[pc,#28] ; [0x8002158] = 0x2000070c
        0x0800213a:    6800        .h      LDR      r0,[r0,#0]
        0x0800213c:    6981        .i      LDR      r1,[r0,#0x18]
        0x0800213e:    4806        .H      LDR      r0,[pc,#24] ; [0x8002158] = 0x2000070c
        0x08002140:    6800        .h      LDR      r0,[r0,#0]
        0x08002142:    4788        .G      BLX      r1
        0x08002144:    e7ea        ..      B        0x800211c ; MenuThreadEntry + 8
    $d
        0x08002146:    0000        ..      DCW    0
        0x08002148:    756e654d    Menu    DCD    1970169165
        0x0800214c:    72685420     Thr    DCD    1919439904
        0x08002150:    2e646165    ead.    DCD    778330469
        0x08002154:    00000a0d    ....    DCD    2573
        0x08002158:    2000070c    ...     DCD    536872716
    $t
    i.NMI_Handler
    NMI_Handler
        0x0800215c:    4770        pG      BX       lr
    i.NVIC_Configuration
    NVIC_Configuration
        0x0800215e:    b508        ..      PUSH     {r3,lr}
        0x08002160:    f44f60a0    O..`    MOV      r0,#0x500
        0x08002164:    f000f846    ..F.    BL       NVIC_PriorityGroupConfig ; 0x80021f4
        0x08002168:    2025        %       MOVS     r0,#0x25
        0x0800216a:    f88d0000    ....    STRB     r0,[sp,#0]
        0x0800216e:    2001        .       MOVS     r0,#1
        0x08002170:    f88d0001    ....    STRB     r0,[sp,#1]
        0x08002174:    f88d0002    ....    STRB     r0,[sp,#2]
        0x08002178:    f88d0003    ....    STRB     r0,[sp,#3]
        0x0800217c:    4668        hF      MOV      r0,sp
        0x0800217e:    f000f801    ....    BL       NVIC_Init ; 0x8002184
        0x08002182:    bd08        ..      POP      {r3,pc}
    i.NVIC_Init
    NVIC_Init
        0x08002184:    b570        p.      PUSH     {r4-r6,lr}
        0x08002186:    2100        .!      MOVS     r1,#0
        0x08002188:    2300        .#      MOVS     r3,#0
        0x0800218a:    220f        ."      MOVS     r2,#0xf
        0x0800218c:    78c4        .x      LDRB     r4,[r0,#3]
        0x0800218e:    b304        ..      CBZ      r4,0x80021d2 ; NVIC_Init + 78
        0x08002190:    4c15        .L      LDR      r4,[pc,#84] ; [0x80021e8] = 0xe000ed0c
        0x08002192:    6824        $h      LDR      r4,[r4,#0]
        0x08002194:    f40464e0    ...d    AND      r4,r4,#0x700
        0x08002198:    f5c464e0    ...d    RSB      r4,r4,#0x700
        0x0800219c:    0a21        !.      LSRS     r1,r4,#8
        0x0800219e:    f1c10304    ....    RSB      r3,r1,#4
        0x080021a2:    40ca        .@      LSRS     r2,r2,r1
        0x080021a4:    7844        Dx      LDRB     r4,[r0,#1]
        0x080021a6:    fa04f103    ....    LSL      r1,r4,r3
        0x080021aa:    7884        .x      LDRB     r4,[r0,#2]
        0x080021ac:    4014        .@      ANDS     r4,r4,r2
        0x080021ae:    4321        !C      ORRS     r1,r1,r4
        0x080021b0:    0109        ..      LSLS     r1,r1,#4
        0x080021b2:    4c0e        .L      LDR      r4,[pc,#56] ; [0x80021ec] = 0xe000e400
        0x080021b4:    7806        .x      LDRB     r6,[r0,#0]
        0x080021b6:    55a1        .U      STRB     r1,[r4,r6]
        0x080021b8:    7804        .x      LDRB     r4,[r0,#0]
        0x080021ba:    f004051f    ....    AND      r5,r4,#0x1f
        0x080021be:    2401        .$      MOVS     r4,#1
        0x080021c0:    40ac        .@      LSLS     r4,r4,r5
        0x080021c2:    7805        .x      LDRB     r5,[r0,#0]
        0x080021c4:    116d        m.      ASRS     r5,r5,#5
        0x080021c6:    00ad        ..      LSLS     r5,r5,#2
        0x080021c8:    f10525e0    ...%    ADD      r5,r5,#0xe000e000
        0x080021cc:    f8c54100    ...A    STR      r4,[r5,#0x100]
        0x080021d0:    e009        ..      B        0x80021e6 ; NVIC_Init + 98
        0x080021d2:    7804        .x      LDRB     r4,[r0,#0]
        0x080021d4:    f004051f    ....    AND      r5,r4,#0x1f
        0x080021d8:    2401        .$      MOVS     r4,#1
        0x080021da:    40ac        .@      LSLS     r4,r4,r5
        0x080021dc:    4d04        .M      LDR      r5,[pc,#16] ; [0x80021f0] = 0xe000e180
        0x080021de:    7806        .x      LDRB     r6,[r0,#0]
        0x080021e0:    1176        v.      ASRS     r6,r6,#5
        0x080021e2:    f8454026    E.&@    STR      r4,[r5,r6,LSL #2]
        0x080021e6:    bd70        p.      POP      {r4-r6,pc}
    $d
        0x080021e8:    e000ed0c    ....    DCD    3758157068
        0x080021ec:    e000e400    ....    DCD    3758154752
        0x080021f0:    e000e180    ....    DCD    3758154112
    $t
    i.NVIC_PriorityGroupConfig
    NVIC_PriorityGroupConfig
        0x080021f4:    4902        .I      LDR      r1,[pc,#8] ; [0x8002200] = 0x5fa0000
        0x080021f6:    4301        .C      ORRS     r1,r1,r0
        0x080021f8:    4a02        .J      LDR      r2,[pc,#8] ; [0x8002204] = 0xe000ed0c
        0x080021fa:    6011        .`      STR      r1,[r2,#0]
        0x080021fc:    4770        pG      BX       lr
    $d
        0x080021fe:    0000        ..      DCW    0
        0x08002200:    05fa0000    ....    DCD    100270080
        0x08002204:    e000ed0c    ....    DCD    3758157068
    $t
    i.NodeRegisterToTREE
    NodeRegisterToTREE
        0x08002208:    4904        .I      LDR      r1,[pc,#16] ; [0x800221c] = 0x20002720
        0x0800220a:    680a        .h      LDR      r2,[r1,#0]
        0x0800220c:    6809        .h      LDR      r1,[r1,#0]
        0x0800220e:    1c49        I.      ADDS     r1,r1,#1
        0x08002210:    4b02        .K      LDR      r3,[pc,#8] ; [0x800221c] = 0x20002720
        0x08002212:    6019        .`      STR      r1,[r3,#0]
        0x08002214:    1d19        ..      ADDS     r1,r3,#4
        0x08002216:    f8410022    A.".    STR      r0,[r1,r2,LSL #2]
        0x0800221a:    4770        pG      BX       lr
    $d
        0x0800221c:    20002720     '.     DCD    536880928
    $t
    i.OLEDByteSend
    OLEDByteSend
        0x08002220:    b570        p.      PUSH     {r4-r6,lr}
        0x08002222:    4604        .F      MOV      r4,r0
        0x08002224:    460d        .F      MOV      r5,r1
        0x08002226:    bf00        ..      NOP      
        0x08002228:    f44f3100    O..1    MOV      r1,#0x20000
        0x0800222c:    481c        .H      LDR      r0,[pc,#112] ; [0x80022a0] = 0x40005400
        0x0800222e:    f7fffcae    ....    BL       I2C_GetFlagStatus ; 0x8001b8e
        0x08002232:    2800        .(      CMP      r0,#0
        0x08002234:    d1f8        ..      BNE      0x8002228 ; OLEDByteSend + 8
        0x08002236:    2101        .!      MOVS     r1,#1
        0x08002238:    4819        .H      LDR      r0,[pc,#100] ; [0x80022a0] = 0x40005400
        0x0800223a:    f7fffc90    ....    BL       I2C_GenerateSTART ; 0x8001b5e
        0x0800223e:    bf00        ..      NOP      
        0x08002240:    4918        .I      LDR      r1,[pc,#96] ; [0x80022a4] = 0x30001
        0x08002242:    4817        .H      LDR      r0,[pc,#92] ; [0x80022a0] = 0x40005400
        0x08002244:    f7fffc5e    ..^.    BL       I2C_CheckEvent ; 0x8001b04
        0x08002248:    2800        .(      CMP      r0,#0
        0x0800224a:    d0f9        ..      BEQ      0x8002240 ; OLEDByteSend + 32
        0x0800224c:    2200        ."      MOVS     r2,#0
        0x0800224e:    2178        x!      MOVS     r1,#0x78
        0x08002250:    4813        .H      LDR      r0,[pc,#76] ; [0x80022a0] = 0x40005400
        0x08002252:    f7fffd2f    ../.    BL       I2C_Send7bitAddress ; 0x8001cb4
        0x08002256:    bf00        ..      NOP      
        0x08002258:    4913        .I      LDR      r1,[pc,#76] ; [0x80022a8] = 0x70082
        0x0800225a:    4811        .H      LDR      r0,[pc,#68] ; [0x80022a0] = 0x40005400
        0x0800225c:    f7fffc52    ..R.    BL       I2C_CheckEvent ; 0x8001b04
        0x08002260:    2800        .(      CMP      r0,#0
        0x08002262:    d0f9        ..      BEQ      0x8002258 ; OLEDByteSend + 56
        0x08002264:    4621        !F      MOV      r1,r4
        0x08002266:    480e        .H      LDR      r0,[pc,#56] ; [0x80022a0] = 0x40005400
        0x08002268:    f7fffd2d    ..-.    BL       I2C_SendData ; 0x8001cc6
        0x0800226c:    bf00        ..      NOP      
        0x0800226e:    490e        .I      LDR      r1,[pc,#56] ; [0x80022a8] = 0x70082
        0x08002270:    1e89        ..      SUBS     r1,r1,#2
        0x08002272:    480b        .H      LDR      r0,[pc,#44] ; [0x80022a0] = 0x40005400
        0x08002274:    f7fffc46    ..F.    BL       I2C_CheckEvent ; 0x8001b04
        0x08002278:    2800        .(      CMP      r0,#0
        0x0800227a:    d0f8        ..      BEQ      0x800226e ; OLEDByteSend + 78
        0x0800227c:    4629        )F      MOV      r1,r5
        0x0800227e:    4808        .H      LDR      r0,[pc,#32] ; [0x80022a0] = 0x40005400
        0x08002280:    f7fffd21    ..!.    BL       I2C_SendData ; 0x8001cc6
        0x08002284:    bf00        ..      NOP      
        0x08002286:    4908        .I      LDR      r1,[pc,#32] ; [0x80022a8] = 0x70082
        0x08002288:    1c89        ..      ADDS     r1,r1,#2
        0x0800228a:    4805        .H      LDR      r0,[pc,#20] ; [0x80022a0] = 0x40005400
        0x0800228c:    f7fffc3a    ..:.    BL       I2C_CheckEvent ; 0x8001b04
        0x08002290:    2800        .(      CMP      r0,#0
        0x08002292:    d0f8        ..      BEQ      0x8002286 ; OLEDByteSend + 102
        0x08002294:    2101        .!      MOVS     r1,#1
        0x08002296:    4802        .H      LDR      r0,[pc,#8] ; [0x80022a0] = 0x40005400
        0x08002298:    f7fffc6d    ..m.    BL       I2C_GenerateSTOP ; 0x8001b76
        0x0800229c:    bd70        p.      POP      {r4-r6,pc}
    $d
        0x0800229e:    0000        ..      DCW    0
        0x080022a0:    40005400    .T.@    DCD    1073763328
        0x080022a4:    00030001    ....    DCD    196609
        0x080022a8:    00070082    ....    DCD    458882
    $t
    i.OLEDCommandSend
    OLEDCommandSend
        0x080022ac:    b510        ..      PUSH     {r4,lr}
        0x080022ae:    4604        .F      MOV      r4,r0
        0x080022b0:    4621        !F      MOV      r1,r4
        0x080022b2:    2000        .       MOVS     r0,#0
        0x080022b4:    f7ffffb4    ....    BL       OLEDByteSend ; 0x8002220
        0x080022b8:    bd10        ..      POP      {r4,pc}
    i.OLEDDataSend
    OLEDDataSend
        0x080022ba:    b510        ..      PUSH     {r4,lr}
        0x080022bc:    4604        .F      MOV      r4,r0
        0x080022be:    4621        !F      MOV      r1,r4
        0x080022c0:    2040        @       MOVS     r0,#0x40
        0x080022c2:    f7ffffad    ....    BL       OLEDByteSend ; 0x8002220
        0x080022c6:    bd10        ..      POP      {r4,pc}
    i.OLEDDeviceFlush
    OLEDDeviceFlush
        0x080022c8:    b510        ..      PUSH     {r4,lr}
        0x080022ca:    4604        .F      MOV      r4,r0
        0x080022cc:    f002f866    ..f.    BL       oled_gram_refresh_dma ; 0x800439c
        0x080022d0:    bd10        ..      POP      {r4,pc}
    i.OLEDDeviceInit
    OLEDDeviceInit
        0x080022d2:    b510        ..      PUSH     {r4,lr}
        0x080022d4:    4604        .F      MOV      r4,r0
        0x080022d6:    6961        ai      LDR      r1,[r4,#0x14]
        0x080022d8:    6860        `h      LDR      r0,[r4,#4]
        0x080022da:    f002f8ad    ....    BL       oled_init ; 0x8004438
        0x080022de:    bd10        ..      POP      {r4,pc}
    i.OLEDDeviceSetPixel
    OLEDDeviceSetPixel
        0x080022e0:    e92d41f0    -..A    PUSH     {r4-r8,lr}
        0x080022e4:    4604        .F      MOV      r4,r0
        0x080022e6:    460d        .F      MOV      r5,r1
        0x080022e8:    461f        .F      MOV      r7,r3
        0x080022ea:    f8d4c004    ....    LDR      r12,[r4,#4]
        0x080022ee:    68a0        .h      LDR      r0,[r4,#8]
        0x080022f0:    42a8        .B      CMP      r0,r5
        0x080022f2:    dd06        ..      BLE      0x8002302 ; OLEDDeviceSetPixel + 34
        0x080022f4:    2d00        .-      CMP      r5,#0
        0x080022f6:    dd04        ..      BLE      0x8002302 ; OLEDDeviceSetPixel + 34
        0x080022f8:    68e0        .h      LDR      r0,[r4,#0xc]
        0x080022fa:    4290        .B      CMP      r0,r2
        0x080022fc:    dd01        ..      BLE      0x8002302 ; OLEDDeviceSetPixel + 34
        0x080022fe:    2a00        .*      CMP      r2,#0
        0x08002300:    dc03        ..      BGT      0x800230a ; OLEDDeviceSetPixel + 42
        0x08002302:    f04f30ff    O..0    MOV      r0,#0xffffffff
        0x08002306:    e8bd81f0    ....    POP      {r4-r8,pc}
        0x0800230a:    4610        .F      MOV      r0,r2
        0x0800230c:    ea4f78e2    O..x    ASR      r8,r2,#31
        0x08002310:    eb027858    ..Xx    ADD      r8,r2,r8,LSR #29
        0x08002314:    ea4f03e8    O...    ASR      r3,r8,#3
        0x08002318:    eb0c10c3    ....    ADD      r0,r12,r3,LSL #7
        0x0800231c:    1941        A.      ADDS     r1,r0,r5
        0x0800231e:    4610        .F      MOV      r0,r2
        0x08002320:    ea4f78e2    O..x    ASR      r8,r2,#31
        0x08002324:    eb027858    ..Xx    ADD      r8,r2,r8,LSR #29
        0x08002328:    ea4f08e8    O...    ASR      r8,r8,#3
        0x0800232c:    eba206c8    ....    SUB      r6,r2,r8,LSL #3
        0x08002330:    b147        G.      CBZ      r7,0x8002344 ; OLEDDeviceSetPixel + 100
        0x08002332:    7808        .x      LDRB     r0,[r1,#0]
        0x08002334:    f04f0801    O...    MOV      r8,#1
        0x08002338:    fa08f806    ....    LSL      r8,r8,r6
        0x0800233c:    ea400008    @...    ORR      r0,r0,r8
        0x08002340:    7008        .p      STRB     r0,[r1,#0]
        0x08002342:    e007        ..      B        0x8002354 ; OLEDDeviceSetPixel + 116
        0x08002344:    f8918000    ....    LDRB     r8,[r1,#0]
        0x08002348:    2001        .       MOVS     r0,#1
        0x0800234a:    40b0        .@      LSLS     r0,r0,r6
        0x0800234c:    ea280800    (...    BIC      r8,r8,r0
        0x08002350:    f8818000    ....    STRB     r8,[r1,#0]
        0x08002354:    2000        .       MOVS     r0,#0
        0x08002356:    e7d6        ..      B        0x8002306 ; OLEDDeviceSetPixel + 38
    i.OLEDInfDevInit
    OLEDInfDevInit
        0x08002358:    b570        p.      PUSH     {r4-r6,lr}
        0x0800235a:    4604        .F      MOV      r4,r0
        0x0800235c:    460d        .F      MOV      r5,r1
        0x0800235e:    f7fdffc2    ....    BL       ADDI2CDevice ; 0x80002e6
        0x08002362:    a006        ..      ADR      r0,{pc}+0x1a ; 0x800237c
        0x08002364:    f7fffa81    ....    BL       GetI2CDevice ; 0x800186a
        0x08002368:    4906        .I      LDR      r1,[pc,#24] ; [0x8002384] = 0x20000128
        0x0800236a:    6008        .`      STR      r0,[r1,#0]
        0x0800236c:    4608        .F      MOV      r0,r1
        0x0800236e:    6800        .h      LDR      r0,[r0,#0]
        0x08002370:    61c4        .a      STR      r4,[r0,#0x1c]
        0x08002372:    4608        .F      MOV      r0,r1
        0x08002374:    6800        .h      LDR      r0,[r0,#0]
        0x08002376:    6205        .b      STR      r5,[r0,#0x20]
        0x08002378:    2000        .       MOVS     r0,#0
        0x0800237a:    bd70        p.      POP      {r4-r6,pc}
    $d
        0x0800237c:    31633269    i2c1    DCD    828584553
        0x08002380:    00000000    ....    DCD    0
        0x08002384:    20000128    (..     DCD    536871208
    $t
    i.OptionControl
    OptionControl
        0x08002388:    b510        ..      PUSH     {r4,lr}
        0x0800238a:    4604        .F      MOV      r4,r0
        0x0800238c:    b124        $.      CBZ      r4,0x8002398 ; OptionControl + 16
        0x0800238e:    2c01        .,      CMP      r4,#1
        0x08002390:    d007        ..      BEQ      0x80023a2 ; OptionControl + 26
        0x08002392:    2c02        .,      CMP      r4,#2
        0x08002394:    d10f        ..      BNE      0x80023b6 ; OptionControl + 46
        0x08002396:    e009        ..      B        0x80023ac ; OptionControl + 36
        0x08002398:    4808        .H      LDR      r0,[pc,#32] ; [0x80023bc] = 0x2000070c
        0x0800239a:    6800        .h      LDR      r0,[r0,#0]
        0x0800239c:    f7fff9a2    ....    BL       GetBackOption ; 0x80016e4
        0x080023a0:    e00a        ..      B        0x80023b8 ; OptionControl + 48
        0x080023a2:    4806        .H      LDR      r0,[pc,#24] ; [0x80023bc] = 0x2000070c
        0x080023a4:    6800        .h      LDR      r0,[r0,#0]
        0x080023a6:    f7fffa9d    ....    BL       GetNextOption ; 0x80018e4
        0x080023aa:    e005        ..      B        0x80023b8 ; OptionControl + 48
        0x080023ac:    4803        .H      LDR      r0,[pc,#12] ; [0x80023bc] = 0x2000070c
        0x080023ae:    6800        .h      LDR      r0,[r0,#0]
        0x080023b0:    f7fff9fc    ....    BL       GetEnterOption ; 0x80017ac
        0x080023b4:    e000        ..      B        0x80023b8 ; OptionControl + 48
        0x080023b6:    bf00        ..      NOP      
        0x080023b8:    bf00        ..      NOP      
        0x080023ba:    bd10        ..      POP      {r4,pc}
    $d
        0x080023bc:    2000070c    ...     DCD    536872716
    $t
    i.OptionRegister
    OptionRegister
        0x080023c0:    b570        p.      PUSH     {r4-r6,lr}
        0x080023c2:    4604        .F      MOV      r4,r0
        0x080023c4:    460d        .F      MOV      r5,r1
        0x080023c6:    6025        %`      STR      r5,[r4,#0]
        0x080023c8:    1d20         .      ADDS     r0,r4,#4
        0x080023ca:    f7ffff1d    ....    BL       NodeRegisterToTREE ; 0x8002208
        0x080023ce:    4805        .H      LDR      r0,[pc,#20] ; [0x80023e4] = 0x20002774
        0x080023d0:    6801        .h      LDR      r1,[r0,#0]
        0x080023d2:    6800        .h      LDR      r0,[r0,#0]
        0x080023d4:    1c40        @.      ADDS     r0,r0,#1
        0x080023d6:    4a03        .J      LDR      r2,[pc,#12] ; [0x80023e4] = 0x20002774
        0x080023d8:    6010        .`      STR      r0,[r2,#0]
        0x080023da:    1d10        ..      ADDS     r0,r2,#4
        0x080023dc:    f8404021    @.!@    STR      r4,[r0,r1,LSL #2]
        0x080023e0:    bd70        p.      POP      {r4-r6,pc}
    $d
        0x080023e2:    0000        ..      DCW    0
        0x080023e4:    20002774    t'.     DCD    536881012
    $t
    i.PlayerAddSong
    PlayerAddSong
        0x080023e8:    4602        .F      MOV      r2,r0
        0x080023ea:    68d0        .h      LDR      r0,[r2,#0xc]
        0x080023ec:    280a        .(      CMP      r0,#0xa
        0x080023ee:    d102        ..      BNE      0x80023f6 ; PlayerAddSong + 14
        0x080023f0:    f04f30ff    O..0    MOV      r0,#0xffffffff
        0x080023f4:    4770        pG      BX       lr
        0x080023f6:    68d3        .h      LDR      r3,[r2,#0xc]
        0x080023f8:    1c58        X.      ADDS     r0,r3,#1
        0x080023fa:    60d0        .`      STR      r0,[r2,#0xc]
        0x080023fc:    f1020018    ....    ADD      r0,r2,#0x18
        0x08002400:    f8401023    @.#.    STR      r1,[r0,r3,LSL #2]
        0x08002404:    2000        .       MOVS     r0,#0
        0x08002406:    e7f5        ..      B        0x80023f4 ; PlayerAddSong + 12
    i.PlayerChooseFUN
    PlayerChooseFUN
        0x08002408:    b538        8.      PUSH     {r3-r5,lr}
        0x0800240a:    4604        .F      MOV      r4,r0
        0x0800240c:    2030        0       MOVS     r0,#0x30
        0x0800240e:    4603        .F      MOV      r3,r0
        0x08002410:    2240        @"      MOVS     r2,#0x40
        0x08002412:    2128        (!      MOVS     r1,#0x28
        0x08002414:    9000        ..      STR      r0,[sp,#0]
        0x08002416:    4806        .H      LDR      r0,[pc,#24] ; [0x8002430] = 0x20000790
        0x08002418:    6800        .h      LDR      r0,[r0,#0]
        0x0800241a:    f7fefaa3    ....    BL       ClearInDisplayDev ; 0x8000964
        0x0800241e:    4b05        .K      LDR      r3,[pc,#20] ; [0x8002434] = 0x200005e8
        0x08002420:    2238        8"      MOVS     r2,#0x38
        0x08002422:    2130        0!      MOVS     r1,#0x30
        0x08002424:    4802        .H      LDR      r0,[pc,#8] ; [0x8002430] = 0x20000790
        0x08002426:    6800        .h      LDR      r0,[r0,#0]
        0x08002428:    f000fe54    ..T.    BL       ShowGraphInDisplayDev ; 0x80030d4
        0x0800242c:    bd38        8.      POP      {r3-r5,pc}
    $d
        0x0800242e:    0000        ..      DCW    0
        0x08002430:    20000790    ...     DCD    536872848
        0x08002434:    200005e8    ...     DCD    536872424
    $t
    i.PlayerControl
    PlayerControl
        0x08002438:    b570        p.      PUSH     {r4-r6,lr}
        0x0800243a:    4604        .F      MOV      r4,r0
        0x0800243c:    460e        .F      MOV      r6,r1
        0x0800243e:    4615        .F      MOV      r5,r2
        0x08002440:    2e07        ..      CMP      r6,#7
        0x08002442:    d223        #.      BCS      0x800248c ; PlayerControl + 84
        0x08002444:    e8dff006    ....    TBB      [pc,r6]
    $d
        0x08002448:    100c0804    ....    DCD    269223940
        0x0800244c:    001f1c14    ....    DCD    2038804
    $t
        0x08002450:    4620         F      MOV      r0,r4
        0x08002452:    f000f914    ....    BL       PlayerPlay ; 0x800267e
        0x08002456:    e019        ..      B        0x800248c ; PlayerControl + 84
        0x08002458:    4620         F      MOV      r0,r4
        0x0800245a:    f000fa03    ....    BL       PlayerStop ; 0x8002864
        0x0800245e:    e015        ..      B        0x800248c ; PlayerControl + 84
        0x08002460:    4620         F      MOV      r0,r4
        0x08002462:    f000f8c9    ....    BL       PlayerLast ; 0x80025f8
        0x08002466:    e011        ..      B        0x800248c ; PlayerControl + 84
        0x08002468:    4620         F      MOV      r0,r4
        0x0800246a:    f000f8e6    ....    BL       PlayerNext ; 0x800263a
        0x0800246e:    e00d        ..      B        0x800248c ; PlayerControl + 84
        0x08002470:    6828        (h      LDR      r0,[r5,#0]
        0x08002472:    6060        ``      STR      r0,[r4,#4]
        0x08002474:    6c20         l      LDR      r0,[r4,#0x40]
        0x08002476:    1d21        !.      ADDS     r1,r4,#4
        0x08002478:    68c2        .h      LDR      r2,[r0,#0xc]
        0x0800247a:    2000        .       MOVS     r0,#0
        0x0800247c:    4790        .G      BLX      r2
        0x0800247e:    e005        ..      B        0x800248c ; PlayerControl + 84
        0x08002480:    6860        `h      LDR      r0,[r4,#4]
        0x08002482:    6028        (`      STR      r0,[r5,#0]
        0x08002484:    e002        ..      B        0x800248c ; PlayerControl + 84
        0x08002486:    7820         x      LDRB     r0,[r4,#0]
        0x08002488:    6028        (`      STR      r0,[r5,#0]
        0x0800248a:    bf00        ..      NOP      
        0x0800248c:    bf00        ..      NOP      
        0x0800248e:    2000        .       MOVS     r0,#0
        0x08002490:    bd70        p.      POP      {r4-r6,pc}
        0x08002492:    0000        ..      MOVS     r0,r0
    i.PlayerEnterFUN
    PlayerEnterFUN
        0x08002494:    b510        ..      PUSH     {r4,lr}
        0x08002496:    4604        .F      MOV      r4,r0
        0x08002498:    4804        .H      LDR      r0,[pc,#16] ; [0x80024ac] = 0x200006f4
        0x0800249a:    6800        .h      LDR      r0,[r0,#0]
        0x0800249c:    b910        ..      CBNZ     r0,0x80024a4 ; PlayerEnterFUN + 16
        0x0800249e:    a004        ..      ADR      r0,{pc}+0x12 ; 0x80024b0
        0x080024a0:    f001f954    ..T.    BL       __0printf$3 ; 0x800374c
        0x080024a4:    2001        .       MOVS     r0,#1
        0x080024a6:    4901        .I      LDR      r1,[pc,#4] ; [0x80024ac] = 0x200006f4
        0x080024a8:    6008        .`      STR      r0,[r1,#0]
        0x080024aa:    bd10        ..      POP      {r4,pc}
    $d
        0x080024ac:    200006f4    ...     DCD    536872692
        0x080024b0:    bccaaabf    ....    DCD    3167398591
        0x080024b4:    c5b7a5b2    ....    DCD    3317147058
        0x080024b8:    fac7e8b8    ....    DCD    4207405240
        0x080024bc:    000a0d2e    ....    DCD    658734
    $t
    i.PlayerFirstKeyLongPressFun
    PlayerFirstKeyLongPressFun
        0x080024c0:    b510        ..      PUSH     {r4,lr}
        0x080024c2:    a009        ..      ADR      r0,{pc}+0x26 ; 0x80024e8
        0x080024c4:    f001f942    ..B.    BL       __0printf$3 ; 0x800374c
        0x080024c8:    480f        .H      LDR      r0,[pc,#60] ; [0x8002508] = 0x20000710
        0x080024ca:    6800        .h      LDR      r0,[r0,#0]
        0x080024cc:    1e40        @.      SUBS     r0,r0,#1
        0x080024ce:    490e        .I      LDR      r1,[pc,#56] ; [0x8002508] = 0x20000710
        0x080024d0:    6008        .`      STR      r0,[r1,#0]
        0x080024d2:    4608        .F      MOV      r0,r1
        0x080024d4:    6800        .h      LDR      r0,[r0,#0]
        0x080024d6:    2800        .(      CMP      r0,#0
        0x080024d8:    da01        ..      BGE      0x80024de ; PlayerFirstKeyLongPressFun + 30
        0x080024da:    2000        .       MOVS     r0,#0
        0x080024dc:    6008        .`      STR      r0,[r1,#0]
        0x080024de:    490a        .I      LDR      r1,[pc,#40] ; [0x8002508] = 0x20000710
        0x080024e0:    2004        .       MOVS     r0,#4
        0x080024e2:    f7fefbd1    ....    BL       DefaultPlayerControl ; 0x8000c88
        0x080024e6:    bd10        ..      POP      {r4,pc}
    $d
        0x080024e8:    c5b7a5b2    ....    DCD    3317147058
        0x080024ec:    b4d7f7c6    ....    DCD    3034052550
        0x080024f0:    c2cfaccc    ....    DCD    3268390092
        0x080024f4:    d2dab53a    :...    DCD    3537548602
        0x080024f8:    b0f6b8bb    ....    DCD    2968959163
        0x080024fc:    b3fcbcb4    ....    DCD    3019685044
        0x08002500:    2eb4b0a4    ....    DCD    783593636
        0x08002504:    00000a0d    ....    DCD    2573
        0x08002508:    20000710    ...     DCD    536872720
    $t
    i.PlayerFirstKeyShortPressFun
    PlayerFirstKeyShortPressFun
        0x0800250c:    b510        ..      PUSH     {r4,lr}
        0x0800250e:    a004        ..      ADR      r0,{pc}+0x12 ; 0x8002520
        0x08002510:    f001f91c    ....    BL       __0printf$3 ; 0x800374c
        0x08002514:    490a        .I      LDR      r1,[pc,#40] ; [0x8002540] = 0x20000710
        0x08002516:    2002        .       MOVS     r0,#2
        0x08002518:    f7fefbb6    ....    BL       DefaultPlayerControl ; 0x8000c88
        0x0800251c:    bd10        ..      POP      {r4,pc}
    $d
        0x0800251e:    0000        ..      DCW    0
        0x08002520:    c5b7a5b2    ....    DCD    3317147058
        0x08002524:    b4d7f7c6    ....    DCD    3034052550
        0x08002528:    c2cfaccc    ....    DCD    3268390092
        0x0800252c:    d2dab53a    :...    DCD    3537548602
        0x08002530:    b0f6b8bb    ....    DCD    2968959163
        0x08002534:    b6fcbcb4    ....    DCD    3070016692
        0x08002538:    2eb4b0cc    ....    DCD    783593676
        0x0800253c:    00000a0d    ....    DCD    2573
        0x08002540:    20000710    ...     DCD    536872720
    $t
    i.PlayerInit
    PlayerInit
        0x08002544:    b510        ..      PUSH     {r4,lr}
        0x08002546:    481c        .H      LDR      r0,[pc,#112] ; [0x80025b8] = 0x8003bd9
        0x08002548:    491c        .I      LDR      r1,[pc,#112] ; [0x80025bc] = 0x200026a4
        0x0800254a:    6008        .`      STR      r0,[r1,#0]
        0x0800254c:    481c        .H      LDR      r0,[pc,#112] ; [0x80025c0] = 0x8003c09
        0x0800254e:    6048        H`      STR      r0,[r1,#4]
        0x08002550:    481c        .H      LDR      r0,[pc,#112] ; [0x80025c4] = 0x8003b81
        0x08002552:    6088        .`      STR      r0,[r1,#8]
        0x08002554:    481c        .H      LDR      r0,[pc,#112] ; [0x80025c8] = 0x8003ba9
        0x08002556:    60c8        .`      STR      r0,[r1,#0xc]
        0x08002558:    481c        .H      LDR      r0,[pc,#112] ; [0x80025cc] = 0x8003c21
        0x0800255a:    6108        .a      STR      r0,[r1,#0x10]
        0x0800255c:    481c        .H      LDR      r0,[pc,#112] ; [0x80025d0] = 0x8003d4b
        0x0800255e:    491d        .I      LDR      r1,[pc,#116] ; [0x80025d4] = 0x200026b8
        0x08002560:    6008        .`      STR      r0,[r1,#0]
        0x08002562:    481d        .H      LDR      r0,[pc,#116] ; [0x80025d8] = 0x8003d27
        0x08002564:    6048        H`      STR      r0,[r1,#4]
        0x08002566:    481d        .H      LDR      r0,[pc,#116] ; [0x80025dc] = 0x8003d55
        0x08002568:    6088        .`      STR      r0,[r1,#8]
        0x0800256a:    4814        .H      LDR      r0,[pc,#80] ; [0x80025bc] = 0x200026a4
        0x0800256c:    491c        .I      LDR      r1,[pc,#112] ; [0x80025e0] = 0x200026c4
        0x0800256e:    6408        .d      STR      r0,[r1,#0x40]
        0x08002570:    4818        .H      LDR      r0,[pc,#96] ; [0x80025d4] = 0x200026b8
        0x08002572:    6448        Hd      STR      r0,[r1,#0x44]
        0x08002574:    491b        .I      LDR      r1,[pc,#108] ; [0x80025e4] = 0x8004f54
        0x08002576:    481a        .H      LDR      r0,[pc,#104] ; [0x80025e0] = 0x200026c4
        0x08002578:    f7ffff36    ..6.    BL       PlayerAddSong ; 0x80023e8
        0x0800257c:    491a        .I      LDR      r1,[pc,#104] ; [0x80025e8] = 0x8005166
        0x0800257e:    4818        .H      LDR      r0,[pc,#96] ; [0x80025e0] = 0x200026c4
        0x08002580:    f7ffff32    ..2.    BL       PlayerAddSong ; 0x80023e8
        0x08002584:    4919        .I      LDR      r1,[pc,#100] ; [0x80025ec] = 0x8005378
        0x08002586:    4816        .H      LDR      r0,[pc,#88] ; [0x80025e0] = 0x200026c4
        0x08002588:    f7ffff2e    ....    BL       PlayerAddSong ; 0x80023e8
        0x0800258c:    4918        .I      LDR      r1,[pc,#96] ; [0x80025f0] = 0x800558a
        0x0800258e:    4814        .H      LDR      r0,[pc,#80] ; [0x80025e0] = 0x200026c4
        0x08002590:    f7ffff2a    ..*.    BL       PlayerAddSong ; 0x80023e8
        0x08002594:    4917        .I      LDR      r1,[pc,#92] ; [0x80025f4] = 0x800579c
        0x08002596:    4812        .H      LDR      r0,[pc,#72] ; [0x80025e0] = 0x200026c4
        0x08002598:    f7ffff26    ..&.    BL       PlayerAddSong ; 0x80023e8
        0x0800259c:    4810        .H      LDR      r0,[pc,#64] ; [0x80025e0] = 0x200026c4
        0x0800259e:    f000f92d    ..-.    BL       PlayerStart ; 0x80027fc
        0x080025a2:    2200        ."      MOVS     r2,#0
        0x080025a4:    4611        .F      MOV      r1,r2
        0x080025a6:    480e        .H      LDR      r0,[pc,#56] ; [0x80025e0] = 0x200026c4
        0x080025a8:    f7ffff46    ..F.    BL       PlayerControl ; 0x8002438
        0x080025ac:    480c        .H      LDR      r0,[pc,#48] ; [0x80025e0] = 0x200026c4
        0x080025ae:    f000f89f    ....    BL       PlayerShow ; 0x80026f0
        0x080025b2:    480b        .H      LDR      r0,[pc,#44] ; [0x80025e0] = 0x200026c4
        0x080025b4:    bd10        ..      POP      {r4,pc}
    $d
        0x080025b6:    0000        ..      DCW    0
        0x080025b8:    08003bd9    .;..    DCD    134233049
        0x080025bc:    200026a4    .&.     DCD    536880804
        0x080025c0:    08003c09    .<..    DCD    134233097
        0x080025c4:    08003b81    .;..    DCD    134232961
        0x080025c8:    08003ba9    .;..    DCD    134233001
        0x080025cc:    08003c21    !<..    DCD    134233121
        0x080025d0:    08003d4b    K=..    DCD    134233419
        0x080025d4:    200026b8    .&.     DCD    536880824
        0x080025d8:    08003d27    '=..    DCD    134233383
        0x080025dc:    08003d55    U=..    DCD    134233429
        0x080025e0:    200026c4    .&.     DCD    536880836
        0x080025e4:    08004f54    TO..    DCD    134238036
        0x080025e8:    08005166    fQ..    DCD    134238566
        0x080025ec:    08005378    xS..    DCD    134239096
        0x080025f0:    0800558a    .U..    DCD    134239626
        0x080025f4:    0800579c    .W..    DCD    134240156
    $t
    i.PlayerLast
    PlayerLast
        0x080025f8:    b538        8.      PUSH     {r3-r5,lr}
        0x080025fa:    4604        .F      MOV      r4,r0
        0x080025fc:    68a0        .h      LDR      r0,[r4,#8]
        0x080025fe:    2801        .(      CMP      r0,#1
        0x08002600:    dd03        ..      BLE      0x800260a ; PlayerLast + 18
        0x08002602:    68a0        .h      LDR      r0,[r4,#8]
        0x08002604:    1e40        @.      SUBS     r0,r0,#1
        0x08002606:    60a0        .`      STR      r0,[r4,#8]
        0x08002608:    e001        ..      B        0x800260e ; PlayerLast + 22
        0x0800260a:    68e0        .h      LDR      r0,[r4,#0xc]
        0x0800260c:    60a0        .`      STR      r0,[r4,#8]
        0x0800260e:    2000        .       MOVS     r0,#0
        0x08002610:    6120         a      STR      r0,[r4,#0x10]
        0x08002612:    68a1        .h      LDR      r1,[r4,#8]
        0x08002614:    1e49        I.      SUBS     r1,r1,#1
        0x08002616:    f1040218    ....    ADD      r2,r4,#0x18
        0x0800261a:    f8520021    R.!.    LDR      r0,[r2,r1,LSL #2]
        0x0800261e:    6c61        al      LDR      r1,[r4,#0x44]
        0x08002620:    466a        jF      MOV      r2,sp
        0x08002622:    684b        Kh      LDR      r3,[r1,#4]
        0x08002624:    2101        .!      MOVS     r1,#1
        0x08002626:    4798        .G      BLX      r3
        0x08002628:    9800        ..      LDR      r0,[sp,#0]
        0x0800262a:    6160        `a      STR      r0,[r4,#0x14]
        0x0800262c:    7820         x      LDRB     r0,[r4,#0]
        0x0800262e:    b110        ..      CBZ      r0,0x8002636 ; PlayerLast + 62
        0x08002630:    4620         F      MOV      r0,r4
        0x08002632:    f000f824    ..$.    BL       PlayerPlay ; 0x800267e
        0x08002636:    2000        .       MOVS     r0,#0
        0x08002638:    bd38        8.      POP      {r3-r5,pc}
    i.PlayerNext
    PlayerNext
        0x0800263a:    b538        8.      PUSH     {r3-r5,lr}
        0x0800263c:    4604        .F      MOV      r4,r0
        0x0800263e:    e9d40102    ....    LDRD     r0,r1,[r4,#8]
        0x08002642:    4288        .B      CMP      r0,r1
        0x08002644:    da03        ..      BGE      0x800264e ; PlayerNext + 20
        0x08002646:    68a0        .h      LDR      r0,[r4,#8]
        0x08002648:    1c40        @.      ADDS     r0,r0,#1
        0x0800264a:    60a0        .`      STR      r0,[r4,#8]
        0x0800264c:    e001        ..      B        0x8002652 ; PlayerNext + 24
        0x0800264e:    2001        .       MOVS     r0,#1
        0x08002650:    60a0        .`      STR      r0,[r4,#8]
        0x08002652:    2000        .       MOVS     r0,#0
        0x08002654:    6120         a      STR      r0,[r4,#0x10]
        0x08002656:    68a1        .h      LDR      r1,[r4,#8]
        0x08002658:    1e49        I.      SUBS     r1,r1,#1
        0x0800265a:    f1040218    ....    ADD      r2,r4,#0x18
        0x0800265e:    f8520021    R.!.    LDR      r0,[r2,r1,LSL #2]
        0x08002662:    6c61        al      LDR      r1,[r4,#0x44]
        0x08002664:    466a        jF      MOV      r2,sp
        0x08002666:    684b        Kh      LDR      r3,[r1,#4]
        0x08002668:    2101        .!      MOVS     r1,#1
        0x0800266a:    4798        .G      BLX      r3
        0x0800266c:    9800        ..      LDR      r0,[sp,#0]
        0x0800266e:    6160        `a      STR      r0,[r4,#0x14]
        0x08002670:    7820         x      LDRB     r0,[r4,#0]
        0x08002672:    b110        ..      CBZ      r0,0x800267a ; PlayerNext + 64
        0x08002674:    4620         F      MOV      r0,r4
        0x08002676:    f000f802    ....    BL       PlayerPlay ; 0x800267e
        0x0800267a:    2000        .       MOVS     r0,#0
        0x0800267c:    bd38        8.      POP      {r3-r5,pc}
    i.PlayerPlay
    PlayerPlay
        0x0800267e:    4601        .F      MOV      r1,r0
        0x08002680:    7808        .x      LDRB     r0,[r1,#0]
        0x08002682:    b108        ..      CBZ      r0,0x8002688 ; PlayerPlay + 10
        0x08002684:    2000        .       MOVS     r0,#0
        0x08002686:    7008        .p      STRB     r0,[r1,#0]
        0x08002688:    2000        .       MOVS     r0,#0
        0x0800268a:    4770        pG      BX       lr
    i.PlayerSecondKeyLongPressFun
    PlayerSecondKeyLongPressFun
        0x0800268c:    b510        ..      PUSH     {r4,lr}
        0x0800268e:    a002        ..      ADR      r0,{pc}+0xa ; 0x8002698
        0x08002690:    f001f85c    ..\.    BL       __0printf$3 ; 0x800374c
        0x08002694:    bd10        ..      POP      {r4,pc}
    $d
        0x08002696:    0000        ..      DCW    0
        0x08002698:    c5b7a5b2    ....    DCD    3317147058
        0x0800269c:    b4d7f7c6    ....    DCD    3034052550
        0x080026a0:    c2cfaccc    ....    DCD    3268390092
        0x080026a4:    b6dab53a    :...    DCD    3067786554
        0x080026a8:    b0f6b8fe    ....    DCD    2968959230
        0x080026ac:    b3fcbcb4    ....    DCD    3019685044
        0x080026b0:    2eb4b0a4    ....    DCD    783593636
        0x080026b4:    00000a0d    ....    DCD    2573
    $t
    i.PlayerSecondKeyShortPressFun
    PlayerSecondKeyShortPressFun
        0x080026b8:    b510        ..      PUSH     {r4,lr}
        0x080026ba:    a004        ..      ADR      r0,{pc}+0x12 ; 0x80026cc
        0x080026bc:    f001f846    ..F.    BL       __0printf$3 ; 0x800374c
        0x080026c0:    490a        .I      LDR      r1,[pc,#40] ; [0x80026ec] = 0x20000710
        0x080026c2:    2001        .       MOVS     r0,#1
        0x080026c4:    f7fefae0    ....    BL       DefaultPlayerControl ; 0x8000c88
        0x080026c8:    bd10        ..      POP      {r4,pc}
    $d
        0x080026ca:    0000        ..      DCW    0
        0x080026cc:    c5b7a5b2    ....    DCD    3317147058
        0x080026d0:    b4d7f7c6    ....    DCD    3034052550
        0x080026d4:    c2cfaccc    ....    DCD    3268390092
        0x080026d8:    b6dab53a    :...    DCD    3067786554
        0x080026dc:    b0f6b8fe    ....    DCD    2968959230
        0x080026e0:    b6fcbcb4    ....    DCD    3070016692
        0x080026e4:    2eb4b0cc    ....    DCD    783593676
        0x080026e8:    00000a0d    ....    DCD    2573
        0x080026ec:    20000710    ...     DCD    536872720
    $t
    i.PlayerShow
    PlayerShow
        0x080026f0:    b570        p.      PUSH     {r4-r6,lr}
        0x080026f2:    b086        ..      SUB      sp,sp,#0x18
        0x080026f4:    4604        .F      MOV      r4,r0
        0x080026f6:    2500        .%      MOVS     r5,#0
        0x080026f8:    e00e        ..      B        0x8002718 ; PlayerShow + 40
        0x080026fa:    f1040118    ....    ADD      r1,r4,#0x18
        0x080026fe:    f8510025    Q.%.    LDR      r0,[r1,r5,LSL #2]
        0x08002702:    6c61        al      LDR      r1,[r4,#0x44]
        0x08002704:    466a        jF      MOV      r2,sp
        0x08002706:    684b        Kh      LDR      r3,[r1,#4]
        0x08002708:    2100        .!      MOVS     r1,#0
        0x0800270a:    4798        .G      BLX      r3
        0x0800270c:    466a        jF      MOV      r2,sp
        0x0800270e:    4629        )F      MOV      r1,r5
        0x08002710:    a019        ..      ADR      r0,{pc}+0x68 ; 0x8002778
        0x08002712:    f001f81b    ....    BL       __0printf$3 ; 0x800374c
        0x08002716:    1c6d        m.      ADDS     r5,r5,#1
        0x08002718:    68e0        .h      LDR      r0,[r4,#0xc]
        0x0800271a:    42a8        .B      CMP      r0,r5
        0x0800271c:    dced        ..      BGT      0x80026fa ; PlayerShow + 10
        0x0800271e:    7820         x      LDRB     r0,[r4,#0]
        0x08002720:    b918        ..      CBNZ     r0,0x800272a ; PlayerShow + 58
        0x08002722:    a017        ..      ADR      r0,{pc}+0x5e ; 0x8002780
        0x08002724:    f001f812    ....    BL       __0printf$3 ; 0x800374c
        0x08002728:    e002        ..      B        0x8002730 ; PlayerShow + 64
        0x0800272a:    a01a        ..      ADR      r0,{pc}+0x6a ; 0x8002794
        0x0800272c:    f001f80e    ....    BL       __0printf$3 ; 0x800374c
        0x08002730:    68a1        .h      LDR      r1,[r4,#8]
        0x08002732:    1e49        I.      SUBS     r1,r1,#1
        0x08002734:    f1040218    ....    ADD      r2,r4,#0x18
        0x08002738:    f8520021    R.!.    LDR      r0,[r2,r1,LSL #2]
        0x0800273c:    6c61        al      LDR      r1,[r4,#0x44]
        0x0800273e:    466a        jF      MOV      r2,sp
        0x08002740:    684b        Kh      LDR      r3,[r1,#4]
        0x08002742:    2100        .!      MOVS     r1,#0
        0x08002744:    4798        .G      BLX      r3
        0x08002746:    4669        iF      MOV      r1,sp
        0x08002748:    a017        ..      ADR      r0,{pc}+0x60 ; 0x80027a8
        0x0800274a:    f000ffff    ....    BL       __0printf$3 ; 0x800374c
        0x0800274e:    a017        ..      ADR      r0,{pc}+0x5e ; 0x80027ac
        0x08002750:    f000fffc    ....    BL       __0printf$3 ; 0x800374c
        0x08002754:    2164        d!      MOVS     r1,#0x64
        0x08002756:    6920         i      LDR      r0,[r4,#0x10]
        0x08002758:    4348        HC      MULS     r0,r1,r0
        0x0800275a:    6961        ai      LDR      r1,[r4,#0x14]
        0x0800275c:    fb90f6f1    ....    SDIV     r6,r0,r1
        0x08002760:    4631        1F      MOV      r1,r6
        0x08002762:    a015        ..      ADR      r0,{pc}+0x56 ; 0x80027b8
        0x08002764:    6862        bh      LDR      r2,[r4,#4]
        0x08002766:    f000fff1    ....    BL       __0printf$3 ; 0x800374c
        0x0800276a:    a01a        ..      ADR      r0,{pc}+0x6a ; 0x80027d4
        0x0800276c:    f000ffee    ....    BL       __0printf$3 ; 0x800374c
        0x08002770:    2000        .       MOVS     r0,#0
        0x08002772:    b006        ..      ADD      sp,sp,#0x18
        0x08002774:    bd70        p.      POP      {r4-r6,pc}
    $d
        0x08002776:    0000        ..      DCW    0
        0x08002778:    253a6425    %d:%    DCD    624583717
        0x0800277c:    000a0d73    s...    DCD    658803
        0x08002780:    2d2d2d3c    <---    DCD    757935420
        0x08002784:    d5202d2d    -- .    DCD    3575655725
        0x08002788:    b2dad4fd    ....    DCD    3000685821
        0x0800278c:    3ac5b7a5    ...:    DCD    986036133
        0x08002790:    00000000    ....    DCD    0
        0x08002794:    2d2d2d3c    <---    DCD    757935420
        0x08002798:    d4202d2d    -- .    DCD    3558878509
        0x0800279c:    b2a3cddd    ....    DCD    2997079517
        0x080027a0:    3ac5b7a5    ...:    DCD    986036133
        0x080027a4:    00000000    ....    DCD    0
        0x080027a8:    00007325    %s..    DCD    29477
        0x080027ac:    2d2d2d20     ---    DCD    757935392
        0x080027b0:    0a0d3e2d    ->..    DCD    168640045
        0x080027b4:    00000000    ....    DCD    0
        0x080027b8:    c5b7a5b2    ....    DCD    3317147058
        0x080027bc:    c8b6f8bd    ....    DCD    3367434429
        0x080027c0:    2564253a    :%d%    DCD    627320122
        0x080027c4:    f4d22025    % ..    DCD    4107411493
        0x080027c8:    253abfc1    ..:%    DCD    624607169
        0x080027cc:    0d252564    d%%.    DCD    220538212
        0x080027d0:    00002e0a    ....    DCD    11786
        0x080027d4:    2a2a2a2a    ****    DCD    707406378
        0x080027d8:    2a2a2a2a    ****    DCD    707406378
        0x080027dc:    2a2a2a2a    ****    DCD    707406378
        0x080027e0:    2a2a2a2a    ****    DCD    707406378
        0x080027e4:    2a2a2a2a    ****    DCD    707406378
        0x080027e8:    2a2a2a2a    ****    DCD    707406378
        0x080027ec:    2a2a2a2a    ****    DCD    707406378
        0x080027f0:    2a2a2a2a    ****    DCD    707406378
        0x080027f4:    0d2a2a2a    ***.    DCD    220867114
        0x080027f8:    0000000a    ....    DCD    10
    $t
    i.PlayerStart
    PlayerStart
        0x080027fc:    b538        8.      PUSH     {r3-r5,lr}
        0x080027fe:    4604        .F      MOV      r4,r0
        0x08002800:    4817        .H      LDR      r0,[pc,#92] ; [0x8002860] = 0x20000178
        0x08002802:    6800        .h      LDR      r0,[r0,#0]
        0x08002804:    b110        ..      CBZ      r0,0x800280c ; PlayerStart + 16
        0x08002806:    f04f30ff    O..0    MOV      r0,#0xffffffff
        0x0800280a:    bd38        8.      POP      {r3-r5,pc}
        0x0800280c:    68e0        .h      LDR      r0,[r4,#0xc]
        0x0800280e:    b910        ..      CBNZ     r0,0x8002816 ; PlayerStart + 26
        0x08002810:    f04f30ff    O..0    MOV      r0,#0xffffffff
        0x08002814:    e7f9        ..      B        0x800280a ; PlayerStart + 14
        0x08002816:    6c61        al      LDR      r1,[r4,#0x44]
        0x08002818:    6808        .h      LDR      r0,[r1,#0]
        0x0800281a:    4780        .G      BLX      r0
        0x0800281c:    2001        .       MOVS     r0,#1
        0x0800281e:    7020         p      STRB     r0,[r4,#0]
        0x08002820:    2032        2       MOVS     r0,#0x32
        0x08002822:    6060        ``      STR      r0,[r4,#4]
        0x08002824:    2001        .       MOVS     r0,#1
        0x08002826:    60a0        .`      STR      r0,[r4,#8]
        0x08002828:    2000        .       MOVS     r0,#0
        0x0800282a:    6120         a      STR      r0,[r4,#0x10]
        0x0800282c:    68a1        .h      LDR      r1,[r4,#8]
        0x0800282e:    1e49        I.      SUBS     r1,r1,#1
        0x08002830:    f1040218    ....    ADD      r2,r4,#0x18
        0x08002834:    f8520021    R.!.    LDR      r0,[r2,r1,LSL #2]
        0x08002838:    6c61        al      LDR      r1,[r4,#0x44]
        0x0800283a:    466a        jF      MOV      r2,sp
        0x0800283c:    684b        Kh      LDR      r3,[r1,#4]
        0x0800283e:    2101        .!      MOVS     r1,#1
        0x08002840:    4798        .G      BLX      r3
        0x08002842:    9800        ..      LDR      r0,[sp,#0]
        0x08002844:    6160        `a      STR      r0,[r4,#0x14]
        0x08002846:    6c21        !l      LDR      r1,[r4,#0x40]
        0x08002848:    6808        .h      LDR      r0,[r1,#0]
        0x0800284a:    4780        .G      BLX      r0
        0x0800284c:    6c20         l      LDR      r0,[r4,#0x40]
        0x0800284e:    1d21        !.      ADDS     r1,r4,#4
        0x08002850:    68c2        .h      LDR      r2,[r0,#0xc]
        0x08002852:    2000        .       MOVS     r0,#0
        0x08002854:    4790        .G      BLX      r2
        0x08002856:    2001        .       MOVS     r0,#1
        0x08002858:    4901        .I      LDR      r1,[pc,#4] ; [0x8002860] = 0x20000178
        0x0800285a:    6008        .`      STR      r0,[r1,#0]
        0x0800285c:    2000        .       MOVS     r0,#0
        0x0800285e:    e7d4        ..      B        0x800280a ; PlayerStart + 14
    $d
        0x08002860:    20000178    x..     DCD    536871288
    $t
    i.PlayerStop
    PlayerStop
        0x08002864:    4601        .F      MOV      r1,r0
        0x08002866:    7808        .x      LDRB     r0,[r1,#0]
        0x08002868:    2801        .(      CMP      r0,#1
        0x0800286a:    d001        ..      BEQ      0x8002870 ; PlayerStop + 12
        0x0800286c:    2001        .       MOVS     r0,#1
        0x0800286e:    7008        .p      STRB     r0,[r1,#0]
        0x08002870:    2000        .       MOVS     r0,#0
        0x08002872:    4770        pG      BX       lr
    i.PlayerThirdKeyLongPressFun
    PlayerThirdKeyLongPressFun
        0x08002874:    b510        ..      PUSH     {r4,lr}
        0x08002876:    a009        ..      ADR      r0,{pc}+0x26 ; 0x800289c
        0x08002878:    f000ff68    ..h.    BL       __0printf$3 ; 0x800374c
        0x0800287c:    480f        .H      LDR      r0,[pc,#60] ; [0x80028bc] = 0x20000710
        0x0800287e:    6800        .h      LDR      r0,[r0,#0]
        0x08002880:    1c40        @.      ADDS     r0,r0,#1
        0x08002882:    490e        .I      LDR      r1,[pc,#56] ; [0x80028bc] = 0x20000710
        0x08002884:    6008        .`      STR      r0,[r1,#0]
        0x08002886:    4608        .F      MOV      r0,r1
        0x08002888:    6800        .h      LDR      r0,[r0,#0]
        0x0800288a:    2864        d(      CMP      r0,#0x64
        0x0800288c:    dd01        ..      BLE      0x8002892 ; PlayerThirdKeyLongPressFun + 30
        0x0800288e:    2064        d       MOVS     r0,#0x64
        0x08002890:    6008        .`      STR      r0,[r1,#0]
        0x08002892:    490a        .I      LDR      r1,[pc,#40] ; [0x80028bc] = 0x20000710
        0x08002894:    2004        .       MOVS     r0,#4
        0x08002896:    f7fef9f7    ....    BL       DefaultPlayerControl ; 0x8000c88
        0x0800289a:    bd10        ..      POP      {r4,pc}
    $d
        0x0800289c:    c5b7a5b2    ....    DCD    3317147058
        0x080028a0:    b4d7f7c6    ....    DCD    3034052550
        0x080028a4:    c2cfaccc    ....    DCD    3268390092
        0x080028a8:    c8dab53a    :...    DCD    3369776442
        0x080028ac:    b0f6b8fd    ....    DCD    2968959229
        0x080028b0:    b3fcbcb4    ....    DCD    3019685044
        0x080028b4:    2eb4b0a4    ....    DCD    783593636
        0x080028b8:    00000a0d    ....    DCD    2573
        0x080028bc:    20000710    ...     DCD    536872720
    $t
    i.PlayerThirdKeyShortPressFun
    PlayerThirdKeyShortPressFun
        0x080028c0:    b510        ..      PUSH     {r4,lr}
        0x080028c2:    a004        ..      ADR      r0,{pc}+0x12 ; 0x80028d4
        0x080028c4:    f000ff42    ..B.    BL       __0printf$3 ; 0x800374c
        0x080028c8:    490a        .I      LDR      r1,[pc,#40] ; [0x80028f4] = 0x20000710
        0x080028ca:    2003        .       MOVS     r0,#3
        0x080028cc:    f7fef9dc    ....    BL       DefaultPlayerControl ; 0x8000c88
        0x080028d0:    bd10        ..      POP      {r4,pc}
    $d
        0x080028d2:    0000        ..      DCW    0
        0x080028d4:    c5b7a5b2    ....    DCD    3317147058
        0x080028d8:    b4d7f7c6    ....    DCD    3034052550
        0x080028dc:    c2cfaccc    ....    DCD    3268390092
        0x080028e0:    c8dab53a    :...    DCD    3369776442
        0x080028e4:    b0f6b8fd    ....    DCD    2968959229
        0x080028e8:    b6fcbcb4    ....    DCD    3070016692
        0x080028ec:    2eb4b0cc    ....    DCD    783593676
        0x080028f0:    00000a0d    ....    DCD    2573
        0x080028f4:    20000710    ...     DCD    536872720
    $t
    i.PlayerThreadEntry
    PlayerThreadEntry
        0x080028f8:    b094        ..      SUB      sp,sp,#0x50
        0x080028fa:    f7fffe23    ..#.    BL       PlayerInit ; 0x8002544
        0x080028fe:    4929        )I      LDR      r1,[pc,#164] ; [0x80029a4] = 0x20000174
        0x08002900:    6008        .`      STR      r0,[r1,#0]
        0x08002902:    a029        ).      ADR      r0,{pc}+0xa6 ; 0x80029a8
        0x08002904:    f000ff22    ..".    BL       __0printf$3 ; 0x800374c
        0x08002908:    e04b        K.      B        0x80029a2 ; PlayerThreadEntry + 170
        0x0800290a:    4826        &H      LDR      r0,[pc,#152] ; [0x80029a4] = 0x20000174
        0x0800290c:    6800        .h      LDR      r0,[r0,#0]
        0x0800290e:    7800        .x      LDRB     r0,[r0,#0]
        0x08002910:    2800        .(      CMP      r0,#0
        0x08002912:    d13e        >.      BNE      0x8002992 ; PlayerThreadEntry + 154
        0x08002914:    4823        #H      LDR      r0,[pc,#140] ; [0x80029a4] = 0x20000174
        0x08002916:    6800        .h      LDR      r0,[r0,#0]
        0x08002918:    6940        @i      LDR      r0,[r0,#0x14]
        0x0800291a:    4922        "I      LDR      r1,[pc,#136] ; [0x80029a4] = 0x20000174
        0x0800291c:    6809        .h      LDR      r1,[r1,#0]
        0x0800291e:    6909        .i      LDR      r1,[r1,#0x10]
        0x08002920:    1a44        D.      SUBS     r4,r0,r1
        0x08002922:    2c14        .,      CMP      r4,#0x14
        0x08002924:    dd00        ..      BLE      0x8002928 ; PlayerThreadEntry + 48
        0x08002926:    2414        .$      MOVS     r4,#0x14
        0x08002928:    4a1e        .J      LDR      r2,[pc,#120] ; [0x80029a4] = 0x20000174
        0x0800292a:    6812        .h      LDR      r2,[r2,#0]
        0x0800292c:    6911        .i      LDR      r1,[r2,#0x10]
        0x0800292e:    4a1d        .J      LDR      r2,[pc,#116] ; [0x80029a4] = 0x20000174
        0x08002930:    6812        .h      LDR      r2,[r2,#0]
        0x08002932:    6892        .h      LDR      r2,[r2,#8]
        0x08002934:    1e52        R.      SUBS     r2,r2,#1
        0x08002936:    4b1b        .K      LDR      r3,[pc,#108] ; [0x80029a4] = 0x20000174
        0x08002938:    681b        .h      LDR      r3,[r3,#0]
        0x0800293a:    3318        .3      ADDS     r3,r3,#0x18
        0x0800293c:    f8530022    S.".    LDR      r0,[r3,r2,LSL #2]
        0x08002940:    4a18        .J      LDR      r2,[pc,#96] ; [0x80029a4] = 0x20000174
        0x08002942:    6812        .h      LDR      r2,[r2,#0]
        0x08002944:    6c52        Rl      LDR      r2,[r2,#0x44]
        0x08002946:    4623        #F      MOV      r3,r4
        0x08002948:    6895        .h      LDR      r5,[r2,#8]
        0x0800294a:    466a        jF      MOV      r2,sp
        0x0800294c:    47a8        .G      BLX      r5
        0x0800294e:    4604        .F      MOV      r4,r0
        0x08002950:    2c00        .,      CMP      r4,#0
        0x08002952:    dd0d        ..      BLE      0x8002970 ; PlayerThreadEntry + 120
        0x08002954:    4813        .H      LDR      r0,[pc,#76] ; [0x80029a4] = 0x20000174
        0x08002956:    6800        .h      LDR      r0,[r0,#0]
        0x08002958:    6c00        .l      LDR      r0,[r0,#0x40]
        0x0800295a:    4621        !F      MOV      r1,r4
        0x0800295c:    6902        .i      LDR      r2,[r0,#0x10]
        0x0800295e:    4668        hF      MOV      r0,sp
        0x08002960:    4790        .G      BLX      r2
        0x08002962:    4810        .H      LDR      r0,[pc,#64] ; [0x80029a4] = 0x20000174
        0x08002964:    6800        .h      LDR      r0,[r0,#0]
        0x08002966:    6900        .i      LDR      r0,[r0,#0x10]
        0x08002968:    4420         D      ADD      r0,r0,r4
        0x0800296a:    490e        .I      LDR      r1,[pc,#56] ; [0x80029a4] = 0x20000174
        0x0800296c:    6809        .h      LDR      r1,[r1,#0]
        0x0800296e:    6108        .a      STR      r0,[r1,#0x10]
        0x08002970:    480c        .H      LDR      r0,[pc,#48] ; [0x80029a4] = 0x20000174
        0x08002972:    6800        .h      LDR      r0,[r0,#0]
        0x08002974:    6900        .i      LDR      r0,[r0,#0x10]
        0x08002976:    490b        .I      LDR      r1,[pc,#44] ; [0x80029a4] = 0x20000174
        0x08002978:    6809        .h      LDR      r1,[r1,#0]
        0x0800297a:    6949        Ii      LDR      r1,[r1,#0x14]
        0x0800297c:    4288        .B      CMP      r0,r1
        0x0800297e:    db03        ..      BLT      0x8002988 ; PlayerThreadEntry + 144
        0x08002980:    4808        .H      LDR      r0,[pc,#32] ; [0x80029a4] = 0x20000174
        0x08002982:    6800        .h      LDR      r0,[r0,#0]
        0x08002984:    f7fffe59    ..Y.    BL       PlayerNext ; 0x800263a
        0x08002988:    4806        .H      LDR      r0,[pc,#24] ; [0x80029a4] = 0x20000174
        0x0800298a:    6800        .h      LDR      r0,[r0,#0]
        0x0800298c:    f7fffeb0    ....    BL       PlayerShow ; 0x80026f0
        0x08002990:    e007        ..      B        0x80029a2 ; PlayerThreadEntry + 170
        0x08002992:    4904        .I      LDR      r1,[pc,#16] ; [0x80029a4] = 0x20000174
        0x08002994:    6809        .h      LDR      r1,[r1,#0]
        0x08002996:    6c09        .l      LDR      r1,[r1,#0x40]
        0x08002998:    6888        .h      LDR      r0,[r1,#8]
        0x0800299a:    4780        .G      BLX      r0
        0x0800299c:    a007        ..      ADR      r0,{pc}+0x20 ; 0x80029bc
        0x0800299e:    f000fed5    ....    BL       __0printf$3 ; 0x800374c
        0x080029a2:    e7b2        ..      B        0x800290a ; PlayerThreadEntry + 18
    $d
        0x080029a4:    20000174    t..     DCD    536871284
        0x080029a8:    79616c50    Play    DCD    2036427856
        0x080029ac:    54207265    er T    DCD    1411412581
        0x080029b0:    61657268    hrea    DCD    1634038376
        0x080029b4:    0a0d2e64    d...    DCD    168636004
        0x080029b8:    00000000    ....    DCD    0
        0x080029bc:    c5b7a5b2    ....    DCD    3317147058
        0x080029c0:    b9d6a3cd    ....    DCD    3117851597
        0x080029c4:    000a0d2e    ....    DCD    658734
    $t
    i.PutInputBuffer
    PutInputBuffer
        0x080029c8:    b570        p.      PUSH     {r4-r6,lr}
        0x080029ca:    4604        .F      MOV      r4,r0
        0x080029cc:    4812        .H      LDR      r0,[pc,#72] ; [0x8002a18] = 0x20001474
        0x080029ce:    f8d001b8    ....    LDR      r0,[r0,#0x1b8]
        0x080029d2:    1c40        @.      ADDS     r0,r0,#1
        0x080029d4:    210a        .!      MOVS     r1,#0xa
        0x080029d6:    fbb0f2f1    ....    UDIV     r2,r0,r1
        0x080029da:    fb010512    ....    MLS      r5,r1,r2,r0
        0x080029de:    b914        ..      CBNZ     r4,0x80029e6 ; PutInputBuffer + 30
        0x080029e0:    f04f30ff    O..0    MOV      r0,#0xffffffff
        0x080029e4:    bd70        p.      POP      {r4-r6,pc}
        0x080029e6:    480c        .H      LDR      r0,[pc,#48] ; [0x8002a18] = 0x20001474
        0x080029e8:    f8d001bc    ....    LDR      r0,[r0,#0x1bc]
        0x080029ec:    42a8        .B      CMP      r0,r5
        0x080029ee:    d010        ..      BEQ      0x8002a12 ; PutInputBuffer + 74
        0x080029f0:    4909        .I      LDR      r1,[pc,#36] ; [0x8002a18] = 0x20001474
        0x080029f2:    f8d111b8    ....    LDR      r1,[r1,#0x1b8]
        0x080029f6:    eb010241    ..A.    ADD      r2,r1,r1,LSL #1
        0x080029fa:    eb0201c1    ....    ADD      r1,r2,r1,LSL #3
        0x080029fe:    4a06        .J      LDR      r2,[pc,#24] ; [0x8002a18] = 0x20001474
        0x08002a00:    eb020081    ....    ADD      r0,r2,r1,LSL #2
        0x08002a04:    222c        ,"      MOVS     r2,#0x2c
        0x08002a06:    4621        !F      MOV      r1,r4
        0x08002a08:    f7fdfbee    ....    BL       __aeabi_memcpy ; 0x80001e8
        0x08002a0c:    4802        .H      LDR      r0,[pc,#8] ; [0x8002a18] = 0x20001474
        0x08002a0e:    f8c051b8    ...Q    STR      r5,[r0,#0x1b8]
        0x08002a12:    2000        .       MOVS     r0,#0
        0x08002a14:    e7e6        ..      B        0x80029e4 ; PutInputBuffer + 28
    $d
        0x08002a16:    0000        ..      DCW    0
        0x08002a18:    20001474    t..     DCD    536876148
    $t
    i.RCC_AHBPeriphClockCmd
    RCC_AHBPeriphClockCmd
        0x08002a1c:    b129        ).      CBZ      r1,0x8002a2a ; RCC_AHBPeriphClockCmd + 14
        0x08002a1e:    4a06        .J      LDR      r2,[pc,#24] ; [0x8002a38] = 0x40021000
        0x08002a20:    6952        Ri      LDR      r2,[r2,#0x14]
        0x08002a22:    4302        .C      ORRS     r2,r2,r0
        0x08002a24:    4b04        .K      LDR      r3,[pc,#16] ; [0x8002a38] = 0x40021000
        0x08002a26:    615a        Za      STR      r2,[r3,#0x14]
        0x08002a28:    e004        ..      B        0x8002a34 ; RCC_AHBPeriphClockCmd + 24
        0x08002a2a:    4a03        .J      LDR      r2,[pc,#12] ; [0x8002a38] = 0x40021000
        0x08002a2c:    6952        Ri      LDR      r2,[r2,#0x14]
        0x08002a2e:    4382        .C      BICS     r2,r2,r0
        0x08002a30:    4b01        .K      LDR      r3,[pc,#4] ; [0x8002a38] = 0x40021000
        0x08002a32:    615a        Za      STR      r2,[r3,#0x14]
        0x08002a34:    4770        pG      BX       lr
    $d
        0x08002a36:    0000        ..      DCW    0
        0x08002a38:    40021000    ...@    DCD    1073876992
    $t
    i.RCC_APB1PeriphClockCmd
    RCC_APB1PeriphClockCmd
        0x08002a3c:    b129        ).      CBZ      r1,0x8002a4a ; RCC_APB1PeriphClockCmd + 14
        0x08002a3e:    4a06        .J      LDR      r2,[pc,#24] ; [0x8002a58] = 0x40021000
        0x08002a40:    69d2        .i      LDR      r2,[r2,#0x1c]
        0x08002a42:    4302        .C      ORRS     r2,r2,r0
        0x08002a44:    4b04        .K      LDR      r3,[pc,#16] ; [0x8002a58] = 0x40021000
        0x08002a46:    61da        .a      STR      r2,[r3,#0x1c]
        0x08002a48:    e004        ..      B        0x8002a54 ; RCC_APB1PeriphClockCmd + 24
        0x08002a4a:    4a03        .J      LDR      r2,[pc,#12] ; [0x8002a58] = 0x40021000
        0x08002a4c:    69d2        .i      LDR      r2,[r2,#0x1c]
        0x08002a4e:    4382        .C      BICS     r2,r2,r0
        0x08002a50:    4b01        .K      LDR      r3,[pc,#4] ; [0x8002a58] = 0x40021000
        0x08002a52:    61da        .a      STR      r2,[r3,#0x1c]
        0x08002a54:    4770        pG      BX       lr
    $d
        0x08002a56:    0000        ..      DCW    0
        0x08002a58:    40021000    ...@    DCD    1073876992
    $t
    i.RCC_APB2PeriphClockCmd
    RCC_APB2PeriphClockCmd
        0x08002a5c:    b129        ).      CBZ      r1,0x8002a6a ; RCC_APB2PeriphClockCmd + 14
        0x08002a5e:    4a06        .J      LDR      r2,[pc,#24] ; [0x8002a78] = 0x40021000
        0x08002a60:    6992        .i      LDR      r2,[r2,#0x18]
        0x08002a62:    4302        .C      ORRS     r2,r2,r0
        0x08002a64:    4b04        .K      LDR      r3,[pc,#16] ; [0x8002a78] = 0x40021000
        0x08002a66:    619a        .a      STR      r2,[r3,#0x18]
        0x08002a68:    e004        ..      B        0x8002a74 ; RCC_APB2PeriphClockCmd + 24
        0x08002a6a:    4a03        .J      LDR      r2,[pc,#12] ; [0x8002a78] = 0x40021000
        0x08002a6c:    6992        .i      LDR      r2,[r2,#0x18]
        0x08002a6e:    4382        .C      BICS     r2,r2,r0
        0x08002a70:    4b01        .K      LDR      r3,[pc,#4] ; [0x8002a78] = 0x40021000
        0x08002a72:    619a        .a      STR      r2,[r3,#0x18]
        0x08002a74:    4770        pG      BX       lr
    $d
        0x08002a76:    0000        ..      DCW    0
        0x08002a78:    40021000    ...@    DCD    1073876992
    $t
    i.RCC_GetClocksFreq
    RCC_GetClocksFreq
        0x08002a7c:    b530        0.      PUSH     {r4,r5,lr}
        0x08002a7e:    2100        .!      MOVS     r1,#0
        0x08002a80:    2200        ."      MOVS     r2,#0
        0x08002a82:    2400        .$      MOVS     r4,#0
        0x08002a84:    2300        .#      MOVS     r3,#0
        0x08002a86:    4d2d        -M      LDR      r5,[pc,#180] ; [0x8002b3c] = 0x40021000
        0x08002a88:    686d        mh      LDR      r5,[r5,#4]
        0x08002a8a:    f005010c    ....    AND      r1,r5,#0xc
        0x08002a8e:    b121        !.      CBZ      r1,0x8002a9a ; RCC_GetClocksFreq + 30
        0x08002a90:    2904        .)      CMP      r1,#4
        0x08002a92:    d005        ..      BEQ      0x8002aa0 ; RCC_GetClocksFreq + 36
        0x08002a94:    2908        .)      CMP      r1,#8
        0x08002a96:    d123        #.      BNE      0x8002ae0 ; RCC_GetClocksFreq + 100
        0x08002a98:    e005        ..      B        0x8002aa6 ; RCC_GetClocksFreq + 42
        0x08002a9a:    4d29        )M      LDR      r5,[pc,#164] ; [0x8002b40] = 0x7a1200
        0x08002a9c:    6005        .`      STR      r5,[r0,#0]
        0x08002a9e:    e022        ".      B        0x8002ae6 ; RCC_GetClocksFreq + 106
        0x08002aa0:    4d27        'M      LDR      r5,[pc,#156] ; [0x8002b40] = 0x7a1200
        0x08002aa2:    6005        .`      STR      r5,[r0,#0]
        0x08002aa4:    e01f        ..      B        0x8002ae6 ; RCC_GetClocksFreq + 106
        0x08002aa6:    4d25        %M      LDR      r5,[pc,#148] ; [0x8002b3c] = 0x40021000
        0x08002aa8:    686d        mh      LDR      r5,[r5,#4]
        0x08002aaa:    f4051270    ..p.    AND      r2,r5,#0x3c0000
        0x08002aae:    4d23        #M      LDR      r5,[pc,#140] ; [0x8002b3c] = 0x40021000
        0x08002ab0:    686d        mh      LDR      r5,[r5,#4]
        0x08002ab2:    f4053480    ...4    AND      r4,r5,#0x10000
        0x08002ab6:    2502        .%      MOVS     r5,#2
        0x08002ab8:    eb054292    ...B    ADD      r2,r5,r2,LSR #18
        0x08002abc:    b91c        ..      CBNZ     r4,0x8002ac6 ; RCC_GetClocksFreq + 74
        0x08002abe:    4d21        !M      LDR      r5,[pc,#132] ; [0x8002b44] = 0x3d0900
        0x08002ac0:    4355        UC      MULS     r5,r2,r5
        0x08002ac2:    6005        .`      STR      r5,[r0,#0]
        0x08002ac4:    e00b        ..      B        0x8002ade ; RCC_GetClocksFreq + 98
        0x08002ac6:    4d1d        .M      LDR      r5,[pc,#116] ; [0x8002b3c] = 0x40021000
        0x08002ac8:    686d        mh      LDR      r5,[r5,#4]
        0x08002aca:    f4053500    ...5    AND      r5,r5,#0x20000
        0x08002ace:    b11d        ..      CBZ      r5,0x8002ad8 ; RCC_GetClocksFreq + 92
        0x08002ad0:    4d1c        .M      LDR      r5,[pc,#112] ; [0x8002b44] = 0x3d0900
        0x08002ad2:    4355        UC      MULS     r5,r2,r5
        0x08002ad4:    6005        .`      STR      r5,[r0,#0]
        0x08002ad6:    e002        ..      B        0x8002ade ; RCC_GetClocksFreq + 98
        0x08002ad8:    4d19        .M      LDR      r5,[pc,#100] ; [0x8002b40] = 0x7a1200
        0x08002ada:    4355        UC      MULS     r5,r2,r5
        0x08002adc:    6005        .`      STR      r5,[r0,#0]
        0x08002ade:    e002        ..      B        0x8002ae6 ; RCC_GetClocksFreq + 106
        0x08002ae0:    4d17        .M      LDR      r5,[pc,#92] ; [0x8002b40] = 0x7a1200
        0x08002ae2:    6005        .`      STR      r5,[r0,#0]
        0x08002ae4:    bf00        ..      NOP      
        0x08002ae6:    bf00        ..      NOP      
        0x08002ae8:    4d14        .M      LDR      r5,[pc,#80] ; [0x8002b3c] = 0x40021000
        0x08002aea:    686d        mh      LDR      r5,[r5,#4]
        0x08002aec:    f00501f0    ....    AND      r1,r5,#0xf0
        0x08002af0:    0909        ..      LSRS     r1,r1,#4
        0x08002af2:    4d15        .M      LDR      r5,[pc,#84] ; [0x8002b48] = 0x20000000
        0x08002af4:    5c6b        k\      LDRB     r3,[r5,r1]
        0x08002af6:    6805        .h      LDR      r5,[r0,#0]
        0x08002af8:    40dd        .@      LSRS     r5,r5,r3
        0x08002afa:    6045        E`      STR      r5,[r0,#4]
        0x08002afc:    4d0f        .M      LDR      r5,[pc,#60] ; [0x8002b3c] = 0x40021000
        0x08002afe:    686d        mh      LDR      r5,[r5,#4]
        0x08002b00:    f40561e0    ...a    AND      r1,r5,#0x700
        0x08002b04:    0a09        ..      LSRS     r1,r1,#8
        0x08002b06:    4d10        .M      LDR      r5,[pc,#64] ; [0x8002b48] = 0x20000000
        0x08002b08:    5c6b        k\      LDRB     r3,[r5,r1]
        0x08002b0a:    6845        Eh      LDR      r5,[r0,#4]
        0x08002b0c:    40dd        .@      LSRS     r5,r5,r3
        0x08002b0e:    6085        .`      STR      r5,[r0,#8]
        0x08002b10:    4d0a        .M      LDR      r5,[pc,#40] ; [0x8002b3c] = 0x40021000
        0x08002b12:    686d        mh      LDR      r5,[r5,#4]
        0x08002b14:    f4055160    ..`Q    AND      r1,r5,#0x3800
        0x08002b18:    0ac9        ..      LSRS     r1,r1,#11
        0x08002b1a:    4d0b        .M      LDR      r5,[pc,#44] ; [0x8002b48] = 0x20000000
        0x08002b1c:    5c6b        k\      LDRB     r3,[r5,r1]
        0x08002b1e:    6845        Eh      LDR      r5,[r0,#4]
        0x08002b20:    40dd        .@      LSRS     r5,r5,r3
        0x08002b22:    60c5        .`      STR      r5,[r0,#0xc]
        0x08002b24:    4d05        .M      LDR      r5,[pc,#20] ; [0x8002b3c] = 0x40021000
        0x08002b26:    686d        mh      LDR      r5,[r5,#4]
        0x08002b28:    f4054140    ..@A    AND      r1,r5,#0xc000
        0x08002b2c:    0b89        ..      LSRS     r1,r1,#14
        0x08002b2e:    4d07        .M      LDR      r5,[pc,#28] ; [0x8002b4c] = 0x20000010
        0x08002b30:    5c6b        k\      LDRB     r3,[r5,r1]
        0x08002b32:    68c5        .h      LDR      r5,[r0,#0xc]
        0x08002b34:    fbb5f5f3    ....    UDIV     r5,r5,r3
        0x08002b38:    6105        .a      STR      r5,[r0,#0x10]
        0x08002b3a:    bd30        0.      POP      {r4,r5,pc}
    $d
        0x08002b3c:    40021000    ...@    DCD    1073876992
        0x08002b40:    007a1200    ..z.    DCD    8000000
        0x08002b44:    003d0900    ..=.    DCD    4000000
        0x08002b48:    20000000    ...     DCD    536870912
        0x08002b4c:    20000010    ...     DCD    536870928
    $t
    i.RecoverSpeedIndex
    RecoverSpeedIndex
        0x08002b50:    2009        .       MOVS     r0,#9
        0x08002b52:    4901        .I      LDR      r1,[pc,#4] ; [0x8002b58] = 0x2000036c
        0x08002b54:    6008        .`      STR      r0,[r1,#0]
        0x08002b56:    4770        pG      BX       lr
    $d
        0x08002b58:    2000036c    l..     DCD    536871788
    $t
    i.RoleRegister
    RoleRegister
        0x08002b5c:    b510        ..      PUSH     {r4,lr}
        0x08002b5e:    4604        .F      MOV      r4,r0
        0x08002b60:    480d        .H      LDR      r0,[pc,#52] ; [0x8002b98] = 0x200003c0
        0x08002b62:    6b00        .k      LDR      r0,[r0,#0x30]
        0x08002b64:    2809        .(      CMP      r0,#9
        0x08002b66:    dd00        ..      BLE      0x8002b6a ; RoleRegister + 14
        0x08002b68:    bd10        ..      POP      {r4,pc}
        0x08002b6a:    6861        ah      LDR      r1,[r4,#4]
        0x08002b6c:    61e1        .a      STR      r1,[r4,#0x1c]
        0x08002b6e:    68e0        .h      LDR      r0,[r4,#0xc]
        0x08002b70:    6160        `a      STR      r0,[r4,#0x14]
        0x08002b72:    6921        !i      LDR      r1,[r4,#0x10]
        0x08002b74:    61a1        .a      STR      r1,[r4,#0x18]
        0x08002b76:    4808        .H      LDR      r0,[pc,#32] ; [0x8002b98] = 0x200003c0
        0x08002b78:    6b01        .k      LDR      r1,[r0,#0x30]
        0x08002b7a:    6b00        .k      LDR      r0,[r0,#0x30]
        0x08002b7c:    1c40        @.      ADDS     r0,r0,#1
        0x08002b7e:    4a06        .J      LDR      r2,[pc,#24] ; [0x8002b98] = 0x200003c0
        0x08002b80:    6310        .c      STR      r0,[r2,#0x30]
        0x08002b82:    f1020008    ....    ADD      r0,r2,#8
        0x08002b86:    f8404021    @.!@    STR      r4,[r0,r1,LSL #2]
        0x08002b8a:    3808        .8      SUBS     r0,r0,#8
        0x08002b8c:    6b01        .k      LDR      r1,[r0,#0x30]
        0x08002b8e:    a003        ..      ADR      r0,{pc}+0xe ; 0x8002b9c
        0x08002b90:    f000fddc    ....    BL       __0printf$3 ; 0x800374c
        0x08002b94:    bf00        ..      NOP      
        0x08002b96:    e7e7        ..      B        0x8002b68 ; RoleRegister + 12
    $d
        0x08002b98:    200003c0    ...     DCD    536871872
        0x08002b9c:    e1b2a2d7    ....    DCD    3786580695
        0x08002ba0:    6425dab5    ..%d    DCD    1680202421
        0x08002ba4:    4f52f6b8    ..RO    DCD    1330837176
        0x08002ba8:    c9b3454c    LE..    DCD    3383969100
        0x08002bac:    0d2ea6b9    ....    DCD    221161145
        0x08002bb0:    0000000a    ....    DCD    10
    $t
    i.SKLPVisit
    SKLPVisit
        0x08002bb4:    b510        ..      PUSH     {r4,lr}
        0x08002bb6:    4604        .F      MOV      r4,r0
        0x08002bb8:    6920         i      LDR      r0,[r4,#0x10]
        0x08002bba:    4780        .G      BLX      r0
        0x08002bbc:    bd10        ..      POP      {r4,pc}
    i.SKSPVisit
    SKSPVisit
        0x08002bbe:    b510        ..      PUSH     {r4,lr}
        0x08002bc0:    4604        .F      MOV      r4,r0
        0x08002bc2:    6860        `h      LDR      r0,[r4,#4]
        0x08002bc4:    4780        .G      BLX      r0
        0x08002bc6:    bd10        ..      POP      {r4,pc}
    i.STD_BeepDevicePWMCfg
    STD_BeepDevicePWMCfg
        0x08002bc8:    b570        p.      PUSH     {r4-r6,lr}
        0x08002bca:    b088        ..      SUB      sp,sp,#0x20
        0x08002bcc:    4606        .F      MOV      r6,r0
        0x08002bce:    460c        .F      MOV      r4,r1
        0x08002bd0:    4615        .F      MOV      r5,r2
        0x08002bd2:    2101        .!      MOVS     r1,#1
        0x08002bd4:    2004        .       MOVS     r0,#4
        0x08002bd6:    f7ffff31    ..1.    BL       RCC_APB1PeriphClockCmd ; 0x8002a3c
        0x08002bda:    f24030e7    @..0    MOV      r0,#0x3e7
        0x08002bde:    f8ad0018    ....    STRH     r0,[sp,#0x18]
        0x08002be2:    b2a0        ..      UXTH     r0,r4
        0x08002be4:    f8ad0014    ....    STRH     r0,[sp,#0x14]
        0x08002be8:    2000        .       MOVS     r0,#0
        0x08002bea:    f8ad001a    ....    STRH     r0,[sp,#0x1a]
        0x08002bee:    f8ad0016    ....    STRH     r0,[sp,#0x16]
        0x08002bf2:    f88d001c    ....    STRB     r0,[sp,#0x1c]
        0x08002bf6:    a905        ..      ADD      r1,sp,#0x14
        0x08002bf8:    4630        0F      MOV      r0,r6
        0x08002bfa:    f000fb9d    ....    BL       TIM_TimeBaseInit ; 0x8003338
        0x08002bfe:    2060        `       MOVS     r0,#0x60
        0x08002c00:    f8ad0004    ....    STRH     r0,[sp,#4]
        0x08002c04:    2002        .       MOVS     r0,#2
        0x08002c06:    f8ad000c    ....    STRH     r0,[sp,#0xc]
        0x08002c0a:    2001        .       MOVS     r0,#1
        0x08002c0c:    f8ad0006    ....    STRH     r0,[sp,#6]
        0x08002c10:    b2a8        ..      UXTH     r0,r5
        0x08002c12:    f8ad000a    ....    STRH     r0,[sp,#0xa]
        0x08002c16:    a901        ..      ADD      r1,sp,#4
        0x08002c18:    4630        0F      MOV      r0,r6
        0x08002c1a:    f000fb33    ..3.    BL       TIM_OC3Init ; 0x8003284
        0x08002c1e:    2108        .!      MOVS     r1,#8
        0x08002c20:    4630        0F      MOV      r0,r6
        0x08002c22:    f000fb7f    ....    BL       TIM_OC3PreloadConfig ; 0x8003324
        0x08002c26:    2101        .!      MOVS     r1,#1
        0x08002c28:    4630        0F      MOV      r0,r6
        0x08002c2a:    f000fb04    ....    BL       TIM_Cmd ; 0x8003236
        0x08002c2e:    b008        ..      ADD      sp,sp,#0x20
        0x08002c30:    bd70        p.      POP      {r4-r6,pc}
    i.STD_BeepDevicePWMOff
    STD_BeepDevicePWMOff
        0x08002c32:    b510        ..      PUSH     {r4,lr}
        0x08002c34:    4604        .F      MOV      r4,r0
        0x08002c36:    2200        ."      MOVS     r2,#0
        0x08002c38:    f44f7183    O..q    MOV      r1,#0x106
        0x08002c3c:    4620         F      MOV      r0,r4
        0x08002c3e:    f7ffffc3    ....    BL       STD_BeepDevicePWMCfg ; 0x8002bc8
        0x08002c42:    bd10        ..      POP      {r4,pc}
    i.STD_GPIOBeepDevConfig
    STD_GPIOBeepDevConfig
        0x08002c44:    b538        8.      PUSH     {r3-r5,lr}
        0x08002c46:    4605        .F      MOV      r5,r0
        0x08002c48:    460c        .F      MOV      r4,r1
        0x08002c4a:    2101        .!      MOVS     r1,#1
        0x08002c4c:    2008        .       MOVS     r0,#8
        0x08002c4e:    f7ffff05    ....    BL       RCC_APB2PeriphClockCmd ; 0x8002a5c
        0x08002c52:    b2a0        ..      UXTH     r0,r4
        0x08002c54:    f8ad0000    ....    STRH     r0,[sp,#0]
        0x08002c58:    2018        .       MOVS     r0,#0x18
        0x08002c5a:    f88d0003    ....    STRB     r0,[sp,#3]
        0x08002c5e:    2003        .       MOVS     r0,#3
        0x08002c60:    f88d0002    ....    STRB     r0,[sp,#2]
        0x08002c64:    4669        iF      MOV      r1,sp
        0x08002c66:    4628        (F      MOV      r0,r5
        0x08002c68:    f7fefad8    ....    BL       GPIO_Init ; 0x800121c
        0x08002c6c:    bd38        8.      POP      {r3-r5,pc}
        0x08002c6e:    0000        ..      MOVS     r0,r0
    i.STD_GPIOButtonConfig
    STD_GPIOButtonConfig
        0x08002c70:    b538        8.      PUSH     {r3-r5,lr}
        0x08002c72:    4604        .F      MOV      r4,r0
        0x08002c74:    2101        .!      MOVS     r1,#1
        0x08002c76:    2004        .       MOVS     r0,#4
        0x08002c78:    f7fffef0    ....    BL       RCC_APB2PeriphClockCmd ; 0x8002a5c
        0x08002c7c:    2048        H       MOVS     r0,#0x48
        0x08002c7e:    f88d0003    ....    STRB     r0,[sp,#3]
        0x08002c82:    f8ad4000    ...@    STRH     r4,[sp,#0]
        0x08002c86:    2003        .       MOVS     r0,#3
        0x08002c88:    f88d0002    ....    STRB     r0,[sp,#2]
        0x08002c8c:    4669        iF      MOV      r1,sp
        0x08002c8e:    4802        .H      LDR      r0,[pc,#8] ; [0x8002c98] = 0x40010800
        0x08002c90:    f7fefac4    ....    BL       GPIO_Init ; 0x800121c
        0x08002c94:    bd38        8.      POP      {r3-r5,pc}
    $d
        0x08002c96:    0000        ..      DCW    0
        0x08002c98:    40010800    ...@    DCD    1073809408
    $t
    i.STD_GPIOI2CDevConfig
    STD_GPIOI2CDevConfig
        0x08002c9c:    b570        p.      PUSH     {r4-r6,lr}
        0x08002c9e:    b086        ..      SUB      sp,sp,#0x18
        0x08002ca0:    4606        .F      MOV      r6,r0
        0x08002ca2:    460c        .F      MOV      r4,r1
        0x08002ca4:    4615        .F      MOV      r5,r2
        0x08002ca6:    2101        .!      MOVS     r1,#1
        0x08002ca8:    0548        H.      LSLS     r0,r1,#21
        0x08002caa:    f7fffec7    ....    BL       RCC_APB1PeriphClockCmd ; 0x8002a3c
        0x08002cae:    2101        .!      MOVS     r1,#1
        0x08002cb0:    2008        .       MOVS     r0,#8
        0x08002cb2:    f7fffed3    ....    BL       RCC_APB2PeriphClockCmd ; 0x8002a5c
        0x08002cb6:    201c        .       MOVS     r0,#0x1c
        0x08002cb8:    f88d0017    ....    STRB     r0,[sp,#0x17]
        0x08002cbc:    ea440005    D...    ORR      r0,r4,r5
        0x08002cc0:    b280        ..      UXTH     r0,r0
        0x08002cc2:    f8ad0014    ....    STRH     r0,[sp,#0x14]
        0x08002cc6:    2003        .       MOVS     r0,#3
        0x08002cc8:    f88d0016    ....    STRB     r0,[sp,#0x16]
        0x08002ccc:    a905        ..      ADD      r1,sp,#0x14
        0x08002cce:    4630        0F      MOV      r0,r6
        0x08002cd0:    f7fefaa4    ....    BL       GPIO_Init ; 0x800121c
        0x08002cd4:    f44f6080    O..`    MOV      r0,#0x400
        0x08002cd8:    f8ad000e    ....    STRH     r0,[sp,#0xe]
        0x08002cdc:    0100        ..      LSLS     r0,r0,#4
        0x08002cde:    f8ad0010    ....    STRH     r0,[sp,#0x10]
        0x08002ce2:    480b        .H      LDR      r0,[pc,#44] ; [0x8002d10] = 0x61a80
        0x08002ce4:    9001        ..      STR      r0,[sp,#4]
        0x08002ce6:    f64b70ff    K..p    MOV      r0,#0xbfff
        0x08002cea:    f8ad000a    ....    STRH     r0,[sp,#0xa]
        0x08002cee:    2000        .       MOVS     r0,#0
        0x08002cf0:    f8ad0008    ....    STRH     r0,[sp,#8]
        0x08002cf4:    2030        0       MOVS     r0,#0x30
        0x08002cf6:    f8ad000c    ....    STRH     r0,[sp,#0xc]
        0x08002cfa:    a901        ..      ADD      r1,sp,#4
        0x08002cfc:    4805        .H      LDR      r0,[pc,#20] ; [0x8002d14] = 0x40005400
        0x08002cfe:    f7feff63    ..c.    BL       I2C_Init ; 0x8001bc8
        0x08002d02:    2101        .!      MOVS     r1,#1
        0x08002d04:    4803        .H      LDR      r0,[pc,#12] ; [0x8002d14] = 0x40005400
        0x08002d06:    f7feff12    ....    BL       I2C_Cmd ; 0x8001b2e
        0x08002d0a:    b006        ..      ADD      sp,sp,#0x18
        0x08002d0c:    bd70        p.      POP      {r4-r6,pc}
    $d
        0x08002d0e:    0000        ..      DCW    0
        0x08002d10:    00061a80    ....    DCD    400000
        0x08002d14:    40005400    .T.@    DCD    1073763328
    $t
    i.STD_GPIOLedDevConfig
    STD_GPIOLedDevConfig
        0x08002d18:    b538        8.      PUSH     {r3-r5,lr}
        0x08002d1a:    4605        .F      MOV      r5,r0
        0x08002d1c:    460c        .F      MOV      r4,r1
        0x08002d1e:    2101        .!      MOVS     r1,#1
        0x08002d20:    200c        .       MOVS     r0,#0xc
        0x08002d22:    f7fffe9b    ....    BL       RCC_APB2PeriphClockCmd ; 0x8002a5c
        0x08002d26:    2010        .       MOVS     r0,#0x10
        0x08002d28:    f88d0003    ....    STRB     r0,[sp,#3]
        0x08002d2c:    b2a0        ..      UXTH     r0,r4
        0x08002d2e:    f8ad0000    ....    STRH     r0,[sp,#0]
        0x08002d32:    2003        .       MOVS     r0,#3
        0x08002d34:    f88d0002    ....    STRB     r0,[sp,#2]
        0x08002d38:    4669        iF      MOV      r1,sp
        0x08002d3a:    4628        (F      MOV      r0,r5
        0x08002d3c:    f7fefa6e    ..n.    BL       GPIO_Init ; 0x800121c
        0x08002d40:    bd38        8.      POP      {r3-r5,pc}
    i.STD_GPIOLedDevControl
    STD_GPIOLedDevControl
        0x08002d42:    b122        ".      CBZ      r2,0x8002d4e ; STD_GPIOLedDevControl + 12
        0x08002d44:    2a01        .*      CMP      r2,#1
        0x08002d46:    d004        ..      BEQ      0x8002d52 ; STD_GPIOLedDevControl + 16
        0x08002d48:    2a02        .*      CMP      r2,#2
        0x08002d4a:    d108        ..      BNE      0x8002d5e ; STD_GPIOLedDevControl + 28
        0x08002d4c:    e003        ..      B        0x8002d56 ; STD_GPIOLedDevControl + 20
        0x08002d4e:    6141        Aa      STR      r1,[r0,#0x14]
        0x08002d50:    e006        ..      B        0x8002d60 ; STD_GPIOLedDevControl + 30
        0x08002d52:    6101        .a      STR      r1,[r0,#0x10]
        0x08002d54:    e004        ..      B        0x8002d60 ; STD_GPIOLedDevControl + 30
        0x08002d56:    68c3        .h      LDR      r3,[r0,#0xc]
        0x08002d58:    404b        K@      EORS     r3,r3,r1
        0x08002d5a:    60c3        .`      STR      r3,[r0,#0xc]
        0x08002d5c:    e000        ..      B        0x8002d60 ; STD_GPIOLedDevControl + 30
        0x08002d5e:    bf00        ..      NOP      
        0x08002d60:    bf00        ..      NOP      
        0x08002d62:    4770        pG      BX       lr
    i.STD_I2CDMACfg
    STD_I2CDMACfg
        0x08002d64:    b5f0        ..      PUSH     {r4-r7,lr}
        0x08002d66:    b08d        ..      SUB      sp,sp,#0x34
        0x08002d68:    4607        .F      MOV      r7,r0
        0x08002d6a:    460c        .F      MOV      r4,r1
        0x08002d6c:    4615        .F      MOV      r5,r2
        0x08002d6e:    461e        .F      MOV      r6,r3
        0x08002d70:    2101        .!      MOVS     r1,#1
        0x08002d72:    4608        .F      MOV      r0,r1
        0x08002d74:    f7fffe52    ..R.    BL       RCC_AHBPeriphClockCmd ; 0x8002a1c
        0x08002d78:    4638        8F      MOV      r0,r7
        0x08002d7a:    f7fdfe63    ..c.    BL       DMA_DeInit ; 0x8000a44
        0x08002d7e:    9605        ..      STR      r6,[sp,#0x14]
        0x08002d80:    2010        .       MOVS     r0,#0x10
        0x08002d82:    9004        ..      STR      r0,[sp,#0x10]
        0x08002d84:    2000        .       MOVS     r0,#0
        0x08002d86:    900c        ..      STR      r0,[sp,#0x30]
        0x08002d88:    9503        ..      STR      r5,[sp,#0xc]
        0x08002d8a:    9009        ..      STR      r0,[sp,#0x24]
        0x08002d8c:    2080        .       MOVS     r0,#0x80
        0x08002d8e:    9007        ..      STR      r0,[sp,#0x1c]
        0x08002d90:    2000        .       MOVS     r0,#0
        0x08002d92:    900a        ..      STR      r0,[sp,#0x28]
        0x08002d94:    9402        ..      STR      r4,[sp,#8]
        0x08002d96:    9008        ..      STR      r0,[sp,#0x20]
        0x08002d98:    9006        ..      STR      r0,[sp,#0x18]
        0x08002d9a:    f44f5080    O..P    MOV      r0,#0x1000
        0x08002d9e:    900b        ..      STR      r0,[sp,#0x2c]
        0x08002da0:    a902        ..      ADD      r1,sp,#8
        0x08002da2:    4638        8F      MOV      r0,r7
        0x08002da4:    f7fdff13    ....    BL       DMA_Init ; 0x8000bce
        0x08002da8:    2010        .       MOVS     r0,#0x10
        0x08002daa:    f88d0004    ....    STRB     r0,[sp,#4]
        0x08002dae:    2001        .       MOVS     r0,#1
        0x08002db0:    f88d0007    ....    STRB     r0,[sp,#7]
        0x08002db4:    f88d0005    ....    STRB     r0,[sp,#5]
        0x08002db8:    f88d0006    ....    STRB     r0,[sp,#6]
        0x08002dbc:    a801        ..      ADD      r0,sp,#4
        0x08002dbe:    f7fff9e1    ....    BL       NVIC_Init ; 0x8002184
        0x08002dc2:    2201        ."      MOVS     r2,#1
        0x08002dc4:    2102        .!      MOVS     r1,#2
        0x08002dc6:    4638        8F      MOV      r0,r7
        0x08002dc8:    f7fdfef8    ....    BL       DMA_ITConfig ; 0x8000bbc
        0x08002dcc:    b00d        ..      ADD      sp,sp,#0x34
        0x08002dce:    bdf0        ..      POP      {r4-r7,pc}
    i.STD_I2CDMAEnable
    STD_I2CDMAEnable
        0x08002dd0:    b510        ..      PUSH     {r4,lr}
        0x08002dd2:    4604        .F      MOV      r4,r0
        0x08002dd4:    2100        .!      MOVS     r1,#0
        0x08002dd6:    4620         F      MOV      r0,r4
        0x08002dd8:    f7fdfe28    ..(.    BL       DMA_Cmd ; 0x8000a2c
        0x08002ddc:    f2404101    @..A    MOV      r1,#0x401
        0x08002de0:    4620         F      MOV      r0,r4
        0x08002de2:    f7fdff12    ....    BL       DMA_SetCurrDataCounter ; 0x8000c0a
        0x08002de6:    2101        .!      MOVS     r1,#1
        0x08002de8:    4620         F      MOV      r0,r4
        0x08002dea:    f7fdfe1f    ....    BL       DMA_Cmd ; 0x8000a2c
        0x08002dee:    bd10        ..      POP      {r4,pc}
    i.STD_TimerConfig
    STD_TimerConfig
        0x08002df0:    b51f        ..      PUSH     {r0-r4,lr}
        0x08002df2:    2101        .!      MOVS     r1,#1
        0x08002df4:    4608        .F      MOV      r0,r1
        0x08002df6:    f7fffe21    ..!.    BL       RCC_APB1PeriphClockCmd ; 0x8002a3c
        0x08002dfa:    2000        .       MOVS     r0,#0
        0x08002dfc:    f8ad000a    ....    STRH     r0,[sp,#0xa]
        0x08002e00:    f8ad0006    ....    STRH     r0,[sp,#6]
        0x08002e04:    f44f707a    O.zp    MOV      r0,#0x3e8
        0x08002e08:    f8ad0008    ....    STRH     r0,[sp,#8]
        0x08002e0c:    f24020cf    @..     MOV      r0,#0x2cf
        0x08002e10:    f8ad0004    ....    STRH     r0,[sp,#4]
        0x08002e14:    a901        ..      ADD      r1,sp,#4
        0x08002e16:    f04f4080    O..@    MOV      r0,#0x40000000
        0x08002e1a:    f000fa8d    ....    BL       TIM_TimeBaseInit ; 0x8003338
        0x08002e1e:    201c        .       MOVS     r0,#0x1c
        0x08002e20:    f88d0000    ....    STRB     r0,[sp,#0]
        0x08002e24:    2001        .       MOVS     r0,#1
        0x08002e26:    f88d0003    ....    STRB     r0,[sp,#3]
        0x08002e2a:    f88d0001    ....    STRB     r0,[sp,#1]
        0x08002e2e:    f88d0002    ....    STRB     r0,[sp,#2]
        0x08002e32:    4668        hF      MOV      r0,sp
        0x08002e34:    f7fff9a6    ....    BL       NVIC_Init ; 0x8002184
        0x08002e38:    2201        ."      MOVS     r2,#1
        0x08002e3a:    4611        .F      MOV      r1,r2
        0x08002e3c:    0790        ..      LSLS     r0,r2,#30
        0x08002e3e:    f000fa17    ....    BL       TIM_ITConfig ; 0x8003270
        0x08002e42:    2101        .!      MOVS     r1,#1
        0x08002e44:    0788        ..      LSLS     r0,r1,#30
        0x08002e46:    f000f9f3    ....    BL       TIM_ClearITPendingBit ; 0x8003230
        0x08002e4a:    2101        .!      MOVS     r1,#1
        0x08002e4c:    0788        ..      LSLS     r0,r1,#30
        0x08002e4e:    f000f9f2    ....    BL       TIM_Cmd ; 0x8003236
        0x08002e52:    bd1f        ..      POP      {r0-r4,pc}
    i.SVC_Handler
    SVC_Handler
        0x08002e54:    4770        pG      BX       lr
        0x08002e56:    0000        ..      MOVS     r0,r0
    i.SetButtonInputDeviceCallBack
    SetButtonInputDeviceCallBack
        0x08002e58:    4901        .I      LDR      r1,[pc,#4] ; [0x8002e60] = 0x20000048
        0x08002e5a:    6008        .`      STR      r0,[r1,#0]
        0x08002e5c:    4770        pG      BX       lr
    $d
        0x08002e5e:    0000        ..      DCW    0
        0x08002e60:    20000048    H..     DCD    536870984
    $t
    i.SetChooseFUN
    SetChooseFUN
        0x08002e64:    b538        8.      PUSH     {r3-r5,lr}
        0x08002e66:    4604        .F      MOV      r4,r0
        0x08002e68:    2030        0       MOVS     r0,#0x30
        0x08002e6a:    4603        .F      MOV      r3,r0
        0x08002e6c:    2240        @"      MOVS     r2,#0x40
        0x08002e6e:    2128        (!      MOVS     r1,#0x28
        0x08002e70:    9000        ..      STR      r0,[sp,#0]
        0x08002e72:    4806        .H      LDR      r0,[pc,#24] ; [0x8002e8c] = 0x20000790
        0x08002e74:    6800        .h      LDR      r0,[r0,#0]
        0x08002e76:    f7fdfd75    ..u.    BL       ClearInDisplayDev ; 0x8000964
        0x08002e7a:    4b05        .K      LDR      r3,[pc,#20] ; [0x8002e90] = 0x20000624
        0x08002e7c:    2240        @"      MOVS     r2,#0x40
        0x08002e7e:    2128        (!      MOVS     r1,#0x28
        0x08002e80:    4802        .H      LDR      r0,[pc,#8] ; [0x8002e8c] = 0x20000790
        0x08002e82:    6800        .h      LDR      r0,[r0,#0]
        0x08002e84:    f000f926    ..&.    BL       ShowGraphInDisplayDev ; 0x80030d4
        0x08002e88:    bd38        8.      POP      {r3-r5,pc}
    $d
        0x08002e8a:    0000        ..      DCW    0
        0x08002e8c:    20000790    ...     DCD    536872848
        0x08002e90:    20000624    $..     DCD    536872484
    $t
    i.SetDefaultDisplayDev
    SetDefaultDisplayDev
        0x08002e94:    b510        ..      PUSH     {r4,lr}
        0x08002e96:    f7fdfa1e    ....    BL       ADDDisplayDevice ; 0x80002d6
        0x08002e9a:    a009        ..      ADR      r0,{pc}+0x26 ; 0x8002ec0
        0x08002e9c:    f7fefc7f    ....    BL       GetDisplayDevice ; 0x800179e
        0x08002ea0:    4909        .I      LDR      r1,[pc,#36] ; [0x8002ec8] = 0x20000120
        0x08002ea2:    6008        .`      STR      r0,[r1,#0]
        0x08002ea4:    4608        .F      MOV      r0,r1
        0x08002ea6:    6800        .h      LDR      r0,[r0,#0]
        0x08002ea8:    b128        (.      CBZ      r0,0x8002eb6 ; SetDefaultDisplayDev + 34
        0x08002eaa:    a008        ..      ADR      r0,{pc}+0x22 ; 0x8002ecc
        0x08002eac:    f000fc4e    ..N.    BL       __0printf$3 ; 0x800374c
        0x08002eb0:    4805        .H      LDR      r0,[pc,#20] ; [0x8002ec8] = 0x20000120
        0x08002eb2:    6800        .h      LDR      r0,[r0,#0]
        0x08002eb4:    bd10        ..      POP      {r4,pc}
        0x08002eb6:    a00e        ..      ADR      r0,{pc}+0x3a ; 0x8002ef0
        0x08002eb8:    f000fc48    ..H.    BL       __0printf$3 ; 0x800374c
        0x08002ebc:    2000        .       MOVS     r0,#0
        0x08002ebe:    e7f9        ..      B        0x8002eb4 ; SetDefaultDisplayDev + 32
    $d
        0x08002ec0:    64656c6f    oled    DCD    1684368495
        0x08002ec4:    00000000    ....    DCD    0
        0x08002ec8:    20000120     ..     DCD    536871200
        0x08002ecc:    c3d6e8c9    ....    DCD    3285641417
        0x08002ed0:    cfc8acc4    ....    DCD    3486035140
        0x08002ed4:    70736944    Disp    DCD    1886611780
        0x08002ed8:    4479616c    layD    DCD    1148805484
        0x08002edc:    63697665    evic    DCD    1667855973
        0x08002ee0:    4fbaa365    e..O    DCD    1337631589
        0x08002ee4:    b344454c    LED.    DCD    3007595852
        0x08002ee8:    2ea6b9c9    ....    DCD    782678473
        0x08002eec:    00000a0d    ....    DCD    2573
        0x08002ef0:    c3d6e8c9    ....    DCD    3285641417
        0x08002ef4:    cfc8acc4    ....    DCD    3486035140
        0x08002ef8:    70736944    Disp    DCD    1886611780
        0x08002efc:    4479616c    layD    DCD    1148805484
        0x08002f00:    63697665    evic    DCD    1667855973
        0x08002f04:    4fbaa365    e..O    DCD    1337631589
        0x08002f08:    ca44454c    LED.    DCD    3393471820
        0x08002f0c:    2edcb0a7    ....    DCD    786215079
        0x08002f10:    00000a0d    ....    DCD    2573
    $t
    i.SetDefaultFontLib
    SetDefaultFontLib
        0x08002f14:    b510        ..      PUSH     {r4,lr}
        0x08002f16:    f7fdf9e2    ....    BL       ADDFontLib ; 0x80002de
        0x08002f1a:    a008        ..      ADR      r0,{pc}+0x22 ; 0x8002f3c
        0x08002f1c:    f7fefc78    ..x.    BL       GetFontLib ; 0x8001810
        0x08002f20:    4908        .I      LDR      r1,[pc,#32] ; [0x8002f44] = 0x20000144
        0x08002f22:    6008        .`      STR      r0,[r1,#0]
        0x08002f24:    4608        .F      MOV      r0,r1
        0x08002f26:    6800        .h      LDR      r0,[r0,#0]
        0x08002f28:    b118        ..      CBZ      r0,0x8002f32 ; SetDefaultFontLib + 30
        0x08002f2a:    a007        ..      ADR      r0,{pc}+0x1e ; 0x8002f48
        0x08002f2c:    f000fc0e    ....    BL       __0printf$3 ; 0x800374c
        0x08002f30:    e002        ..      B        0x8002f38 ; SetDefaultFontLib + 36
        0x08002f32:    a00c        ..      ADR      r0,{pc}+0x32 ; 0x8002f64
        0x08002f34:    f000fc0a    ....    BL       __0printf$3 ; 0x800374c
        0x08002f38:    bd10        ..      POP      {r4,pc}
    $d
        0x08002f3a:    0000        ..      DCW    0
        0x08002f3c:    69637361    asci    DCD    1768125281
        0x08002f40:    00000069    i...    DCD    105
        0x08002f44:    20000144    D..     DCD    536871236
        0x08002f48:    c3d6e8c9    ....    DCD    3285641417
        0x08002f4c:    cfc8acc4    ....    DCD    3486035140
        0x08002f50:    e2bfd6d7    ....    DCD    3804223191
        0x08002f54:    49435341    ASCI    DCD    1229148993
        0x08002f58:    b9c9b349    I...    DCD    3117003593
        0x08002f5c:    0a0d2ea6    ....    DCD    168636070
        0x08002f60:    00000000    ....    DCD    0
        0x08002f64:    c3d6e8c9    ....    DCD    3285641417
        0x08002f68:    cfc8acc4    ....    DCD    3486035140
        0x08002f6c:    e2bfd6d7    ....    DCD    3804223191
        0x08002f70:    49435341    ASCI    DCD    1229148993
        0x08002f74:    b0a7ca49    I...    DCD    2963786313
        0x08002f78:    0a0d2edc    ....    DCD    168636124
        0x08002f7c:    00000000    ....    DCD    0
    $t
    i.SetDefaultPLAYERDinosaur
    SetDefaultPLAYERDinosaur
        0x08002f80:    b510        ..      PUSH     {r4,lr}
        0x08002f82:    a004        ..      ADR      r0,{pc}+0x12 ; 0x8002f94
        0x08002f84:    f000fbe2    ....    BL       __0printf$3 ; 0x800374c
        0x08002f88:    a007        ..      ADR      r0,{pc}+0x20 ; 0x8002fa8
        0x08002f8a:    f000fc87    ....    BL       __GetGameRole ; 0x800389c
        0x08002f8e:    4909        .I      LDR      r1,[pc,#36] ; [0x8002fb4] = 0x20000404
        0x08002f90:    6008        .`      STR      r0,[r1,#0]
        0x08002f92:    bd10        ..      POP      {r4,pc}
    $d
        0x08002f94:    c3b5f1bb    ....    DCD    3283481019
        0x08002f98:    cfc8acc4    ....    DCD    3486035140
        0x08002f9c:    d2bce6cd    ....    DCD    3535595213
        0x08002fa0:    abc9c7bd    ....    DCD    2882127805
        0x08002fa4:    000a0d2e    ....    DCD    658734
        0x08002fa8:    6f6e6964    dino    DCD    1869506916
        0x08002fac:    72756173    saur    DCD    1920295283
        0x08002fb0:    00000000    ....    DCD    0
        0x08002fb4:    20000404    ...     DCD    536871940
    $t
    i.SetEnterFUN
    SetEnterFUN
        0x08002fb8:    b510        ..      PUSH     {r4,lr}
        0x08002fba:    4604        .F      MOV      r4,r0
        0x08002fbc:    4804        .H      LDR      r0,[pc,#16] ; [0x8002fd0] = 0x200006f8
        0x08002fbe:    6800        .h      LDR      r0,[r0,#0]
        0x08002fc0:    b910        ..      CBNZ     r0,0x8002fc8 ; SetEnterFUN + 16
        0x08002fc2:    a004        ..      ADR      r0,{pc}+0x12 ; 0x8002fd4
        0x08002fc4:    f000fbc2    ....    BL       __0printf$3 ; 0x800374c
        0x08002fc8:    2001        .       MOVS     r0,#1
        0x08002fca:    4901        .I      LDR      r1,[pc,#4] ; [0x8002fd0] = 0x200006f8
        0x08002fcc:    6008        .`      STR      r0,[r1,#0]
        0x08002fce:    bd10        ..      POP      {r4,pc}
    $d
        0x08002fd0:    200006f8    ...     DCD    536872696
        0x08002fd4:    bccaaabf    ....    DCD    3167398591
        0x08002fd8:    c3d6e8c9    ....    DCD    3285641417
        0x08002fdc:    000a0d2e    ....    DCD    658734
    $t
    i.SetSysClock
    SetSysClock
        0x08002fe0:    b510        ..      PUSH     {r4,lr}
        0x08002fe2:    f000f801    ....    BL       SetSysClockTo72 ; 0x8002fe8
        0x08002fe6:    bd10        ..      POP      {r4,pc}
    i.SetSysClockTo72
    SetSysClockTo72
        0x08002fe8:    b50c        ..      PUSH     {r2,r3,lr}
        0x08002fea:    2000        .       MOVS     r0,#0
        0x08002fec:    9001        ..      STR      r0,[sp,#4]
        0x08002fee:    9000        ..      STR      r0,[sp,#0]
        0x08002ff0:    4833        3H      LDR      r0,[pc,#204] ; [0x80030c0] = 0x40021000
        0x08002ff2:    6800        .h      LDR      r0,[r0,#0]
        0x08002ff4:    f4403080    @..0    ORR      r0,r0,#0x10000
        0x08002ff8:    4931        1I      LDR      r1,[pc,#196] ; [0x80030c0] = 0x40021000
        0x08002ffa:    6008        .`      STR      r0,[r1,#0]
        0x08002ffc:    bf00        ..      NOP      
        0x08002ffe:    4830        0H      LDR      r0,[pc,#192] ; [0x80030c0] = 0x40021000
        0x08003000:    6800        .h      LDR      r0,[r0,#0]
        0x08003002:    f4003000    ...0    AND      r0,r0,#0x20000
        0x08003006:    9000        ..      STR      r0,[sp,#0]
        0x08003008:    9801        ..      LDR      r0,[sp,#4]
        0x0800300a:    1c40        @.      ADDS     r0,r0,#1
        0x0800300c:    9001        ..      STR      r0,[sp,#4]
        0x0800300e:    9800        ..      LDR      r0,[sp,#0]
        0x08003010:    b918        ..      CBNZ     r0,0x800301a ; SetSysClockTo72 + 50
        0x08003012:    9801        ..      LDR      r0,[sp,#4]
        0x08003014:    f5b06fa0    ...o    CMP      r0,#0x500
        0x08003018:    d1f1        ..      BNE      0x8002ffe ; SetSysClockTo72 + 22
        0x0800301a:    4829        )H      LDR      r0,[pc,#164] ; [0x80030c0] = 0x40021000
        0x0800301c:    6800        .h      LDR      r0,[r0,#0]
        0x0800301e:    f4003000    ...0    AND      r0,r0,#0x20000
        0x08003022:    b110        ..      CBZ      r0,0x800302a ; SetSysClockTo72 + 66
        0x08003024:    2001        .       MOVS     r0,#1
        0x08003026:    9000        ..      STR      r0,[sp,#0]
        0x08003028:    e001        ..      B        0x800302e ; SetSysClockTo72 + 70
        0x0800302a:    2000        .       MOVS     r0,#0
        0x0800302c:    9000        ..      STR      r0,[sp,#0]
        0x0800302e:    9800        ..      LDR      r0,[sp,#0]
        0x08003030:    2801        .(      CMP      r0,#1
        0x08003032:    d143        C.      BNE      0x80030bc ; SetSysClockTo72 + 212
        0x08003034:    4823        #H      LDR      r0,[pc,#140] ; [0x80030c4] = 0x40022000
        0x08003036:    6800        .h      LDR      r0,[r0,#0]
        0x08003038:    f0400010    @...    ORR      r0,r0,#0x10
        0x0800303c:    4921        !I      LDR      r1,[pc,#132] ; [0x80030c4] = 0x40022000
        0x0800303e:    6008        .`      STR      r0,[r1,#0]
        0x08003040:    4608        .F      MOV      r0,r1
        0x08003042:    6800        .h      LDR      r0,[r0,#0]
        0x08003044:    f0200003     ...    BIC      r0,r0,#3
        0x08003048:    6008        .`      STR      r0,[r1,#0]
        0x0800304a:    4608        .F      MOV      r0,r1
        0x0800304c:    6800        .h      LDR      r0,[r0,#0]
        0x0800304e:    f0400002    @...    ORR      r0,r0,#2
        0x08003052:    6008        .`      STR      r0,[r1,#0]
        0x08003054:    481a        .H      LDR      r0,[pc,#104] ; [0x80030c0] = 0x40021000
        0x08003056:    6840        @h      LDR      r0,[r0,#4]
        0x08003058:    4919        .I      LDR      r1,[pc,#100] ; [0x80030c0] = 0x40021000
        0x0800305a:    6048        H`      STR      r0,[r1,#4]
        0x0800305c:    4608        .F      MOV      r0,r1
        0x0800305e:    6840        @h      LDR      r0,[r0,#4]
        0x08003060:    6048        H`      STR      r0,[r1,#4]
        0x08003062:    4608        .F      MOV      r0,r1
        0x08003064:    6840        @h      LDR      r0,[r0,#4]
        0x08003066:    f4406080    @..`    ORR      r0,r0,#0x400
        0x0800306a:    6048        H`      STR      r0,[r1,#4]
        0x0800306c:    4608        .F      MOV      r0,r1
        0x0800306e:    6840        @h      LDR      r0,[r0,#4]
        0x08003070:    f420107c     .|.    BIC      r0,r0,#0x3f0000
        0x08003074:    6048        H`      STR      r0,[r1,#4]
        0x08003076:    4608        .F      MOV      r0,r1
        0x08003078:    6840        @h      LDR      r0,[r0,#4]
        0x0800307a:    f44010e8    @...    ORR      r0,r0,#0x1d0000
        0x0800307e:    6048        H`      STR      r0,[r1,#4]
        0x08003080:    4608        .F      MOV      r0,r1
        0x08003082:    6800        .h      LDR      r0,[r0,#0]
        0x08003084:    f0407080    @..p    ORR      r0,r0,#0x1000000
        0x08003088:    6008        .`      STR      r0,[r1,#0]
        0x0800308a:    bf00        ..      NOP      
        0x0800308c:    480c        .H      LDR      r0,[pc,#48] ; [0x80030c0] = 0x40021000
        0x0800308e:    6800        .h      LDR      r0,[r0,#0]
        0x08003090:    f0007000    ...p    AND      r0,r0,#0x2000000
        0x08003094:    2800        .(      CMP      r0,#0
        0x08003096:    d0f9        ..      BEQ      0x800308c ; SetSysClockTo72 + 164
        0x08003098:    4809        .H      LDR      r0,[pc,#36] ; [0x80030c0] = 0x40021000
        0x0800309a:    6840        @h      LDR      r0,[r0,#4]
        0x0800309c:    f0200003     ...    BIC      r0,r0,#3
        0x080030a0:    4907        .I      LDR      r1,[pc,#28] ; [0x80030c0] = 0x40021000
        0x080030a2:    6048        H`      STR      r0,[r1,#4]
        0x080030a4:    4608        .F      MOV      r0,r1
        0x080030a6:    6840        @h      LDR      r0,[r0,#4]
        0x080030a8:    f0400002    @...    ORR      r0,r0,#2
        0x080030ac:    6048        H`      STR      r0,[r1,#4]
        0x080030ae:    bf00        ..      NOP      
        0x080030b0:    4803        .H      LDR      r0,[pc,#12] ; [0x80030c0] = 0x40021000
        0x080030b2:    6840        @h      LDR      r0,[r0,#4]
        0x080030b4:    f000000c    ....    AND      r0,r0,#0xc
        0x080030b8:    2808        .(      CMP      r0,#8
        0x080030ba:    d1f9        ..      BNE      0x80030b0 ; SetSysClockTo72 + 200
        0x080030bc:    bd0c        ..      POP      {r2,r3,pc}
    $d
        0x080030be:    0000        ..      DCW    0
        0x080030c0:    40021000    ...@    DCD    1073876992
        0x080030c4:    40022000    . .@    DCD    1073881088
    $t
    i.SetTimerProcessFunction
    SetTimerProcessFunction
        0x080030c8:    4901        .I      LDR      r1,[pc,#4] ; [0x80030d0] = 0x20000014
        0x080030ca:    6008        .`      STR      r0,[r1,#0]
        0x080030cc:    4770        pG      BX       lr
    $d
        0x080030ce:    0000        ..      DCW    0
        0x080030d0:    20000014    ...     DCD    536870932
    $t
    i.ShowGraphInDisplayDev
    ShowGraphInDisplayDev
        0x080030d4:    e92d41f0    -..A    PUSH     {r4-r8,lr}
        0x080030d8:    4607        .F      MOV      r7,r0
        0x080030da:    460d        .F      MOV      r5,r1
        0x080030dc:    4616        .F      MOV      r6,r2
        0x080030de:    461c        .F      MOV      r4,r3
        0x080030e0:    6125        %a      STR      r5,[r4,#0x10]
        0x080030e2:    6166        fa      STR      r6,[r4,#0x14]
        0x080030e4:    6025        %`      STR      r5,[r4,#0]
        0x080030e6:    68e0        .h      LDR      r0,[r4,#0xc]
        0x080030e8:    1a30        0.      SUBS     r0,r6,r0
        0x080030ea:    1c40        @.      ADDS     r0,r0,#1
        0x080030ec:    6060        ``      STR      r0,[r4,#4]
        0x080030ee:    4621        !F      MOV      r1,r4
        0x080030f0:    4638        8F      MOV      r0,r7
        0x080030f2:    f7fdff5a    ..Z.    BL       DrawGraphBitMapOnFrameBuffer ; 0x8000faa
        0x080030f6:    e8bd81f0    ....    POP      {r4-r8,pc}
        0x080030fa:    0000        ..      MOVS     r0,r0
    i.ShowNumberInDisplayDev
    ShowNumberInDisplayDev
        0x080030fc:    e92d47f0    -..G    PUSH     {r4-r10,lr}
        0x08003100:    4606        .F      MOV      r6,r0
        0x08003102:    460f        .F      MOV      r7,r1
        0x08003104:    4690        .F      MOV      r8,r2
        0x08003106:    461c        .F      MOV      r4,r3
        0x08003108:    2500        .%      MOVS     r5,#0
        0x0800310a:    bf00        ..      NOP      
        0x0800310c:    200a        .       MOVS     r0,#0xa
        0x0800310e:    fb94f1f0    ....    SDIV     r1,r4,r0
        0x08003112:    fb004011    ...@    MLS      r0,r0,r1,r4
        0x08003116:    3030        00      ADDS     r0,r0,#0x30
        0x08003118:    b2c2        ..      UXTB     r2,r0
        0x0800311a:    4628        (F      MOV      r0,r5
        0x0800311c:    1c6d        m.      ADDS     r5,r5,#1
        0x0800311e:    490a        .I      LDR      r1,[pc,#40] ; [0x8003148] = 0x20002654
        0x08003120:    540a        .T      STRB     r2,[r1,r0]
        0x08003122:    200a        .       MOVS     r0,#0xa
        0x08003124:    fb94f4f0    ....    SDIV     r4,r4,r0
        0x08003128:    2c00        .,      CMP      r4,#0
        0x0800312a:    dcef        ..      BGT      0x800310c ; ShowNumberInDisplayDev + 16
        0x0800312c:    2000        .       MOVS     r0,#0
        0x0800312e:    5548        HU      STRB     r0,[r1,r5]
        0x08003130:    4608        .F      MOV      r0,r1
        0x08003132:    f001fa26    ..&.    BL       reverse ; 0x8004582
        0x08003136:    4681        .F      MOV      r9,r0
        0x08003138:    464b        KF      MOV      r3,r9
        0x0800313a:    4642        BF      MOV      r2,r8
        0x0800313c:    4639        9F      MOV      r1,r7
        0x0800313e:    4630        0F      MOV      r0,r6
        0x08003140:    f000f804    ....    BL       ShowTextInDisplayDev ; 0x800314c
        0x08003144:    e8bd87f0    ....    POP      {r4-r10,pc}
    $d
        0x08003148:    20002654    T&.     DCD    536880724
    $t
    i.ShowTextInDisplayDev
    ShowTextInDisplayDev
        0x0800314c:    e92d41f0    -..A    PUSH     {r4-r8,lr}
        0x08003150:    b08a        ..      SUB      sp,sp,#0x28
        0x08003152:    4680        .F      MOV      r8,r0
        0x08003154:    460e        .F      MOV      r6,r1
        0x08003156:    4617        .F      MOV      r7,r2
        0x08003158:    461c        .F      MOV      r4,r3
        0x0800315a:    2500        .%      MOVS     r5,#0
        0x0800315c:    9605        ..      STR      r6,[sp,#0x14]
        0x0800315e:    9706        ..      STR      r7,[sp,#0x18]
        0x08003160:    e013        ..      B        0x800318a ; ShowTextInDisplayDev + 62
        0x08003162:    1960        `.      ADDS     r0,r4,r5
        0x08003164:    4669        iF      MOV      r1,sp
        0x08003166:    f7fdff43    ..C.    BL       EncodeStr ; 0x8000ff0
        0x0800316a:    1c6d        m.      ADDS     r5,r5,#1
        0x0800316c:    2000        .       MOVS     r0,#0
        0x0800316e:    9009        ..      STR      r0,[sp,#0x24]
        0x08003170:    a901        ..      ADD      r1,sp,#4
        0x08003172:    9800        ..      LDR      r0,[sp,#0]
        0x08003174:    f7fefb40    ..@.    BL       GetFontBitMap ; 0x80017f8
        0x08003178:    b918        ..      CBNZ     r0,0x8003182 ; ShowTextInDisplayDev + 54
        0x0800317a:    a901        ..      ADD      r1,sp,#4
        0x0800317c:    4640        @F      MOV      r0,r8
        0x0800317e:    f7fdfef1    ....    BL       DrawBitMapOnFrameBuffer ; 0x8000f64
        0x08003182:    9807        ..      LDR      r0,[sp,#0x1c]
        0x08003184:    9005        ..      STR      r0,[sp,#0x14]
        0x08003186:    9808        ..      LDR      r0,[sp,#0x20]
        0x08003188:    9006        ..      STR      r0,[sp,#0x18]
        0x0800318a:    5d60        `]      LDRB     r0,[r4,r5]
        0x0800318c:    2800        .(      CMP      r0,#0
        0x0800318e:    d1e8        ..      BNE      0x8003162 ; ShowTextInDisplayDev + 22
        0x08003190:    b00a        ..      ADD      sp,sp,#0x28
        0x08003192:    e8bd81f0    ....    POP      {r4-r8,pc}
    i.SysTick_Handler
    SysTick_Handler
        0x08003196:    4770        pG      BX       lr
    i.SystemInit
    SystemInit
        0x08003198:    b510        ..      PUSH     {r4,lr}
        0x0800319a:    4813        .H      LDR      r0,[pc,#76] ; [0x80031e8] = 0x40021000
        0x0800319c:    6800        .h      LDR      r0,[r0,#0]
        0x0800319e:    f0400001    @...    ORR      r0,r0,#1
        0x080031a2:    4911        .I      LDR      r1,[pc,#68] ; [0x80031e8] = 0x40021000
        0x080031a4:    6008        .`      STR      r0,[r1,#0]
        0x080031a6:    4608        .F      MOV      r0,r1
        0x080031a8:    6840        @h      LDR      r0,[r0,#4]
        0x080031aa:    4910        .I      LDR      r1,[pc,#64] ; [0x80031ec] = 0xf8ff0000
        0x080031ac:    4008        .@      ANDS     r0,r0,r1
        0x080031ae:    490e        .I      LDR      r1,[pc,#56] ; [0x80031e8] = 0x40021000
        0x080031b0:    6048        H`      STR      r0,[r1,#4]
        0x080031b2:    4608        .F      MOV      r0,r1
        0x080031b4:    6800        .h      LDR      r0,[r0,#0]
        0x080031b6:    490e        .I      LDR      r1,[pc,#56] ; [0x80031f0] = 0xfef6ffff
        0x080031b8:    4008        .@      ANDS     r0,r0,r1
        0x080031ba:    490b        .I      LDR      r1,[pc,#44] ; [0x80031e8] = 0x40021000
        0x080031bc:    6008        .`      STR      r0,[r1,#0]
        0x080031be:    4608        .F      MOV      r0,r1
        0x080031c0:    6800        .h      LDR      r0,[r0,#0]
        0x080031c2:    f4202080     ..     BIC      r0,r0,#0x40000
        0x080031c6:    6008        .`      STR      r0,[r1,#0]
        0x080031c8:    4608        .F      MOV      r0,r1
        0x080031ca:    6840        @h      LDR      r0,[r0,#4]
        0x080031cc:    f42000fe     ...    BIC      r0,r0,#0x7f0000
        0x080031d0:    6048        H`      STR      r0,[r1,#4]
        0x080031d2:    f44f001f    O...    MOV      r0,#0x9f0000
        0x080031d6:    6088        .`      STR      r0,[r1,#8]
        0x080031d8:    f7ffff02    ....    BL       SetSysClock ; 0x8002fe0
        0x080031dc:    f04f6000    O..`    MOV      r0,#0x8000000
        0x080031e0:    4904        .I      LDR      r1,[pc,#16] ; [0x80031f4] = 0xe000ed08
        0x080031e2:    6008        .`      STR      r0,[r1,#0]
        0x080031e4:    bd10        ..      POP      {r4,pc}
    $d
        0x080031e6:    0000        ..      DCW    0
        0x080031e8:    40021000    ...@    DCD    1073876992
        0x080031ec:    f8ff0000    ....    DCD    4177461248
        0x080031f0:    fef6ffff    ....    DCD    4277600255
        0x080031f4:    e000ed08    ....    DCD    3758157064
    $t
    i.TIM2_IRQHandler
    TIM2_IRQHandler
        0x080031f8:    b510        ..      PUSH     {r4,lr}
        0x080031fa:    2101        .!      MOVS     r1,#1
        0x080031fc:    0788        ..      LSLS     r0,r1,#30
        0x080031fe:    f000f826    ..&.    BL       TIM_GetITStatus ; 0x800324e
        0x08003202:    b178        x.      CBZ      r0,0x8003224 ; TIM2_IRQHandler + 44
        0x08003204:    2101        .!      MOVS     r1,#1
        0x08003206:    0788        ..      LSLS     r0,r1,#30
        0x08003208:    f000f812    ....    BL       TIM_ClearITPendingBit ; 0x8003230
        0x0800320c:    4806        .H      LDR      r0,[pc,#24] ; [0x8003228] = 0x20000014
        0x0800320e:    6800        .h      LDR      r0,[r0,#0]
        0x08003210:    b110        ..      CBZ      r0,0x8003218 ; TIM2_IRQHandler + 32
        0x08003212:    4805        .H      LDR      r0,[pc,#20] ; [0x8003228] = 0x20000014
        0x08003214:    6800        .h      LDR      r0,[r0,#0]
        0x08003216:    4780        .G      BLX      r0
        0x08003218:    4804        .H      LDR      r0,[pc,#16] ; [0x800322c] = 0x2000010c
        0x0800321a:    6800        .h      LDR      r0,[r0,#0]
        0x0800321c:    2801        .(      CMP      r0,#1
        0x0800321e:    d101        ..      BNE      0x8003224 ; TIM2_IRQHandler + 44
        0x08003220:    f000f916    ....    BL       TimerFlushDisplayDev ; 0x8003450
        0x08003224:    bd10        ..      POP      {r4,pc}
    $d
        0x08003226:    0000        ..      DCW    0
        0x08003228:    20000014    ...     DCD    536870932
        0x0800322c:    2000010c    ...     DCD    536871180
    $t
    i.TIM_ClearITPendingBit
    TIM_ClearITPendingBit
        0x08003230:    43ca        .C      MVNS     r2,r1
        0x08003232:    8202        ..      STRH     r2,[r0,#0x10]
        0x08003234:    4770        pG      BX       lr
    i.TIM_Cmd
    TIM_Cmd
        0x08003236:    b121        !.      CBZ      r1,0x8003242 ; TIM_Cmd + 12
        0x08003238:    8802        ..      LDRH     r2,[r0,#0]
        0x0800323a:    f0420201    B...    ORR      r2,r2,#1
        0x0800323e:    8002        ..      STRH     r2,[r0,#0]
        0x08003240:    e004        ..      B        0x800324c ; TIM_Cmd + 22
        0x08003242:    8802        ..      LDRH     r2,[r0,#0]
        0x08003244:    f64f73fe    O..s    MOV      r3,#0xfffe
        0x08003248:    401a        .@      ANDS     r2,r2,r3
        0x0800324a:    8002        ..      STRH     r2,[r0,#0]
        0x0800324c:    4770        pG      BX       lr
    i.TIM_GetITStatus
    TIM_GetITStatus
        0x0800324e:    b530        0.      PUSH     {r4,r5,lr}
        0x08003250:    4602        .F      MOV      r2,r0
        0x08003252:    2000        .       MOVS     r0,#0
        0x08003254:    2300        .#      MOVS     r3,#0
        0x08003256:    2400        .$      MOVS     r4,#0
        0x08003258:    8a15        ..      LDRH     r5,[r2,#0x10]
        0x0800325a:    ea050301    ....    AND      r3,r5,r1
        0x0800325e:    8995        ..      LDRH     r5,[r2,#0xc]
        0x08003260:    ea050401    ....    AND      r4,r5,r1
        0x08003264:    b113        ..      CBZ      r3,0x800326c ; TIM_GetITStatus + 30
        0x08003266:    b10c        ..      CBZ      r4,0x800326c ; TIM_GetITStatus + 30
        0x08003268:    2001        .       MOVS     r0,#1
        0x0800326a:    e000        ..      B        0x800326e ; TIM_GetITStatus + 32
        0x0800326c:    2000        .       MOVS     r0,#0
        0x0800326e:    bd30        0.      POP      {r4,r5,pc}
    i.TIM_ITConfig
    TIM_ITConfig
        0x08003270:    b11a        ..      CBZ      r2,0x800327a ; TIM_ITConfig + 10
        0x08003272:    8983        ..      LDRH     r3,[r0,#0xc]
        0x08003274:    430b        .C      ORRS     r3,r3,r1
        0x08003276:    8183        ..      STRH     r3,[r0,#0xc]
        0x08003278:    e002        ..      B        0x8003280 ; TIM_ITConfig + 16
        0x0800327a:    8983        ..      LDRH     r3,[r0,#0xc]
        0x0800327c:    438b        .C      BICS     r3,r3,r1
        0x0800327e:    8183        ..      STRH     r3,[r0,#0xc]
        0x08003280:    4770        pG      BX       lr
        0x08003282:    0000        ..      MOVS     r0,r0
    i.TIM_OC3Init
    TIM_OC3Init
        0x08003284:    b570        p.      PUSH     {r4-r6,lr}
        0x08003286:    2400        .$      MOVS     r4,#0
        0x08003288:    2200        ."      MOVS     r2,#0
        0x0800328a:    2300        .#      MOVS     r3,#0
        0x0800328c:    8c05        ..      LDRH     r5,[r0,#0x20]
        0x0800328e:    f64f66ff    O..f    MOV      r6,#0xfeff
        0x08003292:    4035        5@      ANDS     r5,r5,r6
        0x08003294:    8405        ..      STRH     r5,[r0,#0x20]
        0x08003296:    8c02        ..      LDRH     r2,[r0,#0x20]
        0x08003298:    8883        ..      LDRH     r3,[r0,#4]
        0x0800329a:    8b84        ..      LDRH     r4,[r0,#0x1c]
        0x0800329c:    f64f758f    O..u    MOV      r5,#0xff8f
        0x080032a0:    402c        ,@      ANDS     r4,r4,r5
        0x080032a2:    f64f75fc    O..u    MOV      r5,#0xfffc
        0x080032a6:    402c        ,@      ANDS     r4,r4,r5
        0x080032a8:    880d        ..      LDRH     r5,[r1,#0]
        0x080032aa:    432c        ,C      ORRS     r4,r4,r5
        0x080032ac:    f64f55ff    O..U    MOV      r5,#0xfdff
        0x080032b0:    402a        *@      ANDS     r2,r2,r5
        0x080032b2:    890d        ..      LDRH     r5,[r1,#8]
        0x080032b4:    f64f76ff    O..v    MOV      r6,#0xffff
        0x080032b8:    ea062505    ...%    AND      r5,r6,r5,LSL #8
        0x080032bc:    432a        *C      ORRS     r2,r2,r5
        0x080032be:    884d        M.      LDRH     r5,[r1,#2]
        0x080032c0:    ea062505    ...%    AND      r5,r6,r5,LSL #8
        0x080032c4:    432a        *C      ORRS     r2,r2,r5
        0x080032c6:    4d15        .M      LDR      r5,[pc,#84] ; [0x800331c] = 0x40012c00
        0x080032c8:    42a8        .B      CMP      r0,r5
        0x080032ca:    d002        ..      BEQ      0x80032d2 ; TIM_OC3Init + 78
        0x080032cc:    4d14        .M      LDR      r5,[pc,#80] ; [0x8003320] = 0x40013400
        0x080032ce:    42a8        .B      CMP      r0,r5
        0x080032d0:    d11d        ..      BNE      0x800330e ; TIM_OC3Init + 138
        0x080032d2:    f24f75ff    O..u    MOV      r5,#0xf7ff
        0x080032d6:    402a        *@      ANDS     r2,r2,r5
        0x080032d8:    894d        M.      LDRH     r5,[r1,#0xa]
        0x080032da:    f64f76ff    O..v    MOV      r6,#0xffff
        0x080032de:    ea062505    ...%    AND      r5,r6,r5,LSL #8
        0x080032e2:    432a        *C      ORRS     r2,r2,r5
        0x080032e4:    f64f35ff    O..5    MOV      r5,#0xfbff
        0x080032e8:    402a        *@      ANDS     r2,r2,r5
        0x080032ea:    888d        ..      LDRH     r5,[r1,#4]
        0x080032ec:    ea062505    ...%    AND      r5,r6,r5,LSL #8
        0x080032f0:    432a        *C      ORRS     r2,r2,r5
        0x080032f2:    f64e75ff    N..u    MOV      r5,#0xefff
        0x080032f6:    402b        +@      ANDS     r3,r3,r5
        0x080032f8:    f64d75ff    M..u    MOV      r5,#0xdfff
        0x080032fc:    402b        +@      ANDS     r3,r3,r5
        0x080032fe:    898d        ..      LDRH     r5,[r1,#0xc]
        0x08003300:    ea061505    ....    AND      r5,r6,r5,LSL #4
        0x08003304:    432b        +C      ORRS     r3,r3,r5
        0x08003306:    89cd        ..      LDRH     r5,[r1,#0xe]
        0x08003308:    ea061505    ....    AND      r5,r6,r5,LSL #4
        0x0800330c:    432b        +C      ORRS     r3,r3,r5
        0x0800330e:    8083        ..      STRH     r3,[r0,#4]
        0x08003310:    8384        ..      STRH     r4,[r0,#0x1c]
        0x08003312:    88cd        ..      LDRH     r5,[r1,#6]
        0x08003314:    8785        ..      STRH     r5,[r0,#0x3c]
        0x08003316:    8402        ..      STRH     r2,[r0,#0x20]
        0x08003318:    bd70        p.      POP      {r4-r6,pc}
    $d
        0x0800331a:    0000        ..      DCW    0
        0x0800331c:    40012c00    .,.@    DCD    1073818624
        0x08003320:    40013400    .4.@    DCD    1073820672
    $t
    i.TIM_OC3PreloadConfig
    TIM_OC3PreloadConfig
        0x08003324:    460a        .F      MOV      r2,r1
        0x08003326:    2100        .!      MOVS     r1,#0
        0x08003328:    8b81        ..      LDRH     r1,[r0,#0x1c]
        0x0800332a:    f64f73f7    O..s    MOV      r3,#0xfff7
        0x0800332e:    4019        .@      ANDS     r1,r1,r3
        0x08003330:    4311        .C      ORRS     r1,r1,r2
        0x08003332:    8381        ..      STRH     r1,[r0,#0x1c]
        0x08003334:    4770        pG      BX       lr
        0x08003336:    0000        ..      MOVS     r0,r0
    i.TIM_TimeBaseInit
    TIM_TimeBaseInit
        0x08003338:    2200        ."      MOVS     r2,#0
        0x0800333a:    8802        ..      LDRH     r2,[r0,#0]
        0x0800333c:    4b1d        .K      LDR      r3,[pc,#116] ; [0x80033b4] = 0x40012c00
        0x0800333e:    4298        .B      CMP      r0,r3
        0x08003340:    d00e        ..      BEQ      0x8003360 ; TIM_TimeBaseInit + 40
        0x08003342:    4b1d        .K      LDR      r3,[pc,#116] ; [0x80033b8] = 0x40013400
        0x08003344:    4298        .B      CMP      r0,r3
        0x08003346:    d00b        ..      BEQ      0x8003360 ; TIM_TimeBaseInit + 40
        0x08003348:    f1b04f80    ...O    CMP      r0,#0x40000000
        0x0800334c:    d008        ..      BEQ      0x8003360 ; TIM_TimeBaseInit + 40
        0x0800334e:    4b1b        .K      LDR      r3,[pc,#108] ; [0x80033bc] = 0x40000400
        0x08003350:    4298        .B      CMP      r0,r3
        0x08003352:    d005        ..      BEQ      0x8003360 ; TIM_TimeBaseInit + 40
        0x08003354:    4b1a        .K      LDR      r3,[pc,#104] ; [0x80033c0] = 0x40000800
        0x08003356:    4298        .B      CMP      r0,r3
        0x08003358:    d002        ..      BEQ      0x8003360 ; TIM_TimeBaseInit + 40
        0x0800335a:    4b1a        .K      LDR      r3,[pc,#104] ; [0x80033c4] = 0x40000c00
        0x0800335c:    4298        .B      CMP      r0,r3
        0x0800335e:    d104        ..      BNE      0x800336a ; TIM_TimeBaseInit + 50
        0x08003360:    f64f738f    O..s    MOV      r3,#0xff8f
        0x08003364:    401a        .@      ANDS     r2,r2,r3
        0x08003366:    884b        K.      LDRH     r3,[r1,#2]
        0x08003368:    431a        .C      ORRS     r2,r2,r3
        0x0800336a:    4b17        .K      LDR      r3,[pc,#92] ; [0x80033c8] = 0x40001000
        0x0800336c:    4298        .B      CMP      r0,r3
        0x0800336e:    d007        ..      BEQ      0x8003380 ; TIM_TimeBaseInit + 72
        0x08003370:    4b16        .K      LDR      r3,[pc,#88] ; [0x80033cc] = 0x40001400
        0x08003372:    4298        .B      CMP      r0,r3
        0x08003374:    d004        ..      BEQ      0x8003380 ; TIM_TimeBaseInit + 72
        0x08003376:    f64f43ff    O..C    MOV      r3,#0xfcff
        0x0800337a:    401a        .@      ANDS     r2,r2,r3
        0x0800337c:    88cb        ..      LDRH     r3,[r1,#6]
        0x0800337e:    431a        .C      ORRS     r2,r2,r3
        0x08003380:    8002        ..      STRH     r2,[r0,#0]
        0x08003382:    888b        ..      LDRH     r3,[r1,#4]
        0x08003384:    8583        ..      STRH     r3,[r0,#0x2c]
        0x08003386:    880b        ..      LDRH     r3,[r1,#0]
        0x08003388:    8503        ..      STRH     r3,[r0,#0x28]
        0x0800338a:    4b0a        .K      LDR      r3,[pc,#40] ; [0x80033b4] = 0x40012c00
        0x0800338c:    4298        .B      CMP      r0,r3
        0x0800338e:    d00b        ..      BEQ      0x80033a8 ; TIM_TimeBaseInit + 112
        0x08003390:    4b09        .K      LDR      r3,[pc,#36] ; [0x80033b8] = 0x40013400
        0x08003392:    4298        .B      CMP      r0,r3
        0x08003394:    d008        ..      BEQ      0x80033a8 ; TIM_TimeBaseInit + 112
        0x08003396:    4b0e        .K      LDR      r3,[pc,#56] ; [0x80033d0] = 0x40014000
        0x08003398:    4298        .B      CMP      r0,r3
        0x0800339a:    d005        ..      BEQ      0x80033a8 ; TIM_TimeBaseInit + 112
        0x0800339c:    4b0d        .K      LDR      r3,[pc,#52] ; [0x80033d4] = 0x40014400
        0x0800339e:    4298        .B      CMP      r0,r3
        0x080033a0:    d002        ..      BEQ      0x80033a8 ; TIM_TimeBaseInit + 112
        0x080033a2:    4b0d        .K      LDR      r3,[pc,#52] ; [0x80033d8] = 0x40014800
        0x080033a4:    4298        .B      CMP      r0,r3
        0x080033a6:    d101        ..      BNE      0x80033ac ; TIM_TimeBaseInit + 116
        0x080033a8:    7a0b        .z      LDRB     r3,[r1,#8]
        0x080033aa:    8603        ..      STRH     r3,[r0,#0x30]
        0x080033ac:    2301        .#      MOVS     r3,#1
        0x080033ae:    8283        ..      STRH     r3,[r0,#0x14]
        0x080033b0:    4770        pG      BX       lr
    $d
        0x080033b2:    0000        ..      DCW    0
        0x080033b4:    40012c00    .,.@    DCD    1073818624
        0x080033b8:    40013400    .4.@    DCD    1073820672
        0x080033bc:    40000400    ...@    DCD    1073742848
        0x080033c0:    40000800    ...@    DCD    1073743872
        0x080033c4:    40000c00    ...@    DCD    1073744896
        0x080033c8:    40001000    ...@    DCD    1073745920
        0x080033cc:    40001400    ...@    DCD    1073746944
        0x080033d0:    40014000    .@.@    DCD    1073823744
        0x080033d4:    40014400    .D.@    DCD    1073824768
        0x080033d8:    40014800    .H.@    DCD    1073825792
    $t
    i.TKLPVisit
    TKLPVisit
        0x080033dc:    b510        ..      PUSH     {r4,lr}
        0x080033de:    4604        .F      MOV      r4,r0
        0x080033e0:    6960        `i      LDR      r0,[r4,#0x14]
        0x080033e2:    4780        .G      BLX      r0
        0x080033e4:    bd10        ..      POP      {r4,pc}
    i.TKSPVisit
    TKSPVisit
        0x080033e6:    b510        ..      PUSH     {r4,lr}
        0x080033e8:    4604        .F      MOV      r4,r0
        0x080033ea:    68a0        .h      LDR      r0,[r4,#8]
        0x080033ec:    4780        .G      BLX      r0
        0x080033ee:    bd10        ..      POP      {r4,pc}
    i.TempatureChooseFUN
    TempatureChooseFUN
        0x080033f0:    b538        8.      PUSH     {r3-r5,lr}
        0x080033f2:    4604        .F      MOV      r4,r0
        0x080033f4:    2030        0       MOVS     r0,#0x30
        0x080033f6:    4603        .F      MOV      r3,r0
        0x080033f8:    2240        @"      MOVS     r2,#0x40
        0x080033fa:    2128        (!      MOVS     r1,#0x28
        0x080033fc:    9000        ..      STR      r0,[sp,#0]
        0x080033fe:    4806        .H      LDR      r0,[pc,#24] ; [0x8003418] = 0x20000790
        0x08003400:    6800        .h      LDR      r0,[r0,#0]
        0x08003402:    f7fdfaaf    ....    BL       ClearInDisplayDev ; 0x8000964
        0x08003406:    4b05        .K      LDR      r3,[pc,#20] ; [0x800341c] = 0x20000570
        0x08003408:    2240        @"      MOVS     r2,#0x40
        0x0800340a:    2128        (!      MOVS     r1,#0x28
        0x0800340c:    4802        .H      LDR      r0,[pc,#8] ; [0x8003418] = 0x20000790
        0x0800340e:    6800        .h      LDR      r0,[r0,#0]
        0x08003410:    f7fffe60    ..`.    BL       ShowGraphInDisplayDev ; 0x80030d4
        0x08003414:    bd38        8.      POP      {r3-r5,pc}
    $d
        0x08003416:    0000        ..      DCW    0
        0x08003418:    20000790    ...     DCD    536872848
        0x0800341c:    20000570    p..     DCD    536872304
    $t
    i.TempatureEnterFUN
    TempatureEnterFUN
        0x08003420:    b510        ..      PUSH     {r4,lr}
        0x08003422:    4604        .F      MOV      r4,r0
        0x08003424:    4804        .H      LDR      r0,[pc,#16] ; [0x8003438] = 0x200006f0
        0x08003426:    6800        .h      LDR      r0,[r0,#0]
        0x08003428:    b910        ..      CBNZ     r0,0x8003430 ; TempatureEnterFUN + 16
        0x0800342a:    a004        ..      ADR      r0,{pc}+0x12 ; 0x800343c
        0x0800342c:    f000f98e    ....    BL       __0printf$3 ; 0x800374c
        0x08003430:    2001        .       MOVS     r0,#1
        0x08003432:    4901        .I      LDR      r1,[pc,#4] ; [0x8003438] = 0x200006f0
        0x08003434:    6008        .`      STR      r0,[r1,#0]
        0x08003436:    bd10        ..      POP      {r4,pc}
    $d
        0x08003438:    200006f0    ...     DCD    536872688
        0x0800343c:    bccaaabf    ....    DCD    3167398591
        0x08003440:    aacac2ce    ....    DCD    2865414862
        0x08003444:    ecbcc8b6    ....    DCD    3971795126
        0x08003448:    0d2ee2b2    ....    DCD    221176498
        0x0800344c:    0000000a    ....    DCD    10
    $t
    i.TimerFlushDisplayDev
    TimerFlushDisplayDev
        0x08003450:    b510        ..      PUSH     {r4,lr}
        0x08003452:    4806        .H      LDR      r0,[pc,#24] ; [0x800346c] = 0x20000124
        0x08003454:    6800        .h      LDR      r0,[r0,#0]
        0x08003456:    1c40        @.      ADDS     r0,r0,#1
        0x08003458:    4904        .I      LDR      r1,[pc,#16] ; [0x800346c] = 0x20000124
        0x0800345a:    6008        .`      STR      r0,[r1,#0]
        0x0800345c:    4804        .H      LDR      r0,[pc,#16] ; [0x8003470] = 0x20000120
        0x0800345e:    6800        .h      LDR      r0,[r0,#0]
        0x08003460:    69c1        .i      LDR      r1,[r0,#0x1c]
        0x08003462:    4803        .H      LDR      r0,[pc,#12] ; [0x8003470] = 0x20000120
        0x08003464:    6800        .h      LDR      r0,[r0,#0]
        0x08003466:    4788        .G      BLX      r1
        0x08003468:    2000        .       MOVS     r0,#0
        0x0800346a:    bd10        ..      POP      {r4,pc}
    $d
        0x0800346c:    20000124    $..     DCD    536871204
        0x08003470:    20000120     ..     DCD    536871200
    $t
    i.USART1_IRQHandler
    USART1_IRQHandler
        0x08003474:    b510        ..      PUSH     {r4,lr}
        0x08003476:    4804        .H      LDR      r0,[pc,#16] ; [0x8003488] = 0x40013800
        0x08003478:    f000f8fc    ....    BL       USART_ReceiveData ; 0x8003674
        0x0800347c:    b2c4        ..      UXTB     r4,r0
        0x0800347e:    4903        .I      LDR      r1,[pc,#12] ; [0x800348c] = 0x20001024
        0x08003480:    4620         F      MOV      r0,r4
        0x08003482:    f001f896    ....    BL       ring_buffer_write ; 0x80045b2
        0x08003486:    bd10        ..      POP      {r4,pc}
    $d
        0x08003488:    40013800    .8.@    DCD    1073821696
        0x0800348c:    20001024    $..     DCD    536875044
    $t
    i.USART_Cmd
    USART_Cmd
        0x08003490:    b121        !.      CBZ      r1,0x800349c ; USART_Cmd + 12
        0x08003492:    8982        ..      LDRH     r2,[r0,#0xc]
        0x08003494:    f4425200    B..R    ORR      r2,r2,#0x2000
        0x08003498:    8182        ..      STRH     r2,[r0,#0xc]
        0x0800349a:    e004        ..      B        0x80034a6 ; USART_Cmd + 22
        0x0800349c:    8982        ..      LDRH     r2,[r0,#0xc]
        0x0800349e:    f64d73ff    M..s    MOV      r3,#0xdfff
        0x080034a2:    401a        .@      ANDS     r2,r2,r3
        0x080034a4:    8182        ..      STRH     r2,[r0,#0xc]
        0x080034a6:    4770        pG      BX       lr
    i.USART_Config
    USART_Config
        0x080034a8:    b500        ..      PUSH     {lr}
        0x080034aa:    b085        ..      SUB      sp,sp,#0x14
        0x080034ac:    2101        .!      MOVS     r1,#1
        0x080034ae:    2004        .       MOVS     r0,#4
        0x080034b0:    f7fffad4    ....    BL       RCC_APB2PeriphClockCmd ; 0x8002a5c
        0x080034b4:    2101        .!      MOVS     r1,#1
        0x080034b6:    0388        ..      LSLS     r0,r1,#14
        0x080034b8:    f7fffad0    ....    BL       RCC_APB2PeriphClockCmd ; 0x8002a5c
        0x080034bc:    f44f7000    O..p    MOV      r0,#0x200
        0x080034c0:    f8ad0010    ....    STRH     r0,[sp,#0x10]
        0x080034c4:    2018        .       MOVS     r0,#0x18
        0x080034c6:    f88d0013    ....    STRB     r0,[sp,#0x13]
        0x080034ca:    2003        .       MOVS     r0,#3
        0x080034cc:    f88d0012    ....    STRB     r0,[sp,#0x12]
        0x080034d0:    a904        ..      ADD      r1,sp,#0x10
        0x080034d2:    4817        .H      LDR      r0,[pc,#92] ; [0x8003530] = 0x40010800
        0x080034d4:    f7fdfea2    ....    BL       GPIO_Init ; 0x800121c
        0x080034d8:    f44f6080    O..`    MOV      r0,#0x400
        0x080034dc:    f8ad0010    ....    STRH     r0,[sp,#0x10]
        0x080034e0:    2004        .       MOVS     r0,#4
        0x080034e2:    f88d0013    ....    STRB     r0,[sp,#0x13]
        0x080034e6:    a904        ..      ADD      r1,sp,#0x10
        0x080034e8:    4811        .H      LDR      r0,[pc,#68] ; [0x8003530] = 0x40010800
        0x080034ea:    f7fdfe97    ....    BL       GPIO_Init ; 0x800121c
        0x080034ee:    f44f30e1    O..0    MOV      r0,#0x1c200
        0x080034f2:    9000        ..      STR      r0,[sp,#0]
        0x080034f4:    2000        .       MOVS     r0,#0
        0x080034f6:    f8ad0004    ....    STRH     r0,[sp,#4]
        0x080034fa:    f8ad0006    ....    STRH     r0,[sp,#6]
        0x080034fe:    f8ad0008    ....    STRH     r0,[sp,#8]
        0x08003502:    f8ad000c    ....    STRH     r0,[sp,#0xc]
        0x08003506:    200c        .       MOVS     r0,#0xc
        0x08003508:    f8ad000a    ....    STRH     r0,[sp,#0xa]
        0x0800350c:    4669        iF      MOV      r1,sp
        0x0800350e:    4809        .H      LDR      r0,[pc,#36] ; [0x8003534] = 0x40013800
        0x08003510:    f000f844    ..D.    BL       USART_Init ; 0x800359c
        0x08003514:    f7fefe23    ..#.    BL       NVIC_Configuration ; 0x800215e
        0x08003518:    2201        ."      MOVS     r2,#1
        0x0800351a:    f2405125    @.%Q    MOV      r1,#0x525
        0x0800351e:    4805        .H      LDR      r0,[pc,#20] ; [0x8003534] = 0x40013800
        0x08003520:    f000f817    ....    BL       USART_ITConfig ; 0x8003552
        0x08003524:    2101        .!      MOVS     r1,#1
        0x08003526:    4803        .H      LDR      r0,[pc,#12] ; [0x8003534] = 0x40013800
        0x08003528:    f7ffffb2    ....    BL       USART_Cmd ; 0x8003490
        0x0800352c:    b005        ..      ADD      sp,sp,#0x14
        0x0800352e:    bd00        ..      POP      {pc}
    $d
        0x08003530:    40010800    ...@    DCD    1073809408
        0x08003534:    40013800    .8.@    DCD    1073821696
    $t
    i.USART_GetFlagStatus
    USART_GetFlagStatus
        0x08003538:    4602        .F      MOV      r2,r0
        0x0800353a:    2000        .       MOVS     r0,#0
        0x0800353c:    f5b17f00    ....    CMP      r1,#0x200
        0x08003540:    d100        ..      BNE      0x8003544 ; USART_GetFlagStatus + 12
        0x08003542:    bf00        ..      NOP      
        0x08003544:    8813        ..      LDRH     r3,[r2,#0]
        0x08003546:    400b        .@      ANDS     r3,r3,r1
        0x08003548:    b10b        ..      CBZ      r3,0x800354e ; USART_GetFlagStatus + 22
        0x0800354a:    2001        .       MOVS     r0,#1
        0x0800354c:    e000        ..      B        0x8003550 ; USART_GetFlagStatus + 24
        0x0800354e:    2000        .       MOVS     r0,#0
        0x08003550:    4770        pG      BX       lr
    i.USART_ITConfig
    USART_ITConfig
        0x08003552:    b5f0        ..      PUSH     {r4-r7,lr}
        0x08003554:    4603        .F      MOV      r3,r0
        0x08003556:    2400        .$      MOVS     r4,#0
        0x08003558:    2600        .&      MOVS     r6,#0
        0x0800355a:    2500        .%      MOVS     r5,#0
        0x0800355c:    2000        .       MOVS     r0,#0
        0x0800355e:    f640176a    @.j.    MOV      r7,#0x96a
        0x08003562:    42b9        .B      CMP      r1,r7
        0x08003564:    d100        ..      BNE      0x8003568 ; USART_ITConfig + 22
        0x08003566:    bf00        ..      NOP      
        0x08003568:    4618        .F      MOV      r0,r3
        0x0800356a:    f3c11442    ..B.    UBFX     r4,r1,#5,#3
        0x0800356e:    f001061f    ....    AND      r6,r1,#0x1f
        0x08003572:    2701        .'      MOVS     r7,#1
        0x08003574:    fa07f506    ....    LSL      r5,r7,r6
        0x08003578:    2c01        .,      CMP      r4,#1
        0x0800357a:    d101        ..      BNE      0x8003580 ; USART_ITConfig + 46
        0x0800357c:    300c        .0      ADDS     r0,r0,#0xc
        0x0800357e:    e004        ..      B        0x800358a ; USART_ITConfig + 56
        0x08003580:    2c02        .,      CMP      r4,#2
        0x08003582:    d101        ..      BNE      0x8003588 ; USART_ITConfig + 54
        0x08003584:    3010        .0      ADDS     r0,r0,#0x10
        0x08003586:    e000        ..      B        0x800358a ; USART_ITConfig + 56
        0x08003588:    3014        .0      ADDS     r0,r0,#0x14
        0x0800358a:    b11a        ..      CBZ      r2,0x8003594 ; USART_ITConfig + 66
        0x0800358c:    6807        .h      LDR      r7,[r0,#0]
        0x0800358e:    432f        /C      ORRS     r7,r7,r5
        0x08003590:    6007        .`      STR      r7,[r0,#0]
        0x08003592:    e002        ..      B        0x800359a ; USART_ITConfig + 72
        0x08003594:    6807        .h      LDR      r7,[r0,#0]
        0x08003596:    43af        .C      BICS     r7,r7,r5
        0x08003598:    6007        .`      STR      r7,[r0,#0]
        0x0800359a:    bdf0        ..      POP      {r4-r7,pc}
    i.USART_Init
    USART_Init
        0x0800359c:    e92d47f0    -..G    PUSH     {r4-r10,lr}
        0x080035a0:    b086        ..      SUB      sp,sp,#0x18
        0x080035a2:    4605        .F      MOV      r5,r0
        0x080035a4:    460e        .F      MOV      r6,r1
        0x080035a6:    2400        .$      MOVS     r4,#0
        0x080035a8:    46a2        .F      MOV      r10,r4
        0x080035aa:    bf00        ..      NOP      
        0x080035ac:    46a1        .F      MOV      r9,r4
        0x080035ae:    2700        .'      MOVS     r7,#0
        0x080035b0:    89b0        ..      LDRH     r0,[r6,#0xc]
        0x080035b2:    b100        ..      CBZ      r0,0x80035b6 ; USART_Init + 26
        0x080035b4:    bf00        ..      NOP      
        0x080035b6:    462f        /F      MOV      r7,r5
        0x080035b8:    8a2c        ,.      LDRH     r4,[r5,#0x10]
        0x080035ba:    f64c70ff    L..p    MOV      r0,#0xcfff
        0x080035be:    4004        .@      ANDS     r4,r4,r0
        0x080035c0:    88f0        ..      LDRH     r0,[r6,#6]
        0x080035c2:    4304        .C      ORRS     r4,r4,r0
        0x080035c4:    822c        ,.      STRH     r4,[r5,#0x10]
        0x080035c6:    89ac        ..      LDRH     r4,[r5,#0xc]
        0x080035c8:    f64e10f3    N...    MOV      r0,#0xe9f3
        0x080035cc:    4004        .@      ANDS     r4,r4,r0
        0x080035ce:    88b0        ..      LDRH     r0,[r6,#4]
        0x080035d0:    8931        1.      LDRH     r1,[r6,#8]
        0x080035d2:    4308        .C      ORRS     r0,r0,r1
        0x080035d4:    8971        q.      LDRH     r1,[r6,#0xa]
        0x080035d6:    4308        .C      ORRS     r0,r0,r1
        0x080035d8:    4304        .C      ORRS     r4,r4,r0
        0x080035da:    81ac        ..      STRH     r4,[r5,#0xc]
        0x080035dc:    8aac        ..      LDRH     r4,[r5,#0x14]
        0x080035de:    f64f40ff    O..@    MOV      r0,#0xfcff
        0x080035e2:    4004        .@      ANDS     r4,r4,r0
        0x080035e4:    89b0        ..      LDRH     r0,[r6,#0xc]
        0x080035e6:    4304        .C      ORRS     r4,r4,r0
        0x080035e8:    82ac        ..      STRH     r4,[r5,#0x14]
        0x080035ea:    a801        ..      ADD      r0,sp,#4
        0x080035ec:    f7fffa46    ..F.    BL       RCC_GetClocksFreq ; 0x8002a7c
        0x080035f0:    481f        .H      LDR      r0,[pc,#124] ; [0x8003670] = 0x40013800
        0x080035f2:    4287        .B      CMP      r7,r0
        0x080035f4:    d102        ..      BNE      0x80035fc ; USART_Init + 96
        0x080035f6:    f8dda010    ....    LDR      r10,[sp,#0x10]
        0x080035fa:    e001        ..      B        0x8003600 ; USART_Init + 100
        0x080035fc:    f8dda00c    ....    LDR      r10,[sp,#0xc]
        0x08003600:    89a8        ..      LDRH     r0,[r5,#0xc]
        0x08003602:    f4004000    ...@    AND      r0,r0,#0x8000
        0x08003606:    b140        @.      CBZ      r0,0x800361a ; USART_Init + 126
        0x08003608:    eb0a00ca    ....    ADD      r0,r10,r10,LSL #3
        0x0800360c:    eb00100a    ....    ADD      r0,r0,r10,LSL #4
        0x08003610:    6831        1h      LDR      r1,[r6,#0]
        0x08003612:    0049        I.      LSLS     r1,r1,#1
        0x08003614:    fbb0f8f1    ....    UDIV     r8,r0,r1
        0x08003618:    e007        ..      B        0x800362a ; USART_Init + 142
        0x0800361a:    eb0a00ca    ....    ADD      r0,r10,r10,LSL #3
        0x0800361e:    eb00100a    ....    ADD      r0,r0,r10,LSL #4
        0x08003622:    6831        1h      LDR      r1,[r6,#0]
        0x08003624:    0089        ..      LSLS     r1,r1,#2
        0x08003626:    fbb0f8f1    ....    UDIV     r8,r0,r1
        0x0800362a:    2064        d       MOVS     r0,#0x64
        0x0800362c:    fbb8f0f0    ....    UDIV     r0,r8,r0
        0x08003630:    0104        ..      LSLS     r4,r0,#4
        0x08003632:    0920         .      LSRS     r0,r4,#4
        0x08003634:    2164        d!      MOVS     r1,#0x64
        0x08003636:    fb018910    ....    MLS      r9,r1,r0,r8
        0x0800363a:    89a8        ..      LDRH     r0,[r5,#0xc]
        0x0800363c:    f4004000    ...@    AND      r0,r0,#0x8000
        0x08003640:    b140        @.      CBZ      r0,0x8003654 ; USART_Init + 184
        0x08003642:    2032        2       MOVS     r0,#0x32
        0x08003644:    eb0000c9    ....    ADD      r0,r0,r9,LSL #3
        0x08003648:    fbb0f0f1    ....    UDIV     r0,r0,r1
        0x0800364c:    f0000007    ....    AND      r0,r0,#7
        0x08003650:    4304        .C      ORRS     r4,r4,r0
        0x08003652:    e008        ..      B        0x8003666 ; USART_Init + 202
        0x08003654:    2032        2       MOVS     r0,#0x32
        0x08003656:    eb001009    ....    ADD      r0,r0,r9,LSL #4
        0x0800365a:    2164        d!      MOVS     r1,#0x64
        0x0800365c:    fbb0f0f1    ....    UDIV     r0,r0,r1
        0x08003660:    f000000f    ....    AND      r0,r0,#0xf
        0x08003664:    4304        .C      ORRS     r4,r4,r0
        0x08003666:    812c        ,.      STRH     r4,[r5,#8]
        0x08003668:    b006        ..      ADD      sp,sp,#0x18
        0x0800366a:    e8bd87f0    ....    POP      {r4-r10,pc}
    $d
        0x0800366e:    0000        ..      DCW    0
        0x08003670:    40013800    .8.@    DCD    1073821696
    $t
    i.USART_ReceiveData
    USART_ReceiveData
        0x08003674:    4601        .F      MOV      r1,r0
        0x08003676:    8888        ..      LDRH     r0,[r1,#4]
        0x08003678:    f3c00008    ....    UBFX     r0,r0,#0,#9
        0x0800367c:    4770        pG      BX       lr
    i.USART_SendData
    USART_SendData
        0x0800367e:    f3c10208    ....    UBFX     r2,r1,#0,#9
        0x08003682:    8082        ..      STRH     r2,[r0,#4]
        0x08003684:    4770        pG      BX       lr
    i.UsageFault_Handler
    UsageFault_Handler
        0x08003686:    bf00        ..      NOP      
        0x08003688:    e7fe        ..      B        0x8003688 ; UsageFault_Handler + 2
        0x0800368a:    0000        ..      MOVS     r0,r0
    i.UsartInit
    UsartInit
        0x0800368c:    b570        p.      PUSH     {r4-r6,lr}
        0x0800368e:    2441        A$      MOVS     r4,#0x41
        0x08003690:    a50d        ..      ADR      r5,{pc}+0x38 ; 0x80036c8
        0x08003692:    f7ffff09    ....    BL       USART_Config ; 0x80034a8
        0x08003696:    480f        .H      LDR      r0,[pc,#60] ; [0x80036d4] = 0x20001024
        0x08003698:    f000ff86    ....    BL       ring_buffer_init ; 0x80045a8
        0x0800369c:    e005        ..      B        0x80036aa ; UsartInit + 30
        0x0800369e:    4621        !F      MOV      r1,r4
        0x080036a0:    480d        .H      LDR      r0,[pc,#52] ; [0x80036d8] = 0x40013800
        0x080036a2:    f000f82f    ../.    BL       Usart_SendByte ; 0x8003704
        0x080036a6:    1c60        `.      ADDS     r0,r4,#1
        0x080036a8:    b2c4        ..      UXTB     r4,r0
        0x080036aa:    2c5a        Z,      CMP      r4,#0x5a
        0x080036ac:    ddf7        ..      BLE      0x800369e ; UsartInit + 18
        0x080036ae:    a10b        ..      ADR      r1,{pc}+0x2e ; 0x80036dc
        0x080036b0:    4809        .H      LDR      r0,[pc,#36] ; [0x80036d8] = 0x40013800
        0x080036b2:    f000f836    ..6.    BL       Usart_SendString ; 0x8003722
        0x080036b6:    4629        )F      MOV      r1,r5
        0x080036b8:    a00b        ..      ADR      r0,{pc}+0x30 ; 0x80036e8
        0x080036ba:    f000f847    ..G.    BL       __0printf$3 ; 0x800374c
        0x080036be:    a00c        ..      ADR      r0,{pc}+0x32 ; 0x80036f0
        0x080036c0:    f000f844    ..D.    BL       __0printf$3 ; 0x800374c
        0x080036c4:    bd70        p.      POP      {r4-r6,pc}
    $d
        0x080036c6:    0000        ..      DCW    0
        0x080036c8:    61303031    100a    DCD    1630548017
        0x080036cc:    77206b73    sk w    DCD    1998613363
        0x080036d0:    00007364    ds..    DCD    29540
        0x080036d4:    20001024    $..     DCD    536875044
        0x080036d8:    40013800    .8.@    DCD    1073821696
        0x080036dc:    30310a0d    ..10    DCD    808520205
        0x080036e0:    6b736130    0ask    DCD    1802723632
        0x080036e4:    00000a0d    ....    DCD    2573
        0x080036e8:    252c626e    nb,%    DCD    623665774
        0x080036ec:    000a0d73    s...    DCD    658803
        0x080036f0:    dabfaeb4    ....    DCD    3669995188
        0x080036f4:    bccaf5b3    ....    DCD    3167417779
        0x080036f8:    eacdafbb    ....    DCD    3939348411
        0x080036fc:    0d2ec9b3    ....    DCD    221170099
        0x08003700:    0000000a    ....    DCD    10
    $t
    i.Usart_SendByte
    Usart_SendByte
        0x08003704:    b570        p.      PUSH     {r4-r6,lr}
        0x08003706:    4604        .F      MOV      r4,r0
        0x08003708:    460d        .F      MOV      r5,r1
        0x0800370a:    4629        )F      MOV      r1,r5
        0x0800370c:    4620         F      MOV      r0,r4
        0x0800370e:    f7ffffb6    ....    BL       USART_SendData ; 0x800367e
        0x08003712:    bf00        ..      NOP      
        0x08003714:    2180        .!      MOVS     r1,#0x80
        0x08003716:    4620         F      MOV      r0,r4
        0x08003718:    f7ffff0e    ....    BL       USART_GetFlagStatus ; 0x8003538
        0x0800371c:    2800        .(      CMP      r0,#0
        0x0800371e:    d0f9        ..      BEQ      0x8003714 ; Usart_SendByte + 16
        0x08003720:    bd70        p.      POP      {r4-r6,pc}
    i.Usart_SendString
    Usart_SendString
        0x08003722:    b570        p.      PUSH     {r4-r6,lr}
        0x08003724:    4606        .F      MOV      r6,r0
        0x08003726:    460c        .F      MOV      r4,r1
        0x08003728:    2500        .%      MOVS     r5,#0
        0x0800372a:    bf00        ..      NOP      
        0x0800372c:    5d61        a]      LDRB     r1,[r4,r5]
        0x0800372e:    4630        0F      MOV      r0,r6
        0x08003730:    f7ffffe8    ....    BL       Usart_SendByte ; 0x8003704
        0x08003734:    1c6d        m.      ADDS     r5,r5,#1
        0x08003736:    5d60        `]      LDRB     r0,[r4,r5]
        0x08003738:    2800        .(      CMP      r0,#0
        0x0800373a:    d1f7        ..      BNE      0x800372c ; Usart_SendString + 10
        0x0800373c:    bf00        ..      NOP      
        0x0800373e:    2140        @!      MOVS     r1,#0x40
        0x08003740:    4630        0F      MOV      r0,r6
        0x08003742:    f7fffef9    ....    BL       USART_GetFlagStatus ; 0x8003538
        0x08003746:    2800        .(      CMP      r0,#0
        0x08003748:    d0f9        ..      BEQ      0x800373e ; Usart_SendString + 28
        0x0800374a:    bd70        p.      POP      {r4-r6,pc}
    i.__0printf$3
    __0printf$3
    __1printf$3
    __2printf
        0x0800374c:    b40f        ..      PUSH     {r0-r3}
        0x0800374e:    4b05        .K      LDR      r3,[pc,#20] ; [0x8003764] = 0x8003e75
        0x08003750:    b510        ..      PUSH     {r4,lr}
        0x08003752:    a903        ..      ADD      r1,sp,#0xc
        0x08003754:    4a04        .J      LDR      r2,[pc,#16] ; [0x8003768] = 0x20000798
        0x08003756:    9802        ..      LDR      r0,[sp,#8]
        0x08003758:    f000f936    ..6.    BL       _printf_core ; 0x80039c8
        0x0800375c:    bc10        ..      POP      {r4}
        0x0800375e:    f85dfb14    ]...    LDR      pc,[sp],#0x14
    $d
        0x08003762:    0000        ..      DCW    0
        0x08003764:    08003e75    u>..    DCD    134233717
        0x08003768:    20000798    ...     DCD    536872856
    $t
    i.__ButtonDevcieManagerInit
    __ButtonDevcieManagerInit
        0x0800376c:    b510        ..      PUSH     {r4,lr}
        0x0800376e:    f7fdf91f    ....    BL       ConstrcutorButtonManage ; 0x80009b0
        0x08003772:    4604        .F      MOV      r4,r0
        0x08003774:    2230        0"      MOVS     r2,#0x30
        0x08003776:    4621        !F      MOV      r1,r4
        0x08003778:    4804        .H      LDR      r0,[pc,#16] ; [0x800378c] = 0x20001444
        0x0800377a:    f7fcfd35    ..5.    BL       __aeabi_memcpy ; 0x80001e8
        0x0800377e:    4903        .I      LDR      r1,[pc,#12] ; [0x800378c] = 0x20001444
        0x08003780:    6848        Hh      LDR      r0,[r1,#4]
        0x08003782:    4780        .G      BLX      r0
        0x08003784:    4802        .H      LDR      r0,[pc,#8] ; [0x8003790] = 0x80041fd
        0x08003786:    f7fffc9f    ....    BL       SetTimerProcessFunction ; 0x80030c8
        0x0800378a:    bd10        ..      POP      {r4,pc}
    $d
        0x0800378c:    20001444    D..     DCD    536876100
        0x08003790:    080041fd    .A..    DCD    134234621
    $t
    i.__DisplayDevTimerFlushControl
    __DisplayDevTimerFlushControl
        0x08003794:    b510        ..      PUSH     {r4,lr}
        0x08003796:    4604        .F      MOV      r4,r0
        0x08003798:    4802        .H      LDR      r0,[pc,#8] ; [0x80037a4] = 0x20000110
        0x0800379a:    6841        Ah      LDR      r1,[r0,#4]
        0x0800379c:    4620         F      MOV      r0,r4
        0x0800379e:    4788        .G      BLX      r1
        0x080037a0:    bd10        ..      POP      {r4,pc}
    $d
        0x080037a2:    0000        ..      DCW    0
        0x080037a4:    20000110    ...     DCD    536871184
    $t
    i.__GetBeepDevice
    __GetBeepDevice
        0x080037a8:    b570        p.      PUSH     {r4-r6,lr}
        0x080037aa:    4606        .F      MOV      r6,r0
        0x080037ac:    2500        .%      MOVS     r5,#0
        0x080037ae:    e00e        ..      B        0x80037ce ; __GetBeepDevice + 38
        0x080037b0:    480c        .H      LDR      r0,[pc,#48] ; [0x80037e4] = 0x2000266c
        0x080037b2:    f8504025    P.%@    LDR      r4,[r0,r5,LSL #2]
        0x080037b6:    4631        1F      MOV      r1,r6
        0x080037b8:    6820         h      LDR      r0,[r4,#0]
        0x080037ba:    f7fcfd27    ..'.    BL       strcmp ; 0x800020c
        0x080037be:    b928        (.      CBNZ     r0,0x80037cc ; __GetBeepDevice + 36
        0x080037c0:    4631        1F      MOV      r1,r6
        0x080037c2:    a009        ..      ADR      r0,{pc}+0x26 ; 0x80037e8
        0x080037c4:    f7ffffc2    ....    BL       __0printf$3 ; 0x800374c
        0x080037c8:    4620         F      MOV      r0,r4
        0x080037ca:    bd70        p.      POP      {r4-r6,pc}
        0x080037cc:    1c6d        m.      ADDS     r5,r5,#1
        0x080037ce:    4805        .H      LDR      r0,[pc,#20] ; [0x80037e4] = 0x2000266c
        0x080037d0:    1f00        ..      SUBS     r0,r0,#4
        0x080037d2:    6800        .h      LDR      r0,[r0,#0]
        0x080037d4:    42a8        .B      CMP      r0,r5
        0x080037d6:    d8eb        ..      BHI      0x80037b0 ; __GetBeepDevice + 8
        0x080037d8:    4631        1F      MOV      r1,r6
        0x080037da:    a007        ..      ADR      r0,{pc}+0x1e ; 0x80037f8
        0x080037dc:    f7ffffb6    ....    BL       __0printf$3 ; 0x800374c
        0x080037e0:    2000        .       MOVS     r0,#0
        0x080037e2:    e7f2        ..      B        0x80037ca ; __GetBeepDevice + 34
    $d
        0x080037e4:    2000266c    l&.     DCD    536880748
        0x080037e8:    bdb5c3b5    ....    DCD    3182805941
        0x080037ec:    b8b1e8c9    ....    DCD    3098667209
        0x080037f0:    0d73253a    :%s.    DCD    225649978
        0x080037f4:    0000000a    ....    DCD    10
        0x080037f8:    d0d3bbc3    ....    DCD    3503537091
        0x080037fc:    bdb5c3b5    ....    DCD    3182805941
        0x08003800:    b8b1e8c9    ....    DCD    3098667209
        0x08003804:    0d73253a    :%s.    DCD    225649978
        0x08003808:    0000000a    ....    DCD    10
    $t
    i.__GetDisplayDevice
    __GetDisplayDevice
        0x0800380c:    b570        p.      PUSH     {r4-r6,lr}
        0x0800380e:    4606        .F      MOV      r6,r0
        0x08003810:    2500        .%      MOVS     r5,#0
        0x08003812:    e00a        ..      B        0x800382a ; __GetDisplayDevice + 30
        0x08003814:    4808        .H      LDR      r0,[pc,#32] ; [0x8003838] = 0x20000118
        0x08003816:    f8504025    P.%@    LDR      r4,[r0,r5,LSL #2]
        0x0800381a:    4631        1F      MOV      r1,r6
        0x0800381c:    6820         h      LDR      r0,[r4,#0]
        0x0800381e:    f7fcfcf5    ....    BL       strcmp ; 0x800020c
        0x08003822:    b908        ..      CBNZ     r0,0x8003828 ; __GetDisplayDevice + 28
        0x08003824:    4620         F      MOV      r0,r4
        0x08003826:    bd70        p.      POP      {r4-r6,pc}
        0x08003828:    1c6d        m.      ADDS     r5,r5,#1
        0x0800382a:    4803        .H      LDR      r0,[pc,#12] ; [0x8003838] = 0x20000118
        0x0800382c:    3808        .8      SUBS     r0,r0,#8
        0x0800382e:    6800        .h      LDR      r0,[r0,#0]
        0x08003830:    42a8        .B      CMP      r0,r5
        0x08003832:    d8ef        ..      BHI      0x8003814 ; __GetDisplayDevice + 8
        0x08003834:    2000        .       MOVS     r0,#0
        0x08003836:    e7f6        ..      B        0x8003826 ; __GetDisplayDevice + 26
    $d
        0x08003838:    20000118    ...     DCD    536871192
    $t
    i.__GetFontLib
    __GetFontLib
        0x0800383c:    b570        p.      PUSH     {r4-r6,lr}
        0x0800383e:    4606        .F      MOV      r6,r0
        0x08003840:    2500        .%      MOVS     r5,#0
        0x08003842:    e00a        ..      B        0x800385a ; __GetFontLib + 30
        0x08003844:    4808        .H      LDR      r0,[pc,#32] ; [0x8003868] = 0x20002644
        0x08003846:    f8504025    P.%@    LDR      r4,[r0,r5,LSL #2]
        0x0800384a:    4631        1F      MOV      r1,r6
        0x0800384c:    6820         h      LDR      r0,[r4,#0]
        0x0800384e:    f7fcfcdd    ....    BL       strcmp ; 0x800020c
        0x08003852:    b908        ..      CBNZ     r0,0x8003858 ; __GetFontLib + 28
        0x08003854:    4620         F      MOV      r0,r4
        0x08003856:    bd70        p.      POP      {r4-r6,pc}
        0x08003858:    1c6d        m.      ADDS     r5,r5,#1
        0x0800385a:    4803        .H      LDR      r0,[pc,#12] ; [0x8003868] = 0x20002644
        0x0800385c:    1f00        ..      SUBS     r0,r0,#4
        0x0800385e:    6800        .h      LDR      r0,[r0,#0]
        0x08003860:    42a8        .B      CMP      r0,r5
        0x08003862:    d8ef        ..      BHI      0x8003844 ; __GetFontLib + 8
        0x08003864:    2000        .       MOVS     r0,#0
        0x08003866:    e7f6        ..      B        0x8003856 ; __GetFontLib + 26
    $d
        0x08003868:    20002644    D&.     DCD    536880708
    $t
    i.__GetGame
    __GetGame
        0x0800386c:    4808        .H      LDR      r0,[pc,#32] ; [0x8003890] = 0x20000408
        0x0800386e:    6800        .h      LDR      r0,[r0,#0]
        0x08003870:    b108        ..      CBZ      r0,0x8003876 ; __GetGame + 10
        0x08003872:    2000        .       MOVS     r0,#0
        0x08003874:    4770        pG      BX       lr
        0x08003876:    2000        .       MOVS     r0,#0
        0x08003878:    4906        .I      LDR      r1,[pc,#24] ; [0x8003894] = 0x2000270c
        0x0800387a:    7008        .p      STRB     r0,[r1,#0]
        0x0800387c:    6048        H`      STR      r0,[r1,#4]
        0x0800387e:    6088        .`      STR      r0,[r1,#8]
        0x08003880:    60c8        .`      STR      r0,[r1,#0xc]
        0x08003882:    4805        .H      LDR      r0,[pc,#20] ; [0x8003898] = 0x200003f4
        0x08003884:    6108        .a      STR      r0,[r1,#0x10]
        0x08003886:    2001        .       MOVS     r0,#1
        0x08003888:    4901        .I      LDR      r1,[pc,#4] ; [0x8003890] = 0x20000408
        0x0800388a:    6008        .`      STR      r0,[r1,#0]
        0x0800388c:    4801        .H      LDR      r0,[pc,#4] ; [0x8003894] = 0x2000270c
        0x0800388e:    e7f1        ..      B        0x8003874 ; __GetGame + 8
    $d
        0x08003890:    20000408    ...     DCD    536871944
        0x08003894:    2000270c    .'.     DCD    536880908
        0x08003898:    200003f4    ...     DCD    536871924
    $t
    i.__GetGameRole
    __GetGameRole
        0x0800389c:    b570        p.      PUSH     {r4-r6,lr}
        0x0800389e:    4606        .F      MOV      r6,r0
        0x080038a0:    2500        .%      MOVS     r5,#0
        0x080038a2:    e00a        ..      B        0x80038ba ; __GetGameRole + 30
        0x080038a4:    4808        .H      LDR      r0,[pc,#32] ; [0x80038c8] = 0x200003c8
        0x080038a6:    f8504025    P.%@    LDR      r4,[r0,r5,LSL #2]
        0x080038aa:    4631        1F      MOV      r1,r6
        0x080038ac:    6820         h      LDR      r0,[r4,#0]
        0x080038ae:    f7fcfcad    ....    BL       strcmp ; 0x800020c
        0x080038b2:    b908        ..      CBNZ     r0,0x80038b8 ; __GetGameRole + 28
        0x080038b4:    4620         F      MOV      r0,r4
        0x080038b6:    bd70        p.      POP      {r4-r6,pc}
        0x080038b8:    1c6d        m.      ADDS     r5,r5,#1
        0x080038ba:    4803        .H      LDR      r0,[pc,#12] ; [0x80038c8] = 0x200003c8
        0x080038bc:    3808        .8      SUBS     r0,r0,#8
        0x080038be:    6b00        .k      LDR      r0,[r0,#0x30]
        0x080038c0:    42a8        .B      CMP      r0,r5
        0x080038c2:    dcef        ..      BGT      0x80038a4 ; __GetGameRole + 8
        0x080038c4:    2000        .       MOVS     r0,#0
        0x080038c6:    e7f6        ..      B        0x80038b6 ; __GetGameRole + 26
    $d
        0x080038c8:    200003c8    ...     DCD    536871880
    $t
    i.__GetI2CDevice
    __GetI2CDevice
        0x080038cc:    b570        p.      PUSH     {r4-r6,lr}
        0x080038ce:    4606        .F      MOV      r6,r0
        0x080038d0:    2500        .%      MOVS     r5,#0
        0x080038d2:    e00a        ..      B        0x80038ea ; __GetI2CDevice + 30
        0x080038d4:    4808        .H      LDR      r0,[pc,#32] ; [0x80038f8] = 0x20001638
        0x080038d6:    f8504025    P.%@    LDR      r4,[r0,r5,LSL #2]
        0x080038da:    4631        1F      MOV      r1,r6
        0x080038dc:    6820         h      LDR      r0,[r4,#0]
        0x080038de:    f7fcfc95    ....    BL       strcmp ; 0x800020c
        0x080038e2:    b908        ..      CBNZ     r0,0x80038e8 ; __GetI2CDevice + 28
        0x080038e4:    4620         F      MOV      r0,r4
        0x080038e6:    bd70        p.      POP      {r4-r6,pc}
        0x080038e8:    1c6d        m.      ADDS     r5,r5,#1
        0x080038ea:    4803        .H      LDR      r0,[pc,#12] ; [0x80038f8] = 0x20001638
        0x080038ec:    1f00        ..      SUBS     r0,r0,#4
        0x080038ee:    6800        .h      LDR      r0,[r0,#0]
        0x080038f0:    42a8        .B      CMP      r0,r5
        0x080038f2:    d8ef        ..      BHI      0x80038d4 ; __GetI2CDevice + 8
        0x080038f4:    2000        .       MOVS     r0,#0
        0x080038f6:    e7f6        ..      B        0x80038e6 ; __GetI2CDevice + 26
    $d
        0x080038f8:    20001638    8..     DCD    536876600
    $t
    i.__GetLedDevice
    __GetLedDevice
        0x080038fc:    b570        p.      PUSH     {r4-r6,lr}
        0x080038fe:    4606        .F      MOV      r6,r0
        0x08003900:    2500        .%      MOVS     r5,#0
        0x08003902:    e00a        ..      B        0x800391a ; __GetLedDevice + 30
        0x08003904:    4808        .H      LDR      r0,[pc,#32] ; [0x8003928] = 0x20001430
        0x08003906:    f8504025    P.%@    LDR      r4,[r0,r5,LSL #2]
        0x0800390a:    4631        1F      MOV      r1,r6
        0x0800390c:    6820         h      LDR      r0,[r4,#0]
        0x0800390e:    f7fcfc7d    ..}.    BL       strcmp ; 0x800020c
        0x08003912:    b908        ..      CBNZ     r0,0x8003918 ; __GetLedDevice + 28
        0x08003914:    4620         F      MOV      r0,r4
        0x08003916:    bd70        p.      POP      {r4-r6,pc}
        0x08003918:    1c6d        m.      ADDS     r5,r5,#1
        0x0800391a:    4803        .H      LDR      r0,[pc,#12] ; [0x8003928] = 0x20001430
        0x0800391c:    1f00        ..      SUBS     r0,r0,#4
        0x0800391e:    6800        .h      LDR      r0,[r0,#0]
        0x08003920:    42a8        .B      CMP      r0,r5
        0x08003922:    d8ef        ..      BHI      0x8003904 ; __GetLedDevice + 8
        0x08003924:    2000        .       MOVS     r0,#0
        0x08003926:    e7f6        ..      B        0x8003916 ; __GetLedDevice + 26
    $d
        0x08003928:    20001430    0..     DCD    536876080
    $t
    i.__GetOption
    __GetOption
        0x0800392c:    b570        p.      PUSH     {r4-r6,lr}
        0x0800392e:    4606        .F      MOV      r6,r0
        0x08003930:    2500        .%      MOVS     r5,#0
        0x08003932:    e00e        ..      B        0x8003952 ; __GetOption + 38
        0x08003934:    480c        .H      LDR      r0,[pc,#48] ; [0x8003968] = 0x20002778
        0x08003936:    f8504025    P.%@    LDR      r4,[r0,r5,LSL #2]
        0x0800393a:    4631        1F      MOV      r1,r6
        0x0800393c:    6820         h      LDR      r0,[r4,#0]
        0x0800393e:    f7fcfc65    ..e.    BL       strcmp ; 0x800020c
        0x08003942:    b928        (.      CBNZ     r0,0x8003950 ; __GetOption + 36
        0x08003944:    4631        1F      MOV      r1,r6
        0x08003946:    a009        ..      ADR      r0,{pc}+0x26 ; 0x800396c
        0x08003948:    f7ffff00    ....    BL       __0printf$3 ; 0x800374c
        0x0800394c:    4620         F      MOV      r0,r4
        0x0800394e:    bd70        p.      POP      {r4-r6,pc}
        0x08003950:    1c6d        m.      ADDS     r5,r5,#1
        0x08003952:    4805        .H      LDR      r0,[pc,#20] ; [0x8003968] = 0x20002778
        0x08003954:    1f00        ..      SUBS     r0,r0,#4
        0x08003956:    6800        .h      LDR      r0,[r0,#0]
        0x08003958:    42a8        .B      CMP      r0,r5
        0x0800395a:    d8eb        ..      BHI      0x8003934 ; __GetOption + 8
        0x0800395c:    4631        1F      MOV      r1,r6
        0x0800395e:    a007        ..      ADR      r0,{pc}+0x1e ; 0x800397c
        0x08003960:    f7fffef4    ....    BL       __0printf$3 ; 0x800374c
        0x08003964:    2000        .       MOVS     r0,#0
        0x08003966:    e7f2        ..      B        0x800394e ; __GetOption + 34
    $d
        0x08003968:    20002778    x'.     DCD    536881016
        0x0800396c:    bdb5c3b5    ....    DCD    3182805941
        0x08003970:    eecfa1d1    ....    DCD    4006584785
        0x08003974:    0d73253a    :%s.    DCD    225649978
        0x08003978:    0000000a    ....    DCD    10
        0x0800397c:    d0d3bbc3    ....    DCD    3503537091
        0x08003980:    bdb5c3b5    ....    DCD    3182805941
        0x08003984:    eecfa1d1    ....    DCD    4006584785
        0x08003988:    0d73253a    :%s.    DCD    225649978
        0x0800398c:    0000000a    ....    DCD    10
    $t
    i.__InitInputDevice
    __InitInputDevice
        0x08003990:    b510        ..      PUSH     {r4,lr}
        0x08003992:    4804        .H      LDR      r0,[pc,#16] ; [0x80039a4] = 0x200000b8
        0x08003994:    6804        .h      LDR      r4,[r0,#0]
        0x08003996:    e002        ..      B        0x800399e ; __InitInputDevice + 14
        0x08003998:    68a0        .h      LDR      r0,[r4,#8]
        0x0800399a:    4780        .G      BLX      r0
        0x0800399c:    6924        $i      LDR      r4,[r4,#0x10]
        0x0800399e:    2c00        .,      CMP      r4,#0
        0x080039a0:    d1fa        ..      BNE      0x8003998 ; __InitInputDevice + 8
        0x080039a2:    bd10        ..      POP      {r4,pc}
    $d
        0x080039a4:    200000b8    ...     DCD    536871096
    $t
    i.__scatterload_copy
    __scatterload_copy
        0x080039a8:    e002        ..      B        0x80039b0 ; __scatterload_copy + 8
        0x080039aa:    c808        ..      LDM      r0!,{r3}
        0x080039ac:    1f12        ..      SUBS     r2,r2,#4
        0x080039ae:    c108        ..      STM      r1!,{r3}
        0x080039b0:    2a00        .*      CMP      r2,#0
        0x080039b2:    d1fa        ..      BNE      0x80039aa ; __scatterload_copy + 2
        0x080039b4:    4770        pG      BX       lr
    i.__scatterload_null
    __scatterload_null
        0x080039b6:    4770        pG      BX       lr
    i.__scatterload_zeroinit
    __scatterload_zeroinit
        0x080039b8:    2000        .       MOVS     r0,#0
        0x080039ba:    e001        ..      B        0x80039c0 ; __scatterload_zeroinit + 8
        0x080039bc:    c101        ..      STM      r1!,{r0}
        0x080039be:    1f12        ..      SUBS     r2,r2,#4
        0x080039c0:    2a00        .*      CMP      r2,#0
        0x080039c2:    d1fb        ..      BNE      0x80039bc ; __scatterload_zeroinit + 4
        0x080039c4:    4770        pG      BX       lr
        0x080039c6:    0000        ..      MOVS     r0,r0
    i._printf_core
    _printf_core
        0x080039c8:    e92d4fff    -..O    PUSH     {r0-r11,lr}
        0x080039cc:    b08b        ..      SUB      sp,sp,#0x2c
        0x080039ce:    469a        .F      MOV      r10,r3
        0x080039d0:    460f        .F      MOV      r7,r1
        0x080039d2:    4605        .F      MOV      r5,r0
        0x080039d4:    2600        .&      MOVS     r6,#0
        0x080039d6:    e006        ..      B        0x80039e6 ; _printf_core + 30
        0x080039d8:    2825        %(      CMP      r0,#0x25
        0x080039da:    d00b        ..      BEQ      0x80039f4 ; _printf_core + 44
        0x080039dc:    4652        RF      MOV      r2,r10
        0x080039de:    990d        ..      LDR      r1,[sp,#0x34]
        0x080039e0:    4790        .G      BLX      r2
        0x080039e2:    1c6d        m.      ADDS     r5,r5,#1
        0x080039e4:    1c76        v.      ADDS     r6,r6,#1
        0x080039e6:    7828        (x      LDRB     r0,[r5,#0]
        0x080039e8:    2800        .(      CMP      r0,#0
        0x080039ea:    d1f5        ..      BNE      0x80039d8 ; _printf_core + 16
        0x080039ec:    b00f        ..      ADD      sp,sp,#0x3c
        0x080039ee:    4630        0F      MOV      r0,r6
        0x080039f0:    e8bd8ff0    ....    POP      {r4-r11,pc}
        0x080039f4:    2400        .$      MOVS     r4,#0
        0x080039f6:    46a0        .F      MOV      r8,r4
        0x080039f8:    2201        ."      MOVS     r2,#1
        0x080039fa:    4960        `I      LDR      r1,[pc,#384] ; [0x8003b7c] = 0x12809
        0x080039fc:    e000        ..      B        0x8003a00 ; _printf_core + 56
        0x080039fe:    4304        .C      ORRS     r4,r4,r0
        0x08003a00:    f8153f01    ...?    LDRB     r3,[r5,#1]!
        0x08003a04:    3b20         ;      SUBS     r3,r3,#0x20
        0x08003a06:    fa02f003    ....    LSL      r0,r2,r3
        0x08003a0a:    4208        .B      TST      r0,r1
        0x08003a0c:    d1f7        ..      BNE      0x80039fe ; _printf_core + 54
        0x08003a0e:    7828        (x      LDRB     r0,[r5,#0]
        0x08003a10:    282e        .(      CMP      r0,#0x2e
        0x08003a12:    d117        ..      BNE      0x8003a44 ; _printf_core + 124
        0x08003a14:    f8150f01    ....    LDRB     r0,[r5,#1]!
        0x08003a18:    f0440404    D...    ORR      r4,r4,#4
        0x08003a1c:    282a        *(      CMP      r0,#0x2a
        0x08003a1e:    d00e        ..      BEQ      0x8003a3e ; _printf_core + 118
        0x08003a20:    f06f022f    o./.    MVN      r2,#0x2f
        0x08003a24:    7828        (x      LDRB     r0,[r5,#0]
        0x08003a26:    f1a00130    ..0.    SUB      r1,r0,#0x30
        0x08003a2a:    2909        .)      CMP      r1,#9
        0x08003a2c:    d80a        ..      BHI      0x8003a44 ; _printf_core + 124
        0x08003a2e:    eb080188    ....    ADD      r1,r8,r8,LSL #2
        0x08003a32:    eb020141    ..A.    ADD      r1,r2,r1,LSL #1
        0x08003a36:    eb000801    ....    ADD      r8,r0,r1
        0x08003a3a:    1c6d        m.      ADDS     r5,r5,#1
        0x08003a3c:    e7f2        ..      B        0x8003a24 ; _printf_core + 92
        0x08003a3e:    f8578b04    W...    LDR      r8,[r7],#4
        0x08003a42:    1c6d        m.      ADDS     r5,r5,#1
        0x08003a44:    7828        (x      LDRB     r0,[r5,#0]
        0x08003a46:    2869        i(      CMP      r0,#0x69
        0x08003a48:    d03e        >.      BEQ      0x8003ac8 ; _printf_core + 256
        0x08003a4a:    dc06        ..      BGT      0x8003a5a ; _printf_core + 146
        0x08003a4c:    2800        .(      CMP      r0,#0
        0x08003a4e:    d0cd        ..      BEQ      0x80039ec ; _printf_core + 36
        0x08003a50:    2863        c(      CMP      r0,#0x63
        0x08003a52:    d00b        ..      BEQ      0x8003a6c ; _printf_core + 164
        0x08003a54:    2864        d(      CMP      r0,#0x64
        0x08003a56:    d104        ..      BNE      0x8003a62 ; _printf_core + 154
        0x08003a58:    e036        6.      B        0x8003ac8 ; _printf_core + 256
        0x08003a5a:    2873        s(      CMP      r0,#0x73
        0x08003a5c:    d010        ..      BEQ      0x8003a80 ; _printf_core + 184
        0x08003a5e:    2875        u(      CMP      r0,#0x75
        0x08003a60:    d04b        K.      BEQ      0x8003afa ; _printf_core + 306
        0x08003a62:    4652        RF      MOV      r2,r10
        0x08003a64:    990d        ..      LDR      r1,[sp,#0x34]
        0x08003a66:    4790        .G      BLX      r2
        0x08003a68:    1c76        v.      ADDS     r6,r6,#1
        0x08003a6a:    e085        ..      B        0x8003b78 ; _printf_core + 432
        0x08003a6c:    f8170b04    ....    LDRB     r0,[r7],#4
        0x08003a70:    f88d0000    ....    STRB     r0,[sp,#0]
        0x08003a74:    2000        .       MOVS     r0,#0
        0x08003a76:    f88d0001    ....    STRB     r0,[sp,#1]
        0x08003a7a:    46e9        .F      MOV      r9,sp
        0x08003a7c:    2001        .       MOVS     r0,#1
        0x08003a7e:    e003        ..      B        0x8003a88 ; _printf_core + 192
        0x08003a80:    f8579b04    W...    LDR      r9,[r7],#4
        0x08003a84:    f04f30ff    O..0    MOV      r0,#0xffffffff
        0x08003a88:    0761        a.      LSLS     r1,r4,#29
        0x08003a8a:    f04f0400    O...    MOV      r4,#0
        0x08003a8e:    d401        ..      BMI      0x8003a94 ; _printf_core + 204
        0x08003a90:    e00a        ..      B        0x8003aa8 ; _printf_core + 224
        0x08003a92:    1c64        d.      ADDS     r4,r4,#1
        0x08003a94:    4544        DE      CMP      r4,r8
        0x08003a96:    da0d        ..      BGE      0x8003ab4 ; _printf_core + 236
        0x08003a98:    4284        .B      CMP      r4,r0
        0x08003a9a:    dbfa        ..      BLT      0x8003a92 ; _printf_core + 202
        0x08003a9c:    f8191004    ....    LDRB     r1,[r9,r4]
        0x08003aa0:    2900        .)      CMP      r1,#0
        0x08003aa2:    d1f6        ..      BNE      0x8003a92 ; _printf_core + 202
        0x08003aa4:    e006        ..      B        0x8003ab4 ; _printf_core + 236
        0x08003aa6:    1c64        d.      ADDS     r4,r4,#1
        0x08003aa8:    4284        .B      CMP      r4,r0
        0x08003aaa:    dbfc        ..      BLT      0x8003aa6 ; _printf_core + 222
        0x08003aac:    f8191004    ....    LDRB     r1,[r9,r4]
        0x08003ab0:    2900        .)      CMP      r1,#0
        0x08003ab2:    d1f8        ..      BNE      0x8003aa6 ; _printf_core + 222
        0x08003ab4:    4426        &D      ADD      r6,r6,r4
        0x08003ab6:    e004        ..      B        0x8003ac2 ; _printf_core + 250
        0x08003ab8:    f8190b01    ....    LDRB     r0,[r9],#1
        0x08003abc:    4652        RF      MOV      r2,r10
        0x08003abe:    990d        ..      LDR      r1,[sp,#0x34]
        0x08003ac0:    4790        .G      BLX      r2
        0x08003ac2:    1e64        d.      SUBS     r4,r4,#1
        0x08003ac4:    d2f8        ..      BCS      0x8003ab8 ; _printf_core + 240
        0x08003ac6:    e057        W.      B        0x8003b78 ; _printf_core + 432
        0x08003ac8:    cf01        ..      LDM      r7!,{r0}
        0x08003aca:    f04f0b0a    O...    MOV      r11,#0xa
        0x08003ace:    2800        .(      CMP      r0,#0
        0x08003ad0:    da02        ..      BGE      0x8003ad8 ; _printf_core + 272
        0x08003ad2:    4240        @B      RSBS     r0,r0,#0
        0x08003ad4:    212d        -!      MOVS     r1,#0x2d
        0x08003ad6:    e002        ..      B        0x8003ade ; _printf_core + 278
        0x08003ad8:    0521        !.      LSLS     r1,r4,#20
        0x08003ada:    d504        ..      BPL      0x8003ae6 ; _printf_core + 286
        0x08003adc:    212b        +!      MOVS     r1,#0x2b
        0x08003ade:    f88d1024    ..$.    STRB     r1,[sp,#0x24]
        0x08003ae2:    2101        .!      MOVS     r1,#1
        0x08003ae4:    e003        ..      B        0x8003aee ; _printf_core + 294
        0x08003ae6:    07e1        ..      LSLS     r1,r4,#31
        0x08003ae8:    d005        ..      BEQ      0x8003af6 ; _printf_core + 302
        0x08003aea:    2120         !      MOVS     r1,#0x20
        0x08003aec:    e7f7        ..      B        0x8003ade ; _printf_core + 278
        0x08003aee:    f10d0920    .. .    ADD      r9,sp,#0x20
        0x08003af2:    9108        ..      STR      r1,[sp,#0x20]
        0x08003af4:    e00c        ..      B        0x8003b10 ; _printf_core + 328
        0x08003af6:    2100        .!      MOVS     r1,#0
        0x08003af8:    e7f9        ..      B        0x8003aee ; _printf_core + 294
        0x08003afa:    cf01        ..      LDM      r7!,{r0}
        0x08003afc:    f04f0b0a    O...    MOV      r11,#0xa
        0x08003b00:    e7f9        ..      B        0x8003af6 ; _printf_core + 302
        0x08003b02:    4659        YF      MOV      r1,r11
        0x08003b04:    f7fcfb90    ....    BL       __aeabi_uidiv ; 0x8000228
        0x08003b08:    f1010230    ..0.    ADD      r2,r1,#0x30
        0x08003b0c:    f8092d01    ...-    STRB     r2,[r9,#-1]!
        0x08003b10:    2800        .(      CMP      r0,#0
        0x08003b12:    d1f6        ..      BNE      0x8003b02 ; _printf_core + 314
        0x08003b14:    ebad0009    ....    SUB      r0,sp,r9
        0x08003b18:    f1000b20    .. .    ADD      r11,r0,#0x20
        0x08003b1c:    0760        `.      LSLS     r0,r4,#29
        0x08003b1e:    d401        ..      BMI      0x8003b24 ; _printf_core + 348
        0x08003b20:    f04f0801    O...    MOV      r8,#1
        0x08003b24:    45d8        .E      CMP      r8,r11
        0x08003b26:    dd02        ..      BLE      0x8003b2e ; _printf_core + 358
        0x08003b28:    eba8000b    ....    SUB      r0,r8,r11
        0x08003b2c:    e000        ..      B        0x8003b30 ; _printf_core + 360
        0x08003b2e:    2000        .       MOVS     r0,#0
        0x08003b30:    4680        .F      MOV      r8,r0
        0x08003b32:    2400        .$      MOVS     r4,#0
        0x08003b34:    e006        ..      B        0x8003b44 ; _printf_core + 380
        0x08003b36:    a809        ..      ADD      r0,sp,#0x24
        0x08003b38:    4652        RF      MOV      r2,r10
        0x08003b3a:    5d00        .]      LDRB     r0,[r0,r4]
        0x08003b3c:    990d        ..      LDR      r1,[sp,#0x34]
        0x08003b3e:    4790        .G      BLX      r2
        0x08003b40:    1c64        d.      ADDS     r4,r4,#1
        0x08003b42:    1c76        v.      ADDS     r6,r6,#1
        0x08003b44:    9808        ..      LDR      r0,[sp,#0x20]
        0x08003b46:    4284        .B      CMP      r4,r0
        0x08003b48:    dbf5        ..      BLT      0x8003b36 ; _printf_core + 366
        0x08003b4a:    e004        ..      B        0x8003b56 ; _printf_core + 398
        0x08003b4c:    2030        0       MOVS     r0,#0x30
        0x08003b4e:    4652        RF      MOV      r2,r10
        0x08003b50:    990d        ..      LDR      r1,[sp,#0x34]
        0x08003b52:    4790        .G      BLX      r2
        0x08003b54:    1c76        v.      ADDS     r6,r6,#1
        0x08003b56:    f1b80100    ....    SUBS     r1,r8,#0
        0x08003b5a:    f1a80801    ....    SUB      r8,r8,#1
        0x08003b5e:    dcf5        ..      BGT      0x8003b4c ; _printf_core + 388
        0x08003b60:    e005        ..      B        0x8003b6e ; _printf_core + 422
        0x08003b62:    f8190b01    ....    LDRB     r0,[r9],#1
        0x08003b66:    4652        RF      MOV      r2,r10
        0x08003b68:    990d        ..      LDR      r1,[sp,#0x34]
        0x08003b6a:    4790        .G      BLX      r2
        0x08003b6c:    1c76        v.      ADDS     r6,r6,#1
        0x08003b6e:    f1bb0100    ....    SUBS     r1,r11,#0
        0x08003b72:    f1ab0b01    ....    SUB      r11,r11,#1
        0x08003b76:    dcf4        ..      BGT      0x8003b62 ; _printf_core + 410
        0x08003b78:    1c6d        m.      ADDS     r5,r5,#1
        0x08003b7a:    e734        4.      B        0x80039e6 ; _printf_core + 30
    $d
        0x08003b7c:    00012809    .(..    DCD    75785
    $t
    i.audio_close
    audio_close
        0x08003b80:    b510        ..      PUSH     {r4,lr}
        0x08003b82:    4807        .H      LDR      r0,[pc,#28] ; [0x8003ba0] = 0x20000168
        0x08003b84:    6800        .h      LDR      r0,[r0,#0]
        0x08003b86:    2101        .!      MOVS     r1,#1
        0x08003b88:    6902        .i      LDR      r2,[r0,#0x10]
        0x08003b8a:    4805        .H      LDR      r0,[pc,#20] ; [0x8003ba0] = 0x20000168
        0x08003b8c:    6800        .h      LDR      r0,[r0,#0]
        0x08003b8e:    4790        .G      BLX      r2
        0x08003b90:    4804        .H      LDR      r0,[pc,#16] ; [0x8003ba4] = 0x2000016c
        0x08003b92:    6800        .h      LDR      r0,[r0,#0]
        0x08003b94:    69c1        .i      LDR      r1,[r0,#0x1c]
        0x08003b96:    4803        .H      LDR      r0,[pc,#12] ; [0x8003ba4] = 0x2000016c
        0x08003b98:    6800        .h      LDR      r0,[r0,#0]
        0x08003b9a:    4788        .G      BLX      r1
        0x08003b9c:    2000        .       MOVS     r0,#0
        0x08003b9e:    bd10        ..      POP      {r4,pc}
    $d
        0x08003ba0:    20000168    h..     DCD    536871272
        0x08003ba4:    2000016c    l..     DCD    536871276
    $t
    i.audio_control
    audio_control
        0x08003ba8:    4602        .F      MOV      r2,r0
        0x08003baa:    b982        ..      CBNZ     r2,0x8003bce ; audio_control + 38
        0x08003bac:    4b09        .K      LDR      r3,[pc,#36] ; [0x8003bd4] = 0x20000170
        0x08003bae:    6808        .h      LDR      r0,[r1,#0]
        0x08003bb0:    6018        .`      STR      r0,[r3,#0]
        0x08003bb2:    4618        .F      MOV      r0,r3
        0x08003bb4:    6800        .h      LDR      r0,[r0,#0]
        0x08003bb6:    2864        d(      CMP      r0,#0x64
        0x08003bb8:    dd02        ..      BLE      0x8003bc0 ; audio_control + 24
        0x08003bba:    2064        d       MOVS     r0,#0x64
        0x08003bbc:    6018        .`      STR      r0,[r3,#0]
        0x08003bbe:    e006        ..      B        0x8003bce ; audio_control + 38
        0x08003bc0:    4804        .H      LDR      r0,[pc,#16] ; [0x8003bd4] = 0x20000170
        0x08003bc2:    6800        .h      LDR      r0,[r0,#0]
        0x08003bc4:    2800        .(      CMP      r0,#0
        0x08003bc6:    da02        ..      BGE      0x8003bce ; audio_control + 38
        0x08003bc8:    2000        .       MOVS     r0,#0
        0x08003bca:    4b02        .K      LDR      r3,[pc,#8] ; [0x8003bd4] = 0x20000170
        0x08003bcc:    6018        .`      STR      r0,[r3,#0]
        0x08003bce:    4801        .H      LDR      r0,[pc,#4] ; [0x8003bd4] = 0x20000170
        0x08003bd0:    6800        .h      LDR      r0,[r0,#0]
        0x08003bd2:    4770        pG      BX       lr
    $d
        0x08003bd4:    20000170    p..     DCD    536871280
    $t
    i.audio_init
    audio_init
        0x08003bd8:    b510        ..      PUSH     {r4,lr}
        0x08003bda:    a006        ..      ADR      r0,{pc}+0x1a ; 0x8003bf4
        0x08003bdc:    f7fdfe7c    ..|.    BL       GetLedDevice ; 0x80018d8
        0x08003be0:    4905        .I      LDR      r1,[pc,#20] ; [0x8003bf8] = 0x20000168
        0x08003be2:    6008        .`      STR      r0,[r1,#0]
        0x08003be4:    a005        ..      ADR      r0,{pc}+0x18 ; 0x8003bfc
        0x08003be6:    f7fdfdbb    ....    BL       GetBeepDevice ; 0x8001760
        0x08003bea:    4906        .I      LDR      r1,[pc,#24] ; [0x8003c04] = 0x2000016c
        0x08003bec:    6008        .`      STR      r0,[r1,#0]
        0x08003bee:    2000        .       MOVS     r0,#0
        0x08003bf0:    bd10        ..      POP      {r4,pc}
    $d
        0x08003bf2:    0000        ..      DCW    0
        0x08003bf4:    00444552    RED.    DCD    4474194
        0x08003bf8:    20000168    h..     DCD    536871272
        0x08003bfc:    70656562    beep    DCD    1885693282
        0x08003c00:    00000000    ....    DCD    0
        0x08003c04:    2000016c    l..     DCD    536871276
    $t
    i.audio_open
    audio_open
        0x08003c08:    b510        ..      PUSH     {r4,lr}
        0x08003c0a:    4804        .H      LDR      r0,[pc,#16] ; [0x8003c1c] = 0x20000168
        0x08003c0c:    6800        .h      LDR      r0,[r0,#0]
        0x08003c0e:    2100        .!      MOVS     r1,#0
        0x08003c10:    6902        .i      LDR      r2,[r0,#0x10]
        0x08003c12:    4802        .H      LDR      r0,[pc,#8] ; [0x8003c1c] = 0x20000168
        0x08003c14:    6800        .h      LDR      r0,[r0,#0]
        0x08003c16:    4790        .G      BLX      r2
        0x08003c18:    2000        .       MOVS     r0,#0
        0x08003c1a:    bd10        ..      POP      {r4,pc}
    $d
        0x08003c1c:    20000168    h..     DCD    536871272
    $t
    i.audio_write
    audio_write
        0x08003c20:    b570        p.      PUSH     {r4-r6,lr}
        0x08003c22:    4604        .F      MOV      r4,r0
        0x08003c24:    460e        .F      MOV      r6,r1
        0x08003c26:    4625        %F      MOV      r5,r4
        0x08003c28:    4811        .H      LDR      r0,[pc,#68] ; [0x8003c70] = 0x20000168
        0x08003c2a:    6800        .h      LDR      r0,[r0,#0]
        0x08003c2c:    2102        .!      MOVS     r1,#2
        0x08003c2e:    6902        .i      LDR      r2,[r0,#0x10]
        0x08003c30:    480f        .H      LDR      r0,[pc,#60] ; [0x8003c70] = 0x20000168
        0x08003c32:    6800        .h      LDR      r0,[r0,#0]
        0x08003c34:    4790        .G      BLX      r2
        0x08003c36:    480f        .H      LDR      r0,[pc,#60] ; [0x8003c74] = 0x2000016c
        0x08003c38:    6829        )h      LDR      r1,[r5,#0]
        0x08003c3a:    6800        .h      LDR      r0,[r0,#0]
        0x08003c3c:    6943        Ci      LDR      r3,[r0,#0x14]
        0x08003c3e:    480e        .H      LDR      r0,[pc,#56] ; [0x8003c78] = 0x20000170
        0x08003c40:    6802        .h      LDR      r2,[r0,#0]
        0x08003c42:    480c        .H      LDR      r0,[pc,#48] ; [0x8003c74] = 0x2000016c
        0x08003c44:    6800        .h      LDR      r0,[r0,#0]
        0x08003c46:    4798        .G      BLX      r3
        0x08003c48:    6869        ih      LDR      r1,[r5,#4]
        0x08003c4a:    eb010181    ....    ADD      r1,r1,r1,LSL #2
        0x08003c4e:    0088        ..      LSLS     r0,r1,#2
        0x08003c50:    f000f88e    ....    BL       delay ; 0x8003d70
        0x08003c54:    4807        .H      LDR      r0,[pc,#28] ; [0x8003c74] = 0x2000016c
        0x08003c56:    6800        .h      LDR      r0,[r0,#0]
        0x08003c58:    69c1        .i      LDR      r1,[r0,#0x1c]
        0x08003c5a:    4806        .H      LDR      r0,[pc,#24] ; [0x8003c74] = 0x2000016c
        0x08003c5c:    6800        .h      LDR      r0,[r0,#0]
        0x08003c5e:    4788        .G      BLX      r1
        0x08003c60:    68a9        .h      LDR      r1,[r5,#8]
        0x08003c62:    eb010181    ....    ADD      r1,r1,r1,LSL #2
        0x08003c66:    0088        ..      LSLS     r0,r1,#2
        0x08003c68:    f000f882    ....    BL       delay ; 0x8003d70
        0x08003c6c:    4630        0F      MOV      r0,r6
        0x08003c6e:    bd70        p.      POP      {r4-r6,pc}
    $d
        0x08003c70:    20000168    h..     DCD    536871272
        0x08003c74:    2000016c    l..     DCD    536871276
        0x08003c78:    20000170    p..     DCD    536871280
    $t
    i.button_cb
    button_cb
        0x08003c7c:    b510        ..      PUSH     {r4,lr}
        0x08003c7e:    4604        .F      MOV      r4,r0
        0x08003c80:    4803        .H      LDR      r0,[pc,#12] ; [0x8003c90] = 0x20000048
        0x08003c82:    6800        .h      LDR      r0,[r0,#0]
        0x08003c84:    b118        ..      CBZ      r0,0x8003c8e ; button_cb + 18
        0x08003c86:    4620         F      MOV      r0,r4
        0x08003c88:    4901        .I      LDR      r1,[pc,#4] ; [0x8003c90] = 0x20000048
        0x08003c8a:    6809        .h      LDR      r1,[r1,#0]
        0x08003c8c:    4788        .G      BLX      r1
        0x08003c8e:    bd10        ..      POP      {r4,pc}
    $d
        0x08003c90:    20000048    H..     DCD    536870984
    $t
    i.clear_cactus
    clear_cactus
        0x08003c94:    b570        p.      PUSH     {r4-r6,lr}
        0x08003c96:    4604        .F      MOV      r4,r0
        0x08003c98:    4625        %F      MOV      r5,r4
        0x08003c9a:    4804        .H      LDR      r0,[pc,#16] ; [0x8003cac] = 0x20000790
        0x08003c9c:    e9d53102    ...1    LDRD     r3,r1,[r5,#8]
        0x08003ca0:    692a        *i      LDR      r2,[r5,#0x10]
        0x08003ca2:    6800        .h      LDR      r0,[r0,#0]
        0x08003ca4:    f7fcfe44    ..D.    BL       ClearGraphInDisplayDev ; 0x8000930
        0x08003ca8:    2000        .       MOVS     r0,#0
        0x08003caa:    bd70        p.      POP      {r4-r6,pc}
    $d
        0x08003cac:    20000790    ...     DCD    536872848
    $t
    i.clear_cloud
    clear_cloud
        0x08003cb0:    b570        p.      PUSH     {r4-r6,lr}
        0x08003cb2:    4604        .F      MOV      r4,r0
        0x08003cb4:    4625        %F      MOV      r5,r4
        0x08003cb6:    4804        .H      LDR      r0,[pc,#16] ; [0x8003cc8] = 0x20000790
        0x08003cb8:    e9d53102    ...1    LDRD     r3,r1,[r5,#8]
        0x08003cbc:    692a        *i      LDR      r2,[r5,#0x10]
        0x08003cbe:    6800        .h      LDR      r0,[r0,#0]
        0x08003cc0:    f7fcfe36    ..6.    BL       ClearGraphInDisplayDev ; 0x8000930
        0x08003cc4:    2000        .       MOVS     r0,#0
        0x08003cc6:    bd70        p.      POP      {r4-r6,pc}
    $d
        0x08003cc8:    20000790    ...     DCD    536872848
    $t
    i.clear_dinosaur
    clear_dinosaur
        0x08003ccc:    b570        p.      PUSH     {r4-r6,lr}
        0x08003cce:    4604        .F      MOV      r4,r0
        0x08003cd0:    4625        %F      MOV      r5,r4
        0x08003cd2:    4804        .H      LDR      r0,[pc,#16] ; [0x8003ce4] = 0x20000790
        0x08003cd4:    e9d53102    ...1    LDRD     r3,r1,[r5,#8]
        0x08003cd8:    692a        *i      LDR      r2,[r5,#0x10]
        0x08003cda:    6800        .h      LDR      r0,[r0,#0]
        0x08003cdc:    f7fcfe28    ..(.    BL       ClearGraphInDisplayDev ; 0x8000930
        0x08003ce0:    2000        .       MOVS     r0,#0
        0x08003ce2:    bd70        p.      POP      {r4-r6,pc}
    $d
        0x08003ce4:    20000790    ...     DCD    536872848
    $t
    i.clear_ground
    clear_ground
        0x08003ce8:    4601        .F      MOV      r1,r0
        0x08003cea:    2000        .       MOVS     r0,#0
        0x08003cec:    4770        pG      BX       lr
    i.control_dinosaur
    control_dinosaur
        0x08003cee:    4603        .F      MOV      r3,r0
        0x08003cf0:    460a        .F      MOV      r2,r1
        0x08003cf2:    4619        .F      MOV      r1,r3
        0x08003cf4:    2a02        .*      CMP      r2,#2
        0x08003cf6:    d10c        ..      BNE      0x8003d12 ; control_dinosaur + 36
        0x08003cf8:    6848        Hh      LDR      r0,[r1,#4]
        0x08003cfa:    f4003080    ...0    AND      r0,r0,#0x10000
        0x08003cfe:    b180        ..      CBZ      r0,0x8003d22 ; control_dinosaur + 52
        0x08003d00:    6848        Hh      LDR      r0,[r1,#4]
        0x08003d02:    f4203080     ..0    BIC      r0,r0,#0x10000
        0x08003d06:    6048        H`      STR      r0,[r1,#4]
        0x08003d08:    6848        Hh      LDR      r0,[r1,#4]
        0x08003d0a:    f0400001    @...    ORR      r0,r0,#1
        0x08003d0e:    6048        H`      STR      r0,[r1,#4]
        0x08003d10:    e007        ..      B        0x8003d22 ; control_dinosaur + 52
        0x08003d12:    b922        ".      CBNZ     r2,0x8003d1e ; control_dinosaur + 48
        0x08003d14:    6848        Hh      LDR      r0,[r1,#4]
        0x08003d16:    f0405080    @..P    ORR      r0,r0,#0x10000000
        0x08003d1a:    6048        H`      STR      r0,[r1,#4]
        0x08003d1c:    e001        ..      B        0x8003d22 ; control_dinosaur + 52
        0x08003d1e:    6848        Hh      LDR      r0,[r1,#4]
        0x08003d20:    6048        H`      STR      r0,[r1,#4]
        0x08003d22:    2000        .       MOVS     r0,#0
        0x08003d24:    4770        pG      BX       lr
    i.decode_control
    decode_control
        0x08003d26:    b570        p.      PUSH     {r4-r6,lr}
        0x08003d28:    4606        .F      MOV      r6,r0
        0x08003d2a:    460c        .F      MOV      r4,r1
        0x08003d2c:    4615        .F      MOV      r5,r2
        0x08003d2e:    b924        $.      CBNZ     r4,0x8003d3a ; decode_control + 20
        0x08003d30:    4629        )F      MOV      r1,r5
        0x08003d32:    4630        0F      MOV      r0,r6
        0x08003d34:    f7fdfd28    ..(.    BL       GetBeepSongName ; 0x8001788
        0x08003d38:    e005        ..      B        0x8003d46 ; decode_control + 32
        0x08003d3a:    2c01        .,      CMP      r4,#1
        0x08003d3c:    d103        ..      BNE      0x8003d46 ; decode_control + 32
        0x08003d3e:    4630        0F      MOV      r0,r6
        0x08003d40:    f7fdfd14    ....    BL       GetBeepSongLen ; 0x800176c
        0x08003d44:    6028        (`      STR      r0,[r5,#0]
        0x08003d46:    2000        .       MOVS     r0,#0
        0x08003d48:    bd70        p.      POP      {r4-r6,pc}
    i.decode_init
    decode_init
        0x08003d4a:    b510        ..      PUSH     {r4,lr}
        0x08003d4c:    f7fcfcb8    ....    BL       BeepSongDecodeInit ; 0x80006c0
        0x08003d50:    2000        .       MOVS     r0,#0
        0x08003d52:    bd10        ..      POP      {r4,pc}
    i.decode_read
    decode_read
        0x08003d54:    e92d41f0    -..A    PUSH     {r4-r8,lr}
        0x08003d58:    4604        .F      MOV      r4,r0
        0x08003d5a:    460d        .F      MOV      r5,r1
        0x08003d5c:    4616        .F      MOV      r6,r2
        0x08003d5e:    461f        .F      MOV      r7,r3
        0x08003d60:    4632        2F      MOV      r2,r6
        0x08003d62:    4629        )F      MOV      r1,r5
        0x08003d64:    4620         F      MOV      r0,r4
        0x08003d66:    f7fcfcc1    ....    BL       BeepSongGetData ; 0x80006ec
        0x08003d6a:    2001        .       MOVS     r0,#1
        0x08003d6c:    e8bd81f0    ....    POP      {r4-r8,pc}
    i.delay
    delay
        0x08003d70:    2100        .!      MOVS     r1,#0
        0x08003d72:    e006        ..      B        0x8003d82 ; delay + 18
        0x08003d74:    2200        ."      MOVS     r2,#0
        0x08003d76:    e000        ..      B        0x8003d7a ; delay + 10
        0x08003d78:    1c52        R.      ADDS     r2,r2,#1
        0x08003d7a:    f5b27f7a    ..z.    CMP      r2,#0x3e8
        0x08003d7e:    dbfb        ..      BLT      0x8003d78 ; delay + 8
        0x08003d80:    1c49        I.      ADDS     r1,r1,#1
        0x08003d82:    4281        .B      CMP      r1,r0
        0x08003d84:    dbf6        ..      BLT      0x8003d74 ; delay + 4
        0x08003d86:    4770        pG      BX       lr
    i.excute_cactus1
    excute_cactus1
        0x08003d88:    b570        p.      PUSH     {r4-r6,lr}
        0x08003d8a:    4604        .F      MOV      r4,r0
        0x08003d8c:    4625        %F      MOV      r5,r4
        0x08003d8e:    4628        (F      MOV      r0,r5
        0x08003d90:    f7ffff80    ....    BL       clear_cactus ; 0x8003c94
        0x08003d94:    4628        (F      MOV      r0,r5
        0x08003d96:    f000f951    ..Q.    BL       move_cactus1 ; 0x800403c
        0x08003d9a:    4628        (F      MOV      r0,r5
        0x08003d9c:    f000f876    ..v.    BL       load_cactus ; 0x8003e8c
        0x08003da0:    2000        .       MOVS     r0,#0
        0x08003da2:    bd70        p.      POP      {r4-r6,pc}
    i.excute_cactus2
    excute_cactus2
        0x08003da4:    b570        p.      PUSH     {r4-r6,lr}
        0x08003da6:    4604        .F      MOV      r4,r0
        0x08003da8:    4625        %F      MOV      r5,r4
        0x08003daa:    4628        (F      MOV      r0,r5
        0x08003dac:    f7ffff72    ..r.    BL       clear_cactus ; 0x8003c94
        0x08003db0:    4628        (F      MOV      r0,r5
        0x08003db2:    f000f973    ..s.    BL       move_cactus2 ; 0x800409c
        0x08003db6:    4628        (F      MOV      r0,r5
        0x08003db8:    f000f868    ..h.    BL       load_cactus ; 0x8003e8c
        0x08003dbc:    2000        .       MOVS     r0,#0
        0x08003dbe:    bd70        p.      POP      {r4-r6,pc}
    i.excute_cloud
    excute_cloud
        0x08003dc0:    b570        p.      PUSH     {r4-r6,lr}
        0x08003dc2:    4604        .F      MOV      r4,r0
        0x08003dc4:    4625        %F      MOV      r5,r4
        0x08003dc6:    4628        (F      MOV      r0,r5
        0x08003dc8:    f7ffff72    ..r.    BL       clear_cloud ; 0x8003cb0
        0x08003dcc:    4628        (F      MOV      r0,r5
        0x08003dce:    f000f995    ....    BL       move_cloud ; 0x80040fc
        0x08003dd2:    4628        (F      MOV      r0,r5
        0x08003dd4:    f000f868    ..h.    BL       load_cloud ; 0x8003ea8
        0x08003dd8:    2000        .       MOVS     r0,#0
        0x08003dda:    bd70        p.      POP      {r4-r6,pc}
    i.excute_dinosaur
    excute_dinosaur
        0x08003ddc:    b570        p.      PUSH     {r4-r6,lr}
        0x08003dde:    4604        .F      MOV      r4,r0
        0x08003de0:    4625        %F      MOV      r5,r4
        0x08003de2:    4628        (F      MOV      r0,r5
        0x08003de4:    f7ffff72    ..r.    BL       clear_dinosaur ; 0x8003ccc
        0x08003de8:    4628        (F      MOV      r0,r5
        0x08003dea:    f000f9a7    ....    BL       move_dinosaur ; 0x800413c
        0x08003dee:    4628        (F      MOV      r0,r5
        0x08003df0:    f000f868    ..h.    BL       load_dinosaur ; 0x8003ec4
        0x08003df4:    2000        .       MOVS     r0,#0
        0x08003df6:    bd70        p.      POP      {r4-r6,pc}
    i.excute_ground
    excute_ground
        0x08003df8:    b570        p.      PUSH     {r4-r6,lr}
        0x08003dfa:    4604        .F      MOV      r4,r0
        0x08003dfc:    4625        %F      MOV      r5,r4
        0x08003dfe:    4628        (F      MOV      r0,r5
        0x08003e00:    f7ffff72    ..r.    BL       clear_ground ; 0x8003ce8
        0x08003e04:    4628        (F      MOV      r0,r5
        0x08003e06:    f000f9e7    ....    BL       move_ground ; 0x80041d8
        0x08003e0a:    4628        (F      MOV      r0,r5
        0x08003e0c:    f000f868    ..h.    BL       load_ground ; 0x8003ee0
        0x08003e10:    2000        .       MOVS     r0,#0
        0x08003e12:    bd70        p.      POP      {r4-r6,pc}
    i.excute_item
    excute_item
        0x08003e14:    b570        p.      PUSH     {r4-r6,lr}
        0x08003e16:    4606        .F      MOV      r6,r0
        0x08003e18:    460c        .F      MOV      r4,r1
        0x08003e1a:    4635        5F      MOV      r5,r6
        0x08003e1c:    f1050008    ....    ADD      r0,r5,#8
        0x08003e20:    f8500024    P.$.    LDR      r0,[r0,r4,LSL #2]
        0x08003e24:    6840        @h      LDR      r0,[r0,#4]
        0x08003e26:    f0005080    ...P    AND      r0,r0,#0x10000000
        0x08003e2a:    b310        ..      CBZ      r0,0x8003e72 ; excute_item + 94
        0x08003e2c:    f1050208    ....    ADD      r2,r5,#8
        0x08003e30:    f8520024    R.$.    LDR      r0,[r2,r4,LSL #2]
        0x08003e34:    f8522024    R.$     LDR      r2,[r2,r4,LSL #2]
        0x08003e38:    6a51        Qj      LDR      r1,[r2,#0x24]
        0x08003e3a:    4788        .G      BLX      r1
        0x08003e3c:    f1050008    ....    ADD      r0,r5,#8
        0x08003e40:    f8500024    P.$.    LDR      r0,[r0,r4,LSL #2]
        0x08003e44:    6840        @h      LDR      r0,[r0,#4]
        0x08003e46:    f4001080    ....    AND      r0,r0,#0x100000
        0x08003e4a:    b190        ..      CBZ      r0,0x8003e72 ; excute_item + 94
        0x08003e4c:    f7fcfeea    ....    BL       DefaultDinosaurCollisionJUDGE ; 0x8000c24
        0x08003e50:    b178        x.      CBZ      r0,0x8003e72 ; excute_item + 94
        0x08003e52:    f1050008    ....    ADD      r0,r5,#8
        0x08003e56:    f8500024    P.$.    LDR      r0,[r0,r4,LSL #2]
        0x08003e5a:    68c0        .h      LDR      r0,[r0,#0xc]
        0x08003e5c:    281c        .(      CMP      r0,#0x1c
        0x08003e5e:    da08        ..      BGE      0x8003e72 ; excute_item + 94
        0x08003e60:    f1050008    ....    ADD      r0,r5,#8
        0x08003e64:    f8500024    P.$.    LDR      r0,[r0,r4,LSL #2]
        0x08003e68:    68c0        .h      LDR      r0,[r0,#0xc]
        0x08003e6a:    2800        .(      CMP      r0,#0
        0x08003e6c:    dd01        ..      BLE      0x8003e72 ; excute_item + 94
        0x08003e6e:    f7fcfecf    ....    BL       DefaultDinosaurCollisionEXCUTE ; 0x8000c10
        0x08003e72:    bd70        p.      POP      {r4-r6,pc}
    i.fputc
    fputc
        0x08003e74:    b570        p.      PUSH     {r4-r6,lr}
        0x08003e76:    4604        .F      MOV      r4,r0
        0x08003e78:    460d        .F      MOV      r5,r1
        0x08003e7a:    b2e1        ..      UXTB     r1,r4
        0x08003e7c:    4802        .H      LDR      r0,[pc,#8] ; [0x8003e88] = 0x40013800
        0x08003e7e:    f7fffc41    ..A.    BL       Usart_SendByte ; 0x8003704
        0x08003e82:    4620         F      MOV      r0,r4
        0x08003e84:    bd70        p.      POP      {r4-r6,pc}
    $d
        0x08003e86:    0000        ..      DCW    0
        0x08003e88:    40013800    .8.@    DCD    1073821696
    $t
    i.load_cactus
    load_cactus
        0x08003e8c:    b570        p.      PUSH     {r4-r6,lr}
        0x08003e8e:    4604        .F      MOV      r4,r0
        0x08003e90:    4625        %F      MOV      r5,r4
        0x08003e92:    4804        .H      LDR      r0,[pc,#16] ; [0x8003ea4] = 0x20000790
        0x08003e94:    e9d53102    ...1    LDRD     r3,r1,[r5,#8]
        0x08003e98:    692a        *i      LDR      r2,[r5,#0x10]
        0x08003e9a:    6800        .h      LDR      r0,[r0,#0]
        0x08003e9c:    f7fff91a    ....    BL       ShowGraphInDisplayDev ; 0x80030d4
        0x08003ea0:    2000        .       MOVS     r0,#0
        0x08003ea2:    bd70        p.      POP      {r4-r6,pc}
    $d
        0x08003ea4:    20000790    ...     DCD    536872848
    $t
    i.load_cloud
    load_cloud
        0x08003ea8:    b570        p.      PUSH     {r4-r6,lr}
        0x08003eaa:    4604        .F      MOV      r4,r0
        0x08003eac:    4625        %F      MOV      r5,r4
        0x08003eae:    4804        .H      LDR      r0,[pc,#16] ; [0x8003ec0] = 0x20000790
        0x08003eb0:    e9d53102    ...1    LDRD     r3,r1,[r5,#8]
        0x08003eb4:    692a        *i      LDR      r2,[r5,#0x10]
        0x08003eb6:    6800        .h      LDR      r0,[r0,#0]
        0x08003eb8:    f7fff90c    ....    BL       ShowGraphInDisplayDev ; 0x80030d4
        0x08003ebc:    2000        .       MOVS     r0,#0
        0x08003ebe:    bd70        p.      POP      {r4-r6,pc}
    $d
        0x08003ec0:    20000790    ...     DCD    536872848
    $t
    i.load_dinosaur
    load_dinosaur
        0x08003ec4:    b570        p.      PUSH     {r4-r6,lr}
        0x08003ec6:    4604        .F      MOV      r4,r0
        0x08003ec8:    4625        %F      MOV      r5,r4
        0x08003eca:    4804        .H      LDR      r0,[pc,#16] ; [0x8003edc] = 0x20000790
        0x08003ecc:    e9d53102    ...1    LDRD     r3,r1,[r5,#8]
        0x08003ed0:    692a        *i      LDR      r2,[r5,#0x10]
        0x08003ed2:    6800        .h      LDR      r0,[r0,#0]
        0x08003ed4:    f7fff8fe    ....    BL       ShowGraphInDisplayDev ; 0x80030d4
        0x08003ed8:    2000        .       MOVS     r0,#0
        0x08003eda:    bd70        p.      POP      {r4-r6,pc}
    $d
        0x08003edc:    20000790    ...     DCD    536872848
    $t
    i.load_ground
    load_ground
        0x08003ee0:    b570        p.      PUSH     {r4-r6,lr}
        0x08003ee2:    4604        .F      MOV      r4,r0
        0x08003ee4:    4625        %F      MOV      r5,r4
        0x08003ee6:    4804        .H      LDR      r0,[pc,#16] ; [0x8003ef8] = 0x20000790
        0x08003ee8:    e9d53102    ...1    LDRD     r3,r1,[r5,#8]
        0x08003eec:    692a        *i      LDR      r2,[r5,#0x10]
        0x08003eee:    6800        .h      LDR      r0,[r0,#0]
        0x08003ef0:    f7fff8f0    ....    BL       ShowGraphInDisplayDev ; 0x80030d4
        0x08003ef4:    2000        .       MOVS     r0,#0
        0x08003ef6:    bd70        p.      POP      {r4-r6,pc}
    $d
        0x08003ef8:    20000790    ...     DCD    536872848
    $t
    i.main
    main
        0x08003efc:    b51c        ..      PUSH     {r2-r4,lr}
        0x08003efe:    f7fcfc3f    ..?.    BL       BoradInit ; 0x8000780
        0x08003f02:    f000fb97    ....    BL       rt_system_scheduler_init ; 0x8004634
        0x08003f06:    f44f7000    O..p    MOV      r0,#0x200
        0x08003f0a:    4917        .I      LDR      r1,[pc,#92] ; [0x8003f68] = 0x20000824
        0x08003f0c:    2300        .#      MOVS     r3,#0
        0x08003f0e:    4a17        .J      LDR      r2,[pc,#92] ; [0x8003f6c] = 0x8001e85
        0x08003f10:    e9cd1000    ....    STRD     r1,r0,[sp,#0]
        0x08003f14:    a116        ..      ADR      r1,{pc}+0x5c ; 0x8003f70
        0x08003f16:    481a        .H      LDR      r0,[pc,#104] ; [0x8003f80] = 0x200007a4
        0x08003f18:    f000fb9e    ....    BL       rt_thread_init ; 0x8004658
        0x08003f1c:    f44f7000    O..p    MOV      r0,#0x200
        0x08003f20:    4918        .I      LDR      r1,[pc,#96] ; [0x8003f84] = 0x20000a24
        0x08003f22:    2300        .#      MOVS     r3,#0
        0x08003f24:    4a18        .J      LDR      r2,[pc,#96] ; [0x8003f88] = 0x8002115
        0x08003f26:    e9cd1000    ....    STRD     r1,r0,[sp,#0]
        0x08003f2a:    a118        ..      ADR      r1,{pc}+0x62 ; 0x8003f8c
        0x08003f2c:    481a        .H      LDR      r0,[pc,#104] ; [0x8003f98] = 0x200007c4
        0x08003f2e:    f000fb93    ....    BL       rt_thread_init ; 0x8004658
        0x08003f32:    f44f7000    O..p    MOV      r0,#0x200
        0x08003f36:    4919        .I      LDR      r1,[pc,#100] ; [0x8003f9c] = 0x20000c24
        0x08003f38:    2300        .#      MOVS     r3,#0
        0x08003f3a:    4a19        .J      LDR      r2,[pc,#100] ; [0x8003fa0] = 0x80028f9
        0x08003f3c:    e9cd1000    ....    STRD     r1,r0,[sp,#0]
        0x08003f40:    a118        ..      ADR      r1,{pc}+0x64 ; 0x8003fa4
        0x08003f42:    481c        .H      LDR      r0,[pc,#112] ; [0x8003fb4] = 0x200007e4
        0x08003f44:    f000fb88    ....    BL       rt_thread_init ; 0x8004658
        0x08003f48:    f44f7000    O..p    MOV      r0,#0x200
        0x08003f4c:    491a        .I      LDR      r1,[pc,#104] ; [0x8003fb8] = 0x20000e24
        0x08003f4e:    2300        .#      MOVS     r3,#0
        0x08003f50:    4a1a        .J      LDR      r2,[pc,#104] ; [0x8003fbc] = 0x8001635
        0x08003f52:    e9cd1000    ....    STRD     r1,r0,[sp,#0]
        0x08003f56:    a11a        ..      ADR      r1,{pc}+0x6a ; 0x8003fc0
        0x08003f58:    481c        .H      LDR      r0,[pc,#112] ; [0x8003fcc] = 0x20000804
        0x08003f5a:    f000fb7d    ..}.    BL       rt_thread_init ; 0x8004658
        0x08003f5e:    481b        .H      LDR      r0,[pc,#108] ; [0x8003fcc] = 0x20000804
        0x08003f60:    f000fb6e    ..n.    BL       rt_system_scheduler_start ; 0x8004640
        0x08003f64:    2000        .       MOVS     r0,#0
        0x08003f66:    bd1c        ..      POP      {r2-r4,pc}
    $d
        0x08003f68:    20000824    $..     DCD    536872996
        0x08003f6c:    08001e85    ....    DCD    134225541
        0x08003f70:    69676f6c    logi    DCD    1768386412
        0x08003f74:    68745f63    c_th    DCD    1752457059
        0x08003f78:    64616572    read    DCD    1684104562
        0x08003f7c:    00000000    ....    DCD    0
        0x08003f80:    200007a4    ...     DCD    536872868
        0x08003f84:    20000a24    $..     DCD    536873508
        0x08003f88:    08002115    .!..    DCD    134226197
        0x08003f8c:    756e656d    menu    DCD    1970169197
        0x08003f90:    7268745f    _thr    DCD    1919448159
        0x08003f94:    00646165    ead.    DCD    6578533
        0x08003f98:    200007c4    ...     DCD    536872900
        0x08003f9c:    20000c24    $..     DCD    536874020
        0x08003fa0:    080028f9    .(..    DCD    134228217
        0x08003fa4:    79616c70    play    DCD    2036427888
        0x08003fa8:    745f7265    er_t    DCD    1952412261
        0x08003fac:    61657268    hrea    DCD    1634038376
        0x08003fb0:    00000064    d...    DCD    100
        0x08003fb4:    200007e4    ...     DCD    536872932
        0x08003fb8:    20000e24    $..     DCD    536874532
        0x08003fbc:    08001635    5...    DCD    134223413
        0x08003fc0:    656d6167    game    DCD    1701667175
        0x08003fc4:    7268745f    _thr    DCD    1919448159
        0x08003fc8:    00646165    ead.    DCD    6578533
        0x08003fcc:    20000804    ...     DCD    536872964
    $t
    i.malloc
    malloc
        0x08003fd0:    b5f0        ..      PUSH     {r4-r7,lr}
        0x08003fd2:    300b        .0      ADDS     r0,r0,#0xb
        0x08003fd4:    4d15        .M      LDR      r5,[pc,#84] ; [0x800402c] = 0x200007a0
        0x08003fd6:    f0200107     ...    BIC      r1,r0,#7
        0x08003fda:    2400        .$      MOVS     r4,#0
        0x08003fdc:    4a14        .J      LDR      r2,[pc,#80] ; [0x8004030] = 0x2000079c
        0x08003fde:    e00f        ..      B        0x8004000 ; malloc + 48
        0x08003fe0:    6803        .h      LDR      r3,[r0,#0]
        0x08003fe2:    428b        .B      CMP      r3,r1
        0x08003fe4:    d30b        ..      BCC      0x8003ffe ; malloc + 46
        0x08003fe6:    428b        .B      CMP      r3,r1
        0x08003fe8:    d905        ..      BLS      0x8003ff6 ; malloc + 38
        0x08003fea:    1a5e        ^.      SUBS     r6,r3,r1
        0x08003fec:    1843        C.      ADDS     r3,r0,r1
        0x08003fee:    6847        Gh      LDR      r7,[r0,#4]
        0x08003ff0:    e9c36700    ...g    STRD     r6,r7,[r3,#0]
        0x08003ff4:    e000        ..      B        0x8003ff8 ; malloc + 40
        0x08003ff6:    6843        Ch      LDR      r3,[r0,#4]
        0x08003ff8:    6013        .`      STR      r3,[r2,#0]
        0x08003ffa:    c002        ..      STM      r0!,{r1}
        0x08003ffc:    e004        ..      B        0x8004008 ; malloc + 56
        0x08003ffe:    1d02        ..      ADDS     r2,r0,#4
        0x08004000:    6810        .h      LDR      r0,[r2,#0]
        0x08004002:    2800        .(      CMP      r0,#0
        0x08004004:    d1ec        ..      BNE      0x8003fe0 ; malloc + 16
        0x08004006:    4620         F      MOV      r0,r4
        0x08004008:    2800        .(      CMP      r0,#0
        0x0800400a:    d102        ..      BNE      0x8004012 ; malloc + 66
        0x0800400c:    6828        (h      LDR      r0,[r5,#0]
        0x0800400e:    b108        ..      CBZ      r0,0x8004014 ; malloc + 68
        0x08004010:    2000        .       MOVS     r0,#0
        0x08004012:    bdf0        ..      POP      {r4-r7,pc}
        0x08004014:    4a06        .J      LDR      r2,[pc,#24] ; [0x8004030] = 0x2000079c
        0x08004016:    4807        .H      LDR      r0,[pc,#28] ; [0x8004034] = 0x200027cc
        0x08004018:    6010        .`      STR      r0,[r2,#0]
        0x0800401a:    4a07        .J      LDR      r2,[pc,#28] ; [0x8004038] = 0x200029c8
        0x0800401c:    1a12        ..      SUBS     r2,r2,r0
        0x0800401e:    f0220207    "...    BIC      r2,r2,#7
        0x08004022:    e9c02400    ...$    STRD     r2,r4,[r0,#0]
        0x08004026:    2001        .       MOVS     r0,#1
        0x08004028:    6028        (`      STR      r0,[r5,#0]
        0x0800402a:    e7d7        ..      B        0x8003fdc ; malloc + 12
    $d
        0x0800402c:    200007a0    ...     DCD    536872864
        0x08004030:    2000079c    ...     DCD    536872860
        0x08004034:    200027cc    .'.     DCD    536881100
        0x08004038:    200029c8    .).     DCD    536881608
    $t
    i.move_cactus1
    move_cactus1
        0x0800403c:    b570        p.      PUSH     {r4-r6,lr}
        0x0800403e:    4604        .F      MOV      r4,r0
        0x08004040:    4625        %F      MOV      r5,r4
        0x08004042:    68e8        .h      LDR      r0,[r5,#0xc]
        0x08004044:    1ec0        ..      SUBS     r0,r0,#3
        0x08004046:    60e8        .`      STR      r0,[r5,#0xc]
        0x08004048:    4912        .I      LDR      r1,[pc,#72] ; [0x8004094] = 0x200002c0
        0x0800404a:    68e8        .h      LDR      r0,[r5,#0xc]
        0x0800404c:    6008        .`      STR      r0,[r1,#0]
        0x0800404e:    68e8        .h      LDR      r0,[r5,#0xc]
        0x08004050:    f1100f10    ....    CMN      r0,#0x10
        0x08004054:    da1b        ..      BGE      0x800408e ; move_cactus1 + 82
        0x08004056:    4810        .H      LDR      r0,[pc,#64] ; [0x8004098] = 0x200002c4
        0x08004058:    6800        .h      LDR      r0,[r0,#0]
        0x0800405a:    285c        \(      CMP      r0,#0x5c
        0x0800405c:    da09        ..      BGE      0x8004072 ; move_cactus1 + 54
        0x0800405e:    f7fcf8b1    ....    BL       rand ; 0x80001c4
        0x08004062:    2128        (!      MOVS     r1,#0x28
        0x08004064:    fb90f2f1    ....    SDIV     r2,r0,r1
        0x08004068:    fb010012    ....    MLS      r0,r1,r2,r0
        0x0800406c:    3080        .0      ADDS     r0,r0,#0x80
        0x0800406e:    60e8        .`      STR      r0,[r5,#0xc]
        0x08004070:    e00d        ..      B        0x800408e ; move_cactus1 + 82
        0x08004072:    f7fcf8a7    ....    BL       rand ; 0x80001c4
        0x08004076:    4606        .F      MOV      r6,r0
        0x08004078:    17c0        ..      ASRS     r0,r0,#31
        0x0800407a:    eb066090    ...`    ADD      r0,r6,r0,LSR #26
        0x0800407e:    1180        ..      ASRS     r0,r0,#6
        0x08004080:    eba61180    ....    SUB      r1,r6,r0,LSL #6
        0x08004084:    4804        .H      LDR      r0,[pc,#16] ; [0x8004098] = 0x200002c4
        0x08004086:    6800        .h      LDR      r0,[r0,#0]
        0x08004088:    3028        (0      ADDS     r0,r0,#0x28
        0x0800408a:    4408        .D      ADD      r0,r0,r1
        0x0800408c:    60e8        .`      STR      r0,[r5,#0xc]
        0x0800408e:    2000        .       MOVS     r0,#0
        0x08004090:    bd70        p.      POP      {r4-r6,pc}
    $d
        0x08004092:    0000        ..      DCW    0
        0x08004094:    200002c0    ...     DCD    536871616
        0x08004098:    200002c4    ...     DCD    536871620
    $t
    i.move_cactus2
    move_cactus2
        0x0800409c:    b570        p.      PUSH     {r4-r6,lr}
        0x0800409e:    4604        .F      MOV      r4,r0
        0x080040a0:    4625        %F      MOV      r5,r4
        0x080040a2:    68e8        .h      LDR      r0,[r5,#0xc]
        0x080040a4:    1ec0        ..      SUBS     r0,r0,#3
        0x080040a6:    60e8        .`      STR      r0,[r5,#0xc]
        0x080040a8:    4912        .I      LDR      r1,[pc,#72] ; [0x80040f4] = 0x200002c4
        0x080040aa:    68e8        .h      LDR      r0,[r5,#0xc]
        0x080040ac:    6008        .`      STR      r0,[r1,#0]
        0x080040ae:    68e8        .h      LDR      r0,[r5,#0xc]
        0x080040b0:    f1100f10    ....    CMN      r0,#0x10
        0x080040b4:    da1b        ..      BGE      0x80040ee ; move_cactus2 + 82
        0x080040b6:    4810        .H      LDR      r0,[pc,#64] ; [0x80040f8] = 0x200002c0
        0x080040b8:    6800        .h      LDR      r0,[r0,#0]
        0x080040ba:    285c        \(      CMP      r0,#0x5c
        0x080040bc:    da09        ..      BGE      0x80040d2 ; move_cactus2 + 54
        0x080040be:    f7fcf881    ....    BL       rand ; 0x80001c4
        0x080040c2:    2128        (!      MOVS     r1,#0x28
        0x080040c4:    fb90f2f1    ....    SDIV     r2,r0,r1
        0x080040c8:    fb010012    ....    MLS      r0,r1,r2,r0
        0x080040cc:    3080        .0      ADDS     r0,r0,#0x80
        0x080040ce:    60e8        .`      STR      r0,[r5,#0xc]
        0x080040d0:    e00d        ..      B        0x80040ee ; move_cactus2 + 82
        0x080040d2:    f7fcf877    ..w.    BL       rand ; 0x80001c4
        0x080040d6:    4606        .F      MOV      r6,r0
        0x080040d8:    17c0        ..      ASRS     r0,r0,#31
        0x080040da:    eb066090    ...`    ADD      r0,r6,r0,LSR #26
        0x080040de:    1180        ..      ASRS     r0,r0,#6
        0x080040e0:    eba61180    ....    SUB      r1,r6,r0,LSL #6
        0x080040e4:    4804        .H      LDR      r0,[pc,#16] ; [0x80040f8] = 0x200002c0
        0x080040e6:    6800        .h      LDR      r0,[r0,#0]
        0x080040e8:    3028        (0      ADDS     r0,r0,#0x28
        0x080040ea:    4408        .D      ADD      r0,r0,r1
        0x080040ec:    60e8        .`      STR      r0,[r5,#0xc]
        0x080040ee:    2000        .       MOVS     r0,#0
        0x080040f0:    bd70        p.      POP      {r4-r6,pc}
    $d
        0x080040f2:    0000        ..      DCW    0
        0x080040f4:    200002c4    ...     DCD    536871620
        0x080040f8:    200002c0    ...     DCD    536871616
    $t
    i.move_cloud
    move_cloud
        0x080040fc:    b570        p.      PUSH     {r4-r6,lr}
        0x080040fe:    4604        .F      MOV      r4,r0
        0x08004100:    4625        %F      MOV      r5,r4
        0x08004102:    68e8        .h      LDR      r0,[r5,#0xc]
        0x08004104:    1e40        @.      SUBS     r0,r0,#1
        0x08004106:    60e8        .`      STR      r0,[r5,#0xc]
        0x08004108:    68e8        .h      LDR      r0,[r5,#0xc]
        0x0800410a:    f1100f18    ....    CMN      r0,#0x18
        0x0800410e:    da13        ..      BGE      0x8004138 ; move_cloud + 60
        0x08004110:    f7fcf858    ..X.    BL       rand ; 0x80001c4
        0x08004114:    4606        .F      MOV      r6,r0
        0x08004116:    17c0        ..      ASRS     r0,r0,#31
        0x08004118:    eb066050    ..P`    ADD      r0,r6,r0,LSR #25
        0x0800411c:    11c0        ..      ASRS     r0,r0,#7
        0x0800411e:    eba610c0    ....    SUB      r0,r6,r0,LSL #7
        0x08004122:    3080        .0      ADDS     r0,r0,#0x80
        0x08004124:    60e8        .`      STR      r0,[r5,#0xc]
        0x08004126:    f7fcf84d    ..M.    BL       rand ; 0x80001c4
        0x0800412a:    2118        .!      MOVS     r1,#0x18
        0x0800412c:    fb90f2f1    ....    SDIV     r2,r0,r1
        0x08004130:    fb010012    ....    MLS      r0,r1,r2,r0
        0x08004134:    3009        .0      ADDS     r0,r0,#9
        0x08004136:    6128        (a      STR      r0,[r5,#0x10]
        0x08004138:    2000        .       MOVS     r0,#0
        0x0800413a:    bd70        p.      POP      {r4-r6,pc}
    i.move_dinosaur
    move_dinosaur
        0x0800413c:    b510        ..      PUSH     {r4,lr}
        0x0800413e:    4602        .F      MOV      r2,r0
        0x08004140:    4611        .F      MOV      r1,r2
        0x08004142:    7908        .y      LDRB     r0,[r1,#4]
        0x08004144:    f0000001    ....    AND      r0,r0,#1
        0x08004148:    b1c0        ..      CBZ      r0,0x800417c ; move_dinosaur + 64
        0x0800414a:    4821        !H      LDR      r0,[pc,#132] ; [0x80041d0] = 0x2000036c
        0x0800414c:    690b        .i      LDR      r3,[r1,#0x10]
        0x0800414e:    6800        .h      LDR      r0,[r0,#0]
        0x08004150:    1e40        @.      SUBS     r0,r0,#1
        0x08004152:    4c20         L      LDR      r4,[pc,#128] ; [0x80041d4] = 0x20000360
        0x08004154:    5c20         \      LDRB     r0,[r4,r0]
        0x08004156:    1a18        ..      SUBS     r0,r3,r0
        0x08004158:    6108        .a      STR      r0,[r1,#0x10]
        0x0800415a:    481d        .H      LDR      r0,[pc,#116] ; [0x80041d0] = 0x2000036c
        0x0800415c:    6800        .h      LDR      r0,[r0,#0]
        0x0800415e:    1e40        @.      SUBS     r0,r0,#1
        0x08004160:    4b1b        .K      LDR      r3,[pc,#108] ; [0x80041d0] = 0x2000036c
        0x08004162:    6018        .`      STR      r0,[r3,#0]
        0x08004164:    4618        .F      MOV      r0,r3
        0x08004166:    6800        .h      LDR      r0,[r0,#0]
        0x08004168:    bb20         .      CBNZ     r0,0x80041b4 ; move_dinosaur + 120
        0x0800416a:    6848        Hh      LDR      r0,[r1,#4]
        0x0800416c:    f0200001     ...    BIC      r0,r0,#1
        0x08004170:    6048        H`      STR      r0,[r1,#4]
        0x08004172:    6848        Hh      LDR      r0,[r1,#4]
        0x08004174:    f0400010    @...    ORR      r0,r0,#0x10
        0x08004178:    6048        H`      STR      r0,[r1,#4]
        0x0800417a:    e01b        ..      B        0x80041b4 ; move_dinosaur + 120
        0x0800417c:    7908        .y      LDRB     r0,[r1,#4]
        0x0800417e:    f0000010    ....    AND      r0,r0,#0x10
        0x08004182:    b1b8        ..      CBZ      r0,0x80041b4 ; move_dinosaur + 120
        0x08004184:    4b13        .K      LDR      r3,[pc,#76] ; [0x80041d4] = 0x20000360
        0x08004186:    4c12        .L      LDR      r4,[pc,#72] ; [0x80041d0] = 0x2000036c
        0x08004188:    6908        .i      LDR      r0,[r1,#0x10]
        0x0800418a:    6824        $h      LDR      r4,[r4,#0]
        0x0800418c:    5d1b        .]      LDRB     r3,[r3,r4]
        0x0800418e:    4418        .D      ADD      r0,r0,r3
        0x08004190:    6108        .a      STR      r0,[r1,#0x10]
        0x08004192:    480f        .H      LDR      r0,[pc,#60] ; [0x80041d0] = 0x2000036c
        0x08004194:    6800        .h      LDR      r0,[r0,#0]
        0x08004196:    1c40        @.      ADDS     r0,r0,#1
        0x08004198:    4b0d        .K      LDR      r3,[pc,#52] ; [0x80041d0] = 0x2000036c
        0x0800419a:    6018        .`      STR      r0,[r3,#0]
        0x0800419c:    4618        .F      MOV      r0,r3
        0x0800419e:    6800        .h      LDR      r0,[r0,#0]
        0x080041a0:    2809        .(      CMP      r0,#9
        0x080041a2:    d107        ..      BNE      0x80041b4 ; move_dinosaur + 120
        0x080041a4:    6848        Hh      LDR      r0,[r1,#4]
        0x080041a6:    f0200010     ...    BIC      r0,r0,#0x10
        0x080041aa:    6048        H`      STR      r0,[r1,#4]
        0x080041ac:    6848        Hh      LDR      r0,[r1,#4]
        0x080041ae:    f4403080    @..0    ORR      r0,r0,#0x10000
        0x080041b2:    6048        H`      STR      r0,[r1,#4]
        0x080041b4:    688b        .h      LDR      r3,[r1,#8]
        0x080041b6:    69db        .i      LDR      r3,[r3,#0x1c]
        0x080041b8:    f1030020    .. .    ADD      r0,r3,#0x20
        0x080041bc:    17c3        ..      ASRS     r3,r0,#31
        0x080041be:    eb006393    ...c    ADD      r3,r0,r3,LSR #26
        0x080041c2:    119b        ..      ASRS     r3,r3,#6
        0x080041c4:    eba01383    ....    SUB      r3,r0,r3,LSL #6
        0x080041c8:    688c        .h      LDR      r4,[r1,#8]
        0x080041ca:    61e3        .a      STR      r3,[r4,#0x1c]
        0x080041cc:    2000        .       MOVS     r0,#0
        0x080041ce:    bd10        ..      POP      {r4,pc}
    $d
        0x080041d0:    2000036c    l..     DCD    536871788
        0x080041d4:    20000360    `..     DCD    536871776
    $t
    i.move_ground
    move_ground
        0x080041d8:    4601        .F      MOV      r1,r0
        0x080041da:    460a        .F      MOV      r2,r1
        0x080041dc:    6890        .h      LDR      r0,[r2,#8]
        0x080041de:    69c0        .i      LDR      r0,[r0,#0x1c]
        0x080041e0:    1cc0        ..      ADDS     r0,r0,#3
        0x080041e2:    6893        .h      LDR      r3,[r2,#8]
        0x080041e4:    61d8        .a      STR      r0,[r3,#0x1c]
        0x080041e6:    6890        .h      LDR      r0,[r2,#8]
        0x080041e8:    69c0        .i      LDR      r0,[r0,#0x1c]
        0x080041ea:    f5b07fe1    ....    CMP      r0,#0x1c2
        0x080041ee:    d102        ..      BNE      0x80041f6 ; move_ground + 30
        0x080041f0:    2000        .       MOVS     r0,#0
        0x080041f2:    6893        .h      LDR      r3,[r2,#8]
        0x080041f4:    61d8        .a      STR      r0,[r3,#0x1c]
        0x080041f6:    2000        .       MOVS     r0,#0
        0x080041f8:    4770        pG      BX       lr
        0x080041fa:    0000        ..      MOVS     r0,r0
    i.my_button_scan
    my_button_scan
        0x080041fc:    b570        p.      PUSH     {r4-r6,lr}
        0x080041fe:    2400        .$      MOVS     r4,#0
        0x08004200:    e0b0        ..      B        0x8004364 ; my_button_scan + 360
        0x08004202:    485c        \H      LDR      r0,[pc,#368] ; [0x8004374] = 0x2000144c
        0x08004204:    f8500024    P.$.    LDR      r0,[r0,r4,LSL #2]
        0x08004208:    6885        .h      LDR      r5,[r0,#8]
        0x0800420a:    485a        ZH      LDR      r0,[pc,#360] ; [0x8004374] = 0x2000144c
        0x0800420c:    f8500024    P.$.    LDR      r0,[r0,r4,LSL #2]
        0x08004210:    8a00        ..      LDRH     r0,[r0,#0x10]
        0x08004212:    b281        ..      UXTH     r1,r0
        0x08004214:    4858        XH      LDR      r0,[pc,#352] ; [0x8004378] = 0x40010800
        0x08004216:    f7fdf88c    ....    BL       GPIO_ReadInputDataBit ; 0x8001332
        0x0800421a:    4601        .F      MOV      r1,r0
        0x0800421c:    4855        UH      LDR      r0,[pc,#340] ; [0x8004374] = 0x2000144c
        0x0800421e:    f8500024    P.$.    LDR      r0,[r0,r4,LSL #2]
        0x08004222:    6840        @h      LDR      r0,[r0,#4]
        0x08004224:    4281        .B      CMP      r1,r0
        0x08004226:    d16a        j.      BNE      0x80042fe ; my_button_scan + 258
        0x08004228:    4852        RH      LDR      r0,[pc,#328] ; [0x8004374] = 0x2000144c
        0x0800422a:    f8500024    P.$.    LDR      r0,[r0,r4,LSL #2]
        0x0800422e:    6881        .h      LDR      r1,[r0,#8]
        0x08004230:    1c49        I.      ADDS     r1,r1,#1
        0x08004232:    4850        PH      LDR      r0,[pc,#320] ; [0x8004374] = 0x2000144c
        0x08004234:    f8500024    P.$.    LDR      r0,[r0,r4,LSL #2]
        0x08004238:    6081        .`      STR      r1,[r0,#8]
        0x0800423a:    484e        NH      LDR      r0,[pc,#312] ; [0x8004374] = 0x2000144c
        0x0800423c:    f8500024    P.$.    LDR      r0,[r0,r4,LSL #2]
        0x08004240:    6880        .h      LDR      r0,[r0,#8]
        0x08004242:    2802        .(      CMP      r0,#2
        0x08004244:    d112        ..      BNE      0x800426c ; my_button_scan + 112
        0x08004246:    2100        .!      MOVS     r1,#0
        0x08004248:    484a        JH      LDR      r0,[pc,#296] ; [0x8004374] = 0x2000144c
        0x0800424a:    f8500024    P.$.    LDR      r0,[r0,r4,LSL #2]
        0x0800424e:    7501        .u      STRB     r1,[r0,#0x14]
        0x08004250:    bf00        ..      NOP      
        0x08004252:    4848        HH      LDR      r0,[pc,#288] ; [0x8004374] = 0x2000144c
        0x08004254:    f8500024    P.$.    LDR      r0,[r0,r4,LSL #2]
        0x08004258:    6980        .i      LDR      r0,[r0,#0x18]
        0x0800425a:    b130        0.      CBZ      r0,0x800426a ; my_button_scan + 110
        0x0800425c:    4a45        EJ      LDR      r2,[pc,#276] ; [0x8004374] = 0x2000144c
        0x0800425e:    f8520024    R.$.    LDR      r0,[r2,r4,LSL #2]
        0x08004262:    f8522024    R.$     LDR      r2,[r2,r4,LSL #2]
        0x08004266:    6991        .i      LDR      r1,[r2,#0x18]
        0x08004268:    4788        .G      BLX      r1
        0x0800426a:    e079        y.      B        0x8004360 ; my_button_scan + 356
        0x0800426c:    4841        AH      LDR      r0,[pc,#260] ; [0x8004374] = 0x2000144c
        0x0800426e:    f8500024    P.$.    LDR      r0,[r0,r4,LSL #2]
        0x08004272:    6880        .h      LDR      r0,[r0,#8]
        0x08004274:    2823        #(      CMP      r0,#0x23
        0x08004276:    d112        ..      BNE      0x800429e ; my_button_scan + 162
        0x08004278:    2102        .!      MOVS     r1,#2
        0x0800427a:    483e        >H      LDR      r0,[pc,#248] ; [0x8004374] = 0x2000144c
        0x0800427c:    f8500024    P.$.    LDR      r0,[r0,r4,LSL #2]
        0x08004280:    7501        .u      STRB     r1,[r0,#0x14]
        0x08004282:    bf00        ..      NOP      
        0x08004284:    483b        ;H      LDR      r0,[pc,#236] ; [0x8004374] = 0x2000144c
        0x08004286:    f8500024    P.$.    LDR      r0,[r0,r4,LSL #2]
        0x0800428a:    6980        .i      LDR      r0,[r0,#0x18]
        0x0800428c:    b130        0.      CBZ      r0,0x800429c ; my_button_scan + 160
        0x0800428e:    4a39        9J      LDR      r2,[pc,#228] ; [0x8004374] = 0x2000144c
        0x08004290:    f8520024    R.$.    LDR      r0,[r2,r4,LSL #2]
        0x08004294:    f8522024    R.$     LDR      r2,[r2,r4,LSL #2]
        0x08004298:    6991        .i      LDR      r1,[r2,#0x18]
        0x0800429a:    4788        .G      BLX      r1
        0x0800429c:    e060        `.      B        0x8004360 ; my_button_scan + 356
        0x0800429e:    4835        5H      LDR      r0,[pc,#212] ; [0x8004374] = 0x2000144c
        0x080042a0:    f8500024    P.$.    LDR      r0,[r0,r4,LSL #2]
        0x080042a4:    6880        .h      LDR      r0,[r0,#8]
        0x080042a6:    2823        #(      CMP      r0,#0x23
        0x080042a8:    dd5a        Z.      BLE      0x8004360 ; my_button_scan + 356
        0x080042aa:    2103        .!      MOVS     r1,#3
        0x080042ac:    4831        1H      LDR      r0,[pc,#196] ; [0x8004374] = 0x2000144c
        0x080042ae:    f8500024    P.$.    LDR      r0,[r0,r4,LSL #2]
        0x080042b2:    7501        .u      STRB     r1,[r0,#0x14]
        0x080042b4:    482f        /H      LDR      r0,[pc,#188] ; [0x8004374] = 0x2000144c
        0x080042b6:    f8500024    P.$.    LDR      r0,[r0,r4,LSL #2]
        0x080042ba:    68c0        .h      LDR      r0,[r0,#0xc]
        0x080042bc:    2800        .(      CMP      r0,#0
        0x080042be:    d04f        O.      BEQ      0x8004360 ; my_button_scan + 356
        0x080042c0:    482c        ,H      LDR      r0,[pc,#176] ; [0x8004374] = 0x2000144c
        0x080042c2:    f8500024    P.$.    LDR      r0,[r0,r4,LSL #2]
        0x080042c6:    68c0        .h      LDR      r0,[r0,#0xc]
        0x080042c8:    2114        .!      MOVS     r1,#0x14
        0x080042ca:    fb90f1f1    ....    SDIV     r1,r0,r1
        0x080042ce:    4829        )H      LDR      r0,[pc,#164] ; [0x8004374] = 0x2000144c
        0x080042d0:    f8500024    P.$.    LDR      r0,[r0,r4,LSL #2]
        0x080042d4:    6880        .h      LDR      r0,[r0,#8]
        0x080042d6:    fb90f2f1    ....    SDIV     r2,r0,r1
        0x080042da:    fb010012    ....    MLS      r0,r1,r2,r0
        0x080042de:    2800        .(      CMP      r0,#0
        0x080042e0:    d03e        >.      BEQ      0x8004360 ; my_button_scan + 356
        0x080042e2:    bf00        ..      NOP      
        0x080042e4:    4823        #H      LDR      r0,[pc,#140] ; [0x8004374] = 0x2000144c
        0x080042e6:    f8500024    P.$.    LDR      r0,[r0,r4,LSL #2]
        0x080042ea:    6980        .i      LDR      r0,[r0,#0x18]
        0x080042ec:    b130        0.      CBZ      r0,0x80042fc ; my_button_scan + 256
        0x080042ee:    4a21        !J      LDR      r2,[pc,#132] ; [0x8004374] = 0x2000144c
        0x080042f0:    f8520024    R.$.    LDR      r0,[r2,r4,LSL #2]
        0x080042f4:    f8522024    R.$     LDR      r2,[r2,r4,LSL #2]
        0x080042f8:    6991        .i      LDR      r1,[r2,#0x18]
        0x080042fa:    4788        .G      BLX      r1
        0x080042fc:    e030        0.      B        0x8004360 ; my_button_scan + 356
        0x080042fe:    2100        .!      MOVS     r1,#0
        0x08004300:    481c        .H      LDR      r0,[pc,#112] ; [0x8004374] = 0x2000144c
        0x08004302:    f8500024    P.$.    LDR      r0,[r0,r4,LSL #2]
        0x08004306:    6081        .`      STR      r1,[r0,#8]
        0x08004308:    2d02        .-      CMP      r5,#2
        0x0800430a:    d314        ..      BCC      0x8004336 ; my_button_scan + 314
        0x0800430c:    2d23        #-      CMP      r5,#0x23
        0x0800430e:    d212        ..      BCS      0x8004336 ; my_button_scan + 314
        0x08004310:    2101        .!      MOVS     r1,#1
        0x08004312:    4818        .H      LDR      r0,[pc,#96] ; [0x8004374] = 0x2000144c
        0x08004314:    f8500024    P.$.    LDR      r0,[r0,r4,LSL #2]
        0x08004318:    7501        .u      STRB     r1,[r0,#0x14]
        0x0800431a:    bf00        ..      NOP      
        0x0800431c:    4815        .H      LDR      r0,[pc,#84] ; [0x8004374] = 0x2000144c
        0x0800431e:    f8500024    P.$.    LDR      r0,[r0,r4,LSL #2]
        0x08004322:    6980        .i      LDR      r0,[r0,#0x18]
        0x08004324:    b130        0.      CBZ      r0,0x8004334 ; my_button_scan + 312
        0x08004326:    4a13        .J      LDR      r2,[pc,#76] ; [0x8004374] = 0x2000144c
        0x08004328:    f8520024    R.$.    LDR      r0,[r2,r4,LSL #2]
        0x0800432c:    f8522024    R.$     LDR      r2,[r2,r4,LSL #2]
        0x08004330:    6991        .i      LDR      r1,[r2,#0x18]
        0x08004332:    4788        .G      BLX      r1
        0x08004334:    e014        ..      B        0x8004360 ; my_button_scan + 356
        0x08004336:    2d23        #-      CMP      r5,#0x23
        0x08004338:    d312        ..      BCC      0x8004360 ; my_button_scan + 356
        0x0800433a:    2104        .!      MOVS     r1,#4
        0x0800433c:    480d        .H      LDR      r0,[pc,#52] ; [0x8004374] = 0x2000144c
        0x0800433e:    f8500024    P.$.    LDR      r0,[r0,r4,LSL #2]
        0x08004342:    7501        .u      STRB     r1,[r0,#0x14]
        0x08004344:    bf00        ..      NOP      
        0x08004346:    480b        .H      LDR      r0,[pc,#44] ; [0x8004374] = 0x2000144c
        0x08004348:    f8500024    P.$.    LDR      r0,[r0,r4,LSL #2]
        0x0800434c:    6980        .i      LDR      r0,[r0,#0x18]
        0x0800434e:    b130        0.      CBZ      r0,0x800435e ; my_button_scan + 354
        0x08004350:    4a08        .J      LDR      r2,[pc,#32] ; [0x8004374] = 0x2000144c
        0x08004352:    f8520024    R.$.    LDR      r0,[r2,r4,LSL #2]
        0x08004356:    f8522024    R.$     LDR      r2,[r2,r4,LSL #2]
        0x0800435a:    6991        .i      LDR      r1,[r2,#0x18]
        0x0800435c:    4788        .G      BLX      r1
        0x0800435e:    bf00        ..      NOP      
        0x08004360:    1c60        `.      ADDS     r0,r4,#1
        0x08004362:    b2c4        ..      UXTB     r4,r0
        0x08004364:    4803        .H      LDR      r0,[pc,#12] ; [0x8004374] = 0x2000144c
        0x08004366:    3808        .8      SUBS     r0,r0,#8
        0x08004368:    6800        .h      LDR      r0,[r0,#0]
        0x0800436a:    42a0        .B      CMP      r0,r4
        0x0800436c:    f63faf49    ?.I.    BHI      0x8004202 ; my_button_scan + 6
        0x08004370:    bd70        p.      POP      {r4-r6,pc}
    $d
        0x08004372:    0000        ..      DCW    0
        0x08004374:    2000144c    L..     DCD    536876108
        0x08004378:    40010800    ...@    DCD    1073809408
    $t
    i.oled_clear
    oled_clear
        0x0800437c:    b510        ..      PUSH     {r4,lr}
        0x0800437e:    2100        .!      MOVS     r1,#0
        0x08004380:    4608        .F      MOV      r0,r1
        0x08004382:    f000f8d1    ....    BL       oled_setcursor ; 0x8004528
        0x08004386:    2400        .$      MOVS     r4,#0
        0x08004388:    e003        ..      B        0x8004392 ; oled_clear + 22
        0x0800438a:    2000        .       MOVS     r0,#0
        0x0800438c:    f7fdff95    ....    BL       OLEDDataSend ; 0x80022ba
        0x08004390:    1c64        d.      ADDS     r4,r4,#1
        0x08004392:    f5b46f80    ...o    CMP      r4,#0x400
        0x08004396:    dbf8        ..      BLT      0x800438a ; oled_clear + 14
        0x08004398:    bd10        ..      POP      {r4,pc}
        0x0800439a:    0000        ..      MOVS     r0,r0
    i.oled_gram_refresh_dma
    oled_gram_refresh_dma
        0x0800439c:    b510        ..      PUSH     {r4,lr}
        0x0800439e:    4820         H      LDR      r0,[pc,#128] ; [0x8004420] = 0x2000012c
        0x080043a0:    6800        .h      LDR      r0,[r0,#0]
        0x080043a2:    2800        .(      CMP      r0,#0
        0x080043a4:    d13b        ;.      BNE      0x800441e ; oled_gram_refresh_dma + 130
        0x080043a6:    491f        .I      LDR      r1,[pc,#124] ; [0x8004424] = 0x20000124
        0x080043a8:    6008        .`      STR      r0,[r1,#0]
        0x080043aa:    481f        .H      LDR      r0,[pc,#124] ; [0x8004428] = 0x20000128
        0x080043ac:    6800        .h      LDR      r0,[r0,#0]
        0x080043ae:    6a41        Aj      LDR      r1,[r0,#0x24]
        0x080043b0:    481d        .H      LDR      r0,[pc,#116] ; [0x8004428] = 0x20000128
        0x080043b2:    6800        .h      LDR      r0,[r0,#0]
        0x080043b4:    4788        .G      BLX      r1
        0x080043b6:    bf00        ..      NOP      
        0x080043b8:    f44f3100    O..1    MOV      r1,#0x20000
        0x080043bc:    481b        .H      LDR      r0,[pc,#108] ; [0x800442c] = 0x40005400
        0x080043be:    f7fdfbe6    ....    BL       I2C_GetFlagStatus ; 0x8001b8e
        0x080043c2:    2800        .(      CMP      r0,#0
        0x080043c4:    d1f8        ..      BNE      0x80043b8 ; oled_gram_refresh_dma + 28
        0x080043c6:    2101        .!      MOVS     r1,#1
        0x080043c8:    4818        .H      LDR      r0,[pc,#96] ; [0x800442c] = 0x40005400
        0x080043ca:    f7fdfbc8    ....    BL       I2C_GenerateSTART ; 0x8001b5e
        0x080043ce:    bf00        ..      NOP      
        0x080043d0:    4917        .I      LDR      r1,[pc,#92] ; [0x8004430] = 0x30001
        0x080043d2:    4816        .H      LDR      r0,[pc,#88] ; [0x800442c] = 0x40005400
        0x080043d4:    f7fdfb96    ....    BL       I2C_CheckEvent ; 0x8001b04
        0x080043d8:    2800        .(      CMP      r0,#0
        0x080043da:    d0f9        ..      BEQ      0x80043d0 ; oled_gram_refresh_dma + 52
        0x080043dc:    2200        ."      MOVS     r2,#0
        0x080043de:    2178        x!      MOVS     r1,#0x78
        0x080043e0:    4812        .H      LDR      r0,[pc,#72] ; [0x800442c] = 0x40005400
        0x080043e2:    f7fdfc67    ..g.    BL       I2C_Send7bitAddress ; 0x8001cb4
        0x080043e6:    bf00        ..      NOP      
        0x080043e8:    4912        .I      LDR      r1,[pc,#72] ; [0x8004434] = 0x70082
        0x080043ea:    4810        .H      LDR      r0,[pc,#64] ; [0x800442c] = 0x40005400
        0x080043ec:    f7fdfb8a    ....    BL       I2C_CheckEvent ; 0x8001b04
        0x080043f0:    2800        .(      CMP      r0,#0
        0x080043f2:    d0f9        ..      BEQ      0x80043e8 ; oled_gram_refresh_dma + 76
        0x080043f4:    2140        @!      MOVS     r1,#0x40
        0x080043f6:    480d        .H      LDR      r0,[pc,#52] ; [0x800442c] = 0x40005400
        0x080043f8:    f7fdfc65    ..e.    BL       I2C_SendData ; 0x8001cc6
        0x080043fc:    bf00        ..      NOP      
        0x080043fe:    490d        .I      LDR      r1,[pc,#52] ; [0x8004434] = 0x70082
        0x08004400:    1c89        ..      ADDS     r1,r1,#2
        0x08004402:    480a        .H      LDR      r0,[pc,#40] ; [0x800442c] = 0x40005400
        0x08004404:    f7fdfb7e    ..~.    BL       I2C_CheckEvent ; 0x8001b04
        0x08004408:    2800        .(      CMP      r0,#0
        0x0800440a:    d0f8        ..      BEQ      0x80043fe ; oled_gram_refresh_dma + 98
        0x0800440c:    4806        .H      LDR      r0,[pc,#24] ; [0x8004428] = 0x20000128
        0x0800440e:    6800        .h      LDR      r0,[r0,#0]
        0x08004410:    6a81        .j      LDR      r1,[r0,#0x28]
        0x08004412:    4805        .H      LDR      r0,[pc,#20] ; [0x8004428] = 0x20000128
        0x08004414:    6800        .h      LDR      r0,[r0,#0]
        0x08004416:    4788        .G      BLX      r1
        0x08004418:    2001        .       MOVS     r0,#1
        0x0800441a:    4901        .I      LDR      r1,[pc,#4] ; [0x8004420] = 0x2000012c
        0x0800441c:    6008        .`      STR      r0,[r1,#0]
        0x0800441e:    bd10        ..      POP      {r4,pc}
    $d
        0x08004420:    2000012c    ,..     DCD    536871212
        0x08004424:    20000124    $..     DCD    536871204
        0x08004428:    20000128    (..     DCD    536871208
        0x0800442c:    40005400    .T.@    DCD    1073763328
        0x08004430:    00030001    ....    DCD    196609
        0x08004434:    00070082    ....    DCD    458882
    $t
    i.oled_init
    oled_init
        0x08004438:    e92d41f0    -..A    PUSH     {r4-r8,lr}
        0x0800443c:    4606        .F      MOV      r6,r0
        0x0800443e:    460f        .F      MOV      r7,r1
        0x08004440:    4639        9F      MOV      r1,r7
        0x08004442:    4630        0F      MOV      r0,r6
        0x08004444:    f7fdff88    ....    BL       OLEDInfDevInit ; 0x8002358
        0x08004448:    2400        .$      MOVS     r4,#0
        0x0800444a:    e006        ..      B        0x800445a ; oled_init + 34
        0x0800444c:    2500        .%      MOVS     r5,#0
        0x0800444e:    e000        ..      B        0x8004452 ; oled_init + 26
        0x08004450:    1c6d        m.      ADDS     r5,r5,#1
        0x08004452:    f5b57f7a    ..z.    CMP      r5,#0x3e8
        0x08004456:    dbfb        ..      BLT      0x8004450 ; oled_init + 24
        0x08004458:    1c64        d.      ADDS     r4,r4,#1
        0x0800445a:    f5b47f7a    ..z.    CMP      r4,#0x3e8
        0x0800445e:    dbf5        ..      BLT      0x800444c ; oled_init + 20
        0x08004460:    20ae        .       MOVS     r0,#0xae
        0x08004462:    f7fdff23    ..#.    BL       OLEDCommandSend ; 0x80022ac
        0x08004466:    2020                MOVS     r0,#0x20
        0x08004468:    f7fdff20    .. .    BL       OLEDCommandSend ; 0x80022ac
        0x0800446c:    2000        .       MOVS     r0,#0
        0x0800446e:    f7fdff1d    ....    BL       OLEDCommandSend ; 0x80022ac
        0x08004472:    20b0        .       MOVS     r0,#0xb0
        0x08004474:    f7fdff1a    ....    BL       OLEDCommandSend ; 0x80022ac
        0x08004478:    20c8        .       MOVS     r0,#0xc8
        0x0800447a:    f7fdff17    ....    BL       OLEDCommandSend ; 0x80022ac
        0x0800447e:    2000        .       MOVS     r0,#0
        0x08004480:    f7fdff14    ....    BL       OLEDCommandSend ; 0x80022ac
        0x08004484:    2010        .       MOVS     r0,#0x10
        0x08004486:    f7fdff11    ....    BL       OLEDCommandSend ; 0x80022ac
        0x0800448a:    2040        @       MOVS     r0,#0x40
        0x0800448c:    f7fdff0e    ....    BL       OLEDCommandSend ; 0x80022ac
        0x08004490:    2081        .       MOVS     r0,#0x81
        0x08004492:    f7fdff0b    ....    BL       OLEDCommandSend ; 0x80022ac
        0x08004496:    20ff        .       MOVS     r0,#0xff
        0x08004498:    f7fdff08    ....    BL       OLEDCommandSend ; 0x80022ac
        0x0800449c:    20a1        .       MOVS     r0,#0xa1
        0x0800449e:    f7fdff05    ....    BL       OLEDCommandSend ; 0x80022ac
        0x080044a2:    20a6        .       MOVS     r0,#0xa6
        0x080044a4:    f7fdff02    ....    BL       OLEDCommandSend ; 0x80022ac
        0x080044a8:    20a8        .       MOVS     r0,#0xa8
        0x080044aa:    f7fdfeff    ....    BL       OLEDCommandSend ; 0x80022ac
        0x080044ae:    203f        ?       MOVS     r0,#0x3f
        0x080044b0:    f7fdfefc    ....    BL       OLEDCommandSend ; 0x80022ac
        0x080044b4:    20a4        .       MOVS     r0,#0xa4
        0x080044b6:    f7fdfef9    ....    BL       OLEDCommandSend ; 0x80022ac
        0x080044ba:    20d3        .       MOVS     r0,#0xd3
        0x080044bc:    f7fdfef6    ....    BL       OLEDCommandSend ; 0x80022ac
        0x080044c0:    2000        .       MOVS     r0,#0
        0x080044c2:    f7fdfef3    ....    BL       OLEDCommandSend ; 0x80022ac
        0x080044c6:    20d5        .       MOVS     r0,#0xd5
        0x080044c8:    f7fdfef0    ....    BL       OLEDCommandSend ; 0x80022ac
        0x080044cc:    20f0        .       MOVS     r0,#0xf0
        0x080044ce:    f7fdfeed    ....    BL       OLEDCommandSend ; 0x80022ac
        0x080044d2:    20d9        .       MOVS     r0,#0xd9
        0x080044d4:    f7fdfeea    ....    BL       OLEDCommandSend ; 0x80022ac
        0x080044d8:    2022        "       MOVS     r0,#0x22
        0x080044da:    f7fdfee7    ....    BL       OLEDCommandSend ; 0x80022ac
        0x080044de:    20da        .       MOVS     r0,#0xda
        0x080044e0:    f7fdfee4    ....    BL       OLEDCommandSend ; 0x80022ac
        0x080044e4:    2012        .       MOVS     r0,#0x12
        0x080044e6:    f7fdfee1    ....    BL       OLEDCommandSend ; 0x80022ac
        0x080044ea:    20db        .       MOVS     r0,#0xdb
        0x080044ec:    f7fdfede    ....    BL       OLEDCommandSend ; 0x80022ac
        0x080044f0:    2020                MOVS     r0,#0x20
        0x080044f2:    f7fdfedb    ....    BL       OLEDCommandSend ; 0x80022ac
        0x080044f6:    208d        .       MOVS     r0,#0x8d
        0x080044f8:    f7fdfed8    ....    BL       OLEDCommandSend ; 0x80022ac
        0x080044fc:    2014        .       MOVS     r0,#0x14
        0x080044fe:    f7fdfed5    ....    BL       OLEDCommandSend ; 0x80022ac
        0x08004502:    20af        .       MOVS     r0,#0xaf
        0x08004504:    f7fdfed2    ....    BL       OLEDCommandSend ; 0x80022ac
        0x08004508:    4805        .H      LDR      r0,[pc,#20] ; [0x8004520] = 0x20000128
        0x0800450a:    6800        .h      LDR      r0,[r0,#0]
        0x0800450c:    6a41        Aj      LDR      r1,[r0,#0x24]
        0x0800450e:    4804        .H      LDR      r0,[pc,#16] ; [0x8004520] = 0x20000128
        0x08004510:    6800        .h      LDR      r0,[r0,#0]
        0x08004512:    4788        .G      BLX      r1
        0x08004514:    2101        .!      MOVS     r1,#1
        0x08004516:    4803        .H      LDR      r0,[pc,#12] ; [0x8004524] = 0x40005400
        0x08004518:    f7fdfb15    ....    BL       I2C_DMACmd ; 0x8001b46
        0x0800451c:    e8bd81f0    ....    POP      {r4-r8,pc}
    $d
        0x08004520:    20000128    (..     DCD    536871208
        0x08004524:    40005400    .T.@    DCD    1073763328
    $t
    i.oled_setcursor
    oled_setcursor
        0x08004528:    b570        p.      PUSH     {r4-r6,lr}
        0x0800452a:    4604        .F      MOV      r4,r0
        0x0800452c:    460d        .F      MOV      r5,r1
        0x0800452e:    b2e9        ..      UXTB     r1,r5
        0x08004530:    f04100b0    A...    ORR      r0,r1,#0xb0
        0x08004534:    f7fdfeba    ....    BL       OLEDCommandSend ; 0x80022ac
        0x08004538:    f3c41103    ....    UBFX     r1,r4,#4,#4
        0x0800453c:    f0410010    A...    ORR      r0,r1,#0x10
        0x08004540:    f7fdfeb4    ....    BL       OLEDCommandSend ; 0x80022ac
        0x08004544:    f004000f    ....    AND      r0,r4,#0xf
        0x08004548:    f7fdfeb0    ....    BL       OLEDCommandSend ; 0x80022ac
        0x0800454c:    bd70        p.      POP      {r4-r6,pc}
    i.recover_data
    recover_data
        0x0800454e:    4601        .F      MOV      r1,r0
        0x08004550:    694a        Ji      LDR      r2,[r1,#0x14]
        0x08004552:    60ca        .`      STR      r2,[r1,#0xc]
        0x08004554:    698a        .i      LDR      r2,[r1,#0x18]
        0x08004556:    610a        .a      STR      r2,[r1,#0x10]
        0x08004558:    69ca        .i      LDR      r2,[r1,#0x1c]
        0x0800455a:    604a        J`      STR      r2,[r1,#4]
        0x0800455c:    4770        pG      BX       lr
    i.recover_item
    recover_item
        0x0800455e:    b570        p.      PUSH     {r4-r6,lr}
        0x08004560:    4605        .F      MOV      r5,r0
        0x08004562:    460c        .F      MOV      r4,r1
        0x08004564:    462e        .F      MOV      r6,r5
        0x08004566:    f1060008    ....    ADD      r0,r6,#8
        0x0800456a:    f8500024    P.$.    LDR      r0,[r0,r4,LSL #2]
        0x0800456e:    b138        8.      CBZ      r0,0x8004580 ; recover_item + 34
        0x08004570:    f1060208    ....    ADD      r2,r6,#8
        0x08004574:    f8520024    R.$.    LDR      r0,[r2,r4,LSL #2]
        0x08004578:    f8522024    R.$     LDR      r2,[r2,r4,LSL #2]
        0x0800457c:    6a91        .j      LDR      r1,[r2,#0x28]
        0x0800457e:    4788        .G      BLX      r1
        0x08004580:    bd70        p.      POP      {r4-r6,pc}
    i.reverse
    reverse
        0x08004582:    b510        ..      PUSH     {r4,lr}
        0x08004584:    4602        .F      MOV      r2,r0
        0x08004586:    4601        .F      MOV      r1,r0
        0x08004588:    e000        ..      B        0x800458c ; reverse + 10
        0x0800458a:    1c49        I.      ADDS     r1,r1,#1
        0x0800458c:    780c        .x      LDRB     r4,[r1,#0]
        0x0800458e:    2c00        .,      CMP      r4,#0
        0x08004590:    d1fb        ..      BNE      0x800458a ; reverse + 8
        0x08004592:    1e49        I.      SUBS     r1,r1,#1
        0x08004594:    e005        ..      B        0x80045a2 ; reverse + 32
        0x08004596:    7813        .x      LDRB     r3,[r2,#0]
        0x08004598:    780c        .x      LDRB     r4,[r1,#0]
        0x0800459a:    f8024b01    ...K    STRB     r4,[r2],#1
        0x0800459e:    f8013901    ...9    STRB     r3,[r1],#-1
        0x080045a2:    4291        .B      CMP      r1,r2
        0x080045a4:    d8f7        ..      BHI      0x8004596 ; reverse + 20
        0x080045a6:    bd10        ..      POP      {r4,pc}
    i.ring_buffer_init
    ring_buffer_init
        0x080045a8:    f8d01400    ....    LDR      r1,[r0,#0x400]
        0x080045ac:    f8c01404    ....    STR      r1,[r0,#0x404]
        0x080045b0:    4770        pG      BX       lr
    i.ring_buffer_write
    ring_buffer_write
        0x080045b2:    4602        .F      MOV      r2,r0
        0x080045b4:    f8d10400    ....    LDR      r0,[r1,#0x400]
        0x080045b8:    1c40        @.      ADDS     r0,r0,#1
        0x080045ba:    f3c00309    ....    UBFX     r3,r0,#0,#10
        0x080045be:    f8d10404    ....    LDR      r0,[r1,#0x404]
        0x080045c2:    4298        .B      CMP      r0,r3
        0x080045c4:    d004        ..      BEQ      0x80045d0 ; ring_buffer_write + 30
        0x080045c6:    f8d10400    ....    LDR      r0,[r1,#0x400]
        0x080045ca:    540a        .T      STRB     r2,[r1,r0]
        0x080045cc:    f8c13400    ...4    STR      r3,[r1,#0x400]
        0x080045d0:    2000        .       MOVS     r0,#0
        0x080045d2:    4770        pG      BX       lr
    i.rt_hw_stack_init
    rt_hw_stack_init
        0x080045d4:    b5f0        ..      PUSH     {r4-r7,lr}
        0x080045d6:    4603        .F      MOV      r3,r0
        0x080045d8:    460c        .F      MOV      r4,r1
        0x080045da:    4615        .F      MOV      r5,r2
        0x080045dc:    1d28        (.      ADDS     r0,r5,#4
        0x080045de:    f0200007     ...    BIC      r0,r0,#7
        0x080045e2:    3840        @8      SUBS     r0,r0,#0x40
        0x080045e4:    4601        .F      MOV      r1,r0
        0x080045e6:    2200        ."      MOVS     r2,#0
        0x080045e8:    e003        ..      B        0x80045f2 ; rt_hw_stack_init + 30
        0x080045ea:    4e09        .N      LDR      r6,[pc,#36] ; [0x8004610] = 0xdeadbeef
        0x080045ec:    f8416022    A."`    STR      r6,[r1,r2,LSL #2]
        0x080045f0:    1c52        R.      ADDS     r2,r2,#1
        0x080045f2:    2a10        .*      CMP      r2,#0x10
        0x080045f4:    d3f9        ..      BCC      0x80045ea ; rt_hw_stack_init + 22
        0x080045f6:    620c        .b      STR      r4,[r1,#0x20]
        0x080045f8:    2700        .'      MOVS     r7,#0
        0x080045fa:    624f        Ob      STR      r7,[r1,#0x24]
        0x080045fc:    628f        .b      STR      r7,[r1,#0x28]
        0x080045fe:    62cf        .b      STR      r7,[r1,#0x2c]
        0x08004600:    630f        .c      STR      r7,[r1,#0x30]
        0x08004602:    634f        Oc      STR      r7,[r1,#0x34]
        0x08004604:    638b        .c      STR      r3,[r1,#0x38]
        0x08004606:    f04f7780    O..w    MOV      r7,#0x1000000
        0x0800460a:    63cf        .c      STR      r7,[r1,#0x3c]
        0x0800460c:    bdf0        ..      POP      {r4-r7,pc}
    $d
        0x0800460e:    0000        ..      DCW    0
        0x08004610:    deadbeef    ....    DCD    3735928559
    $t
    i.rt_schedule
    rt_schedule
        0x08004614:    b570        p.      PUSH     {r4-r6,lr}
        0x08004616:    4604        .F      MOV      r4,r0
        0x08004618:    4805        .H      LDR      r0,[pc,#20] ; [0x8004630] = 0x2000078c
        0x0800461a:    6805        .h      LDR      r5,[r0,#0]
        0x0800461c:    6004        .`      STR      r4,[r0,#0]
        0x0800461e:    42a5        .B      CMP      r5,r4
        0x08004620:    d100        ..      BNE      0x8004624 ; rt_schedule + 16
        0x08004622:    bd70        p.      POP      {r4-r6,pc}
        0x08004624:    1d21        !.      ADDS     r1,r4,#4
        0x08004626:    1d28        (.      ADDS     r0,r5,#4
        0x08004628:    f7fbfd94    ....    BL       rt_hw_context_switch ; 0x8000154
        0x0800462c:    bf00        ..      NOP      
        0x0800462e:    e7f8        ..      B        0x8004622 ; rt_schedule + 14
    $d
        0x08004630:    2000078c    ...     DCD    536872844
    $t
    i.rt_system_scheduler_init
    rt_system_scheduler_init
        0x08004634:    2000        .       MOVS     r0,#0
        0x08004636:    4901        .I      LDR      r1,[pc,#4] ; [0x800463c] = 0x2000078c
        0x08004638:    6008        .`      STR      r0,[r1,#0]
        0x0800463a:    4770        pG      BX       lr
    $d
        0x0800463c:    2000078c    ...     DCD    536872844
    $t
    i.rt_system_scheduler_start
    rt_system_scheduler_start
        0x08004640:    b570        p.      PUSH     {r4-r6,lr}
        0x08004642:    4604        .F      MOV      r4,r0
        0x08004644:    4625        %F      MOV      r5,r4
        0x08004646:    4803        .H      LDR      r0,[pc,#12] ; [0x8004654] = 0x2000078c
        0x08004648:    6005        .`      STR      r5,[r0,#0]
        0x0800464a:    1d28        (.      ADDS     r0,r5,#4
        0x0800464c:    f7fbfd6a    ..j.    BL       rt_hw_context_switch_to ; 0x8000124
        0x08004650:    bd70        p.      POP      {r4-r6,pc}
    $d
        0x08004652:    0000        ..      DCW    0
        0x08004654:    2000078c    ...     DCD    536872844
    $t
    i.rt_thread_init
    rt_thread_init
        0x08004658:    e92d47f0    -..G    PUSH     {r4-r10,lr}
        0x0800465c:    4604        .F      MOV      r4,r0
        0x0800465e:    460d        .F      MOV      r5,r1
        0x08004660:    4616        .F      MOV      r6,r2
        0x08004662:    461f        .F      MOV      r7,r3
        0x08004664:    e9dd8908    ....    LDRD     r8,r9,[sp,#0x20]
        0x08004668:    f1040018    ....    ADD      r0,r4,#0x18
        0x0800466c:    6040        @`      STR      r0,[r0,#4]
        0x0800466e:    6000        .`      STR      r0,[r0,#0]
        0x08004670:    bf00        ..      NOP      
        0x08004672:    6025        %`      STR      r5,[r4,#0]
        0x08004674:    60a6        .`      STR      r6,[r4,#8]
        0x08004676:    60e7        .`      STR      r7,[r4,#0xc]
        0x08004678:    f8c48010    ....    STR      r8,[r4,#0x10]
        0x0800467c:    f8c49014    ....    STR      r9,[r4,#0x14]
        0x08004680:    e9d43c04    ...<    LDRD     r3,r12,[r4,#0x10]
        0x08004684:    4463        cD      ADD      r3,r3,r12
        0x08004686:    1f1a        ..      SUBS     r2,r3,#4
        0x08004688:    e9d40102    ....    LDRD     r0,r1,[r4,#8]
        0x0800468c:    f7ffffa2    ....    BL       rt_hw_stack_init ; 0x80045d4
        0x08004690:    6060        ``      STR      r0,[r4,#4]
        0x08004692:    2000        .       MOVS     r0,#0
        0x08004694:    e8bd87f0    ....    POP      {r4-r10,pc}
    i.traversal_excute_item
    traversal_excute_item
        0x08004698:    b570        p.      PUSH     {r4-r6,lr}
        0x0800469a:    4605        .F      MOV      r5,r0
        0x0800469c:    462c        ,F      MOV      r4,r5
        0x0800469e:    2000        .       MOVS     r0,#0
        0x080046a0:    60e0        .`      STR      r0,[r4,#0xc]
        0x080046a2:    e006        ..      B        0x80046b2 ; traversal_excute_item + 26
        0x080046a4:    e9d40102    ....    LDRD     r0,r1,[r4,#8]
        0x080046a8:    6802        .h      LDR      r2,[r0,#0]
        0x080046aa:    4790        .G      BLX      r2
        0x080046ac:    68e0        .h      LDR      r0,[r4,#0xc]
        0x080046ae:    1c40        @.      ADDS     r0,r0,#1
        0x080046b0:    60e0        .`      STR      r0,[r4,#0xc]
        0x080046b2:    e9d41002    ....    LDRD     r1,r0,[r4,#8]
        0x080046b6:    6b09        .k      LDR      r1,[r1,#0x30]
        0x080046b8:    4288        .B      CMP      r0,r1
        0x080046ba:    dbf3        ..      BLT      0x80046a4 ; traversal_excute_item + 12
        0x080046bc:    bd70        p.      POP      {r4-r6,pc}
    i.traversal_recover_item
    traversal_recover_item
        0x080046be:    b570        p.      PUSH     {r4-r6,lr}
        0x080046c0:    4605        .F      MOV      r5,r0
        0x080046c2:    462c        ,F      MOV      r4,r5
        0x080046c4:    2000        .       MOVS     r0,#0
        0x080046c6:    60e0        .`      STR      r0,[r4,#0xc]
        0x080046c8:    e006        ..      B        0x80046d8 ; traversal_recover_item + 26
        0x080046ca:    e9d40102    ....    LDRD     r0,r1,[r4,#8]
        0x080046ce:    6842        Bh      LDR      r2,[r0,#4]
        0x080046d0:    4790        .G      BLX      r2
        0x080046d2:    68e0        .h      LDR      r0,[r4,#0xc]
        0x080046d4:    1c40        @.      ADDS     r0,r0,#1
        0x080046d6:    60e0        .`      STR      r0,[r4,#0xc]
        0x080046d8:    e9d41002    ....    LDRD     r1,r0,[r4,#8]
        0x080046dc:    6b09        .k      LDR      r1,[r1,#0x30]
        0x080046de:    4288        .B      CMP      r0,r1
        0x080046e0:    dbf3        ..      BLT      0x80046ca ; traversal_recover_item + 12
        0x080046e2:    f7fefa35    ..5.    BL       RecoverSpeedIndex ; 0x8002b50
        0x080046e6:    f7fdfb05    ....    BL       IndicateLedOpen ; 0x8001cf4
        0x080046ea:    bd70        p.      POP      {r4-r6,pc}
    $d.realdata
    .constdata
    ascii_font
        0x080046ec:    00000000    ....    DCD    0
        0x080046f0:    00000000    ....    DCD    0
        0x080046f4:    00000000    ....    DCD    0
        0x080046f8:    00000000    ....    DCD    0
        0x080046fc:    0202fe00    ....    DCD    33750528
        0x08004700:    02020202    ....    DCD    33686018
        0x08004704:    20203f00    .?      DCD    538984192
        0x08004708:    20202020            DCD    538976288
        0x0800470c:    00000000    ....    DCD    0
        0x08004710:    00000000    ....    DCD    0
        0x08004714:    00000000    ....    DCD    0
        0x08004718:    00000000    ....    DCD    0
        0x0800471c:    0202fe00    ....    DCD    33750528
        0x08004720:    02020202    ....    DCD    33686018
        0x08004724:    20203f00    .?      DCD    538984192
        0x08004728:    20202020            DCD    538976288
        0x0800472c:    0202fe00    ....    DCD    33750528
        0x08004730:    02020202    ....    DCD    33686018
        0x08004734:    20203f00    .?      DCD    538984192
        0x08004738:    20202020            DCD    538976288
        0x0800473c:    0202fe00    ....    DCD    33750528
        0x08004740:    02020202    ....    DCD    33686018
        0x08004744:    20203f00    .?      DCD    538984192
        0x08004748:    20202020            DCD    538976288
        0x0800474c:    0202fe00    ....    DCD    33750528
        0x08004750:    02020202    ....    DCD    33686018
        0x08004754:    20203f00    .?      DCD    538984192
        0x08004758:    20202020            DCD    538976288
        0x0800475c:    0202fe00    ....    DCD    33750528
        0x08004760:    02020202    ....    DCD    33686018
        0x08004764:    20203f00    .?      DCD    538984192
        0x08004768:    20202020            DCD    538976288
        0x0800476c:    0202fe00    ....    DCD    33750528
        0x08004770:    02020202    ....    DCD    33686018
        0x08004774:    20203f00    .?      DCD    538984192
        0x08004778:    20202020            DCD    538976288
        0x0800477c:    00000000    ....    DCD    0
        0x08004780:    00000000    ....    DCD    0
        0x08004784:    00000000    ....    DCD    0
        0x08004788:    00000000    ....    DCD    0
        0x0800478c:    00000000    ....    DCD    0
        0x08004790:    00000000    ....    DCD    0
        0x08004794:    00000000    ....    DCD    0
        0x08004798:    00000000    ....    DCD    0
        0x0800479c:    00000000    ....    DCD    0
        0x080047a0:    00000000    ....    DCD    0
        0x080047a4:    00000000    ....    DCD    0
        0x080047a8:    00000000    ....    DCD    0
        0x080047ac:    0202fe00    ....    DCD    33750528
        0x080047b0:    02020202    ....    DCD    33686018
        0x080047b4:    20203f00    .?      DCD    538984192
        0x080047b8:    20202020            DCD    538976288
        0x080047bc:    0202fe00    ....    DCD    33750528
        0x080047c0:    02020202    ....    DCD    33686018
        0x080047c4:    20203f00    .?      DCD    538984192
        0x080047c8:    20202020            DCD    538976288
        0x080047cc:    0202fe00    ....    DCD    33750528
        0x080047d0:    02020202    ....    DCD    33686018
        0x080047d4:    20203f00    .?      DCD    538984192
        0x080047d8:    20202020            DCD    538976288
        0x080047dc:    0202fe00    ....    DCD    33750528
        0x080047e0:    02020202    ....    DCD    33686018
        0x080047e4:    20203f00    .?      DCD    538984192
        0x080047e8:    20202020            DCD    538976288
        0x080047ec:    0202fe00    ....    DCD    33750528
        0x080047f0:    02020202    ....    DCD    33686018
        0x080047f4:    20203f00    .?      DCD    538984192
        0x080047f8:    20202020            DCD    538976288
        0x080047fc:    0202fe00    ....    DCD    33750528
        0x08004800:    02020202    ....    DCD    33686018
        0x08004804:    20203f00    .?      DCD    538984192
        0x08004808:    20202020            DCD    538976288
        0x0800480c:    0202fe00    ....    DCD    33750528
        0x08004810:    02020202    ....    DCD    33686018
        0x08004814:    20203f00    .?      DCD    538984192
        0x08004818:    20202020            DCD    538976288
        0x0800481c:    0202fe00    ....    DCD    33750528
        0x08004820:    02020202    ....    DCD    33686018
        0x08004824:    20203f00    .?      DCD    538984192
        0x08004828:    20202020            DCD    538976288
        0x0800482c:    0202fe00    ....    DCD    33750528
        0x08004830:    02020202    ....    DCD    33686018
        0x08004834:    20203f00    .?      DCD    538984192
        0x08004838:    20202020            DCD    538976288
        0x0800483c:    0202fe00    ....    DCD    33750528
        0x08004840:    02020202    ....    DCD    33686018
        0x08004844:    20203f00    .?      DCD    538984192
        0x08004848:    20202020            DCD    538976288
        0x0800484c:    0202fe00    ....    DCD    33750528
        0x08004850:    02020202    ....    DCD    33686018
        0x08004854:    20203f00    .?      DCD    538984192
        0x08004858:    20202020            DCD    538976288
        0x0800485c:    0202fe00    ....    DCD    33750528
        0x08004860:    02020202    ....    DCD    33686018
        0x08004864:    20203f00    .?      DCD    538984192
        0x08004868:    20202020            DCD    538976288
        0x0800486c:    0202fe00    ....    DCD    33750528
        0x08004870:    02020202    ....    DCD    33686018
        0x08004874:    20203f00    .?      DCD    538984192
        0x08004878:    20202020            DCD    538976288
        0x0800487c:    0202fe00    ....    DCD    33750528
        0x08004880:    02020202    ....    DCD    33686018
        0x08004884:    20203f00    .?      DCD    538984192
        0x08004888:    20202020            DCD    538976288
        0x0800488c:    0202fe00    ....    DCD    33750528
        0x08004890:    02020202    ....    DCD    33686018
        0x08004894:    20203f00    .?      DCD    538984192
        0x08004898:    20202020            DCD    538976288
        0x0800489c:    0202fe00    ....    DCD    33750528
        0x080048a0:    02020202    ....    DCD    33686018
        0x080048a4:    20203f00    .?      DCD    538984192
        0x080048a8:    20202020            DCD    538976288
        0x080048ac:    00000000    ....    DCD    0
        0x080048b0:    00000000    ....    DCD    0
        0x080048b4:    00000000    ....    DCD    0
        0x080048b8:    00000000    ....    DCD    0
        0x080048bc:    00000000    ....    DCD    0
        0x080048c0:    00000000    ....    DCD    0
        0x080048c4:    00000000    ....    DCD    0
        0x080048c8:    00000000    ....    DCD    0
        0x080048cc:    00000000    ....    DCD    0
        0x080048d0:    00000000    ....    DCD    0
        0x080048d4:    00000000    ....    DCD    0
        0x080048d8:    00000000    ....    DCD    0
        0x080048dc:    00000000    ....    DCD    0
        0x080048e0:    00000000    ....    DCD    0
        0x080048e4:    00000000    ....    DCD    0
        0x080048e8:    00000000    ....    DCD    0
        0x080048ec:    00000000    ....    DCD    0
        0x080048f0:    00000000    ....    DCD    0
        0x080048f4:    00000000    ....    DCD    0
        0x080048f8:    00000000    ....    DCD    0
        0x080048fc:    f8000000    ....    DCD    4160749568
        0x08004900:    00000000    ....    DCD    0
        0x08004904:    33000000    ...3    DCD    855638016
        0x08004908:    00000000    ....    DCD    0
        0x0800490c:    020c1000    ....    DCD    34344960
        0x08004910:    00020c10    ....    DCD    134160
        0x08004914:    00000000    ....    DCD    0
        0x08004918:    00000000    ....    DCD    0
        0x0800491c:    78c04000    .@.x    DCD    2025865216
        0x08004920:    0078c040    @.x.    DCD    7913536
        0x08004924:    043f0400    ..?.    DCD    71238656
        0x08004928:    00043f04    .?..    DCD    278276
        0x0800492c:    88887000    .p..    DCD    2290642944
        0x08004930:    003008fc    ..0.    DCD    3148028
        0x08004934:    20201800    ..      DCD    538974208
        0x08004938:    001e21ff    .!..    DCD    1974783
        0x0800493c:    80f008f0    ....    DCD    2163214576
        0x08004940:    00001860    `...    DCD    6240
        0x08004944:    030c3100    .1..    DCD    51130624
        0x08004948:    001e211e    .!..    DCD    1974558
        0x0800494c:    8808f000    ....    DCD    2282287104
        0x08004950:    00000070    p...    DCD    112
        0x08004954:    2c23211e    .!#,    DCD    740499742
        0x08004958:    10212719    .'!.    DCD    270608153
        0x0800495c:    000e1200    ....    DCD    922112
        0x08004960:    00000000    ....    DCD    0
        0x08004964:    00000000    ....    DCD    0
        0x08004968:    00000000    ....    DCD    0
        0x0800496c:    e0000000    ....    DCD    3758096384
        0x08004970:    00020418    ....    DCD    132120
        0x08004974:    07000000    ....    DCD    117440512
        0x08004978:    00402018    . @.    DCD    4202520
        0x0800497c:    18040200    ....    DCD    402915840
        0x08004980:    000000e0    ....    DCD    224
        0x08004984:    18204000    .@ .    DCD    404766720
        0x08004988:    00000007    ....    DCD    7
        0x0800498c:    f0804040    @@..    DCD    4034936896
        0x08004990:    00404080    .@@.    DCD    4210816
        0x08004994:    0f010202    ....    DCD    251724290
        0x08004998:    00020201    ....    DCD    131585
        0x0800499c:    00000000    ....    DCD    0
        0x080049a0:    000000e0    ....    DCD    224
        0x080049a4:    01010100    ....    DCD    16843008
        0x080049a8:    0101010f    ....    DCD    16843023
        0x080049ac:    00000000    ....    DCD    0
        0x080049b0:    00000000    ....    DCD    0
        0x080049b4:    00709000    ..p.    DCD    7376896
        0x080049b8:    00000000    ....    DCD    0
        0x080049bc:    00000000    ....    DCD    0
        0x080049c0:    00000000    ....    DCD    0
        0x080049c4:    01010100    ....    DCD    16843008
        0x080049c8:    00010101    ....    DCD    65793
        0x080049cc:    00000000    ....    DCD    0
        0x080049d0:    00000000    ....    DCD    0
        0x080049d4:    00303000    .00.    DCD    3158016
        0x080049d8:    00000000    ....    DCD    0
        0x080049dc:    00000000    ....    DCD    0
        0x080049e0:    000438c0    .8..    DCD    276672
        0x080049e4:    07186000    .`..    DCD    119037952
        0x080049e8:    00000000    ....    DCD    0
        0x080049ec:    0810e000    ....    DCD    135323648
        0x080049f0:    00e01008    ....    DCD    14684168
        0x080049f4:    20100f00    ...     DCD    537923328
        0x080049f8:    000f1020     ...    DCD    987168
        0x080049fc:    10100000    ....    DCD    269484032
        0x08004a00:    000000f8    ....    DCD    248
        0x08004a04:    20200000    ..      DCD    538968064
        0x08004a08:    0020203f    ?  .    DCD    2105407
        0x08004a0c:    08087000    .p..    DCD    134770688
        0x08004a10:    00f00808    ....    DCD    15730696
        0x08004a14:    24283000    .0($    DCD    606613504
        0x08004a18:    00302122    "!0.    DCD    3154210
        0x08004a1c:    08083000    .0..    DCD    134754304
        0x08004a20:    00708808    ..p.    DCD    7374856
        0x08004a24:    21201800    .. !    DCD    555751424
        0x08004a28:    001c2221    !"..    DCD    1843745
        0x08004a2c:    40800000    ...@    DCD    1082130432
        0x08004a30:    0000f830    0...    DCD    63536
        0x08004a34:    24050600    ...$    DCD    604308992
        0x08004a38:    24243f24    $?$$    DCD    606355236
        0x08004a3c:    8888f800    ....    DCD    2290677760
        0x08004a40:    00080888    ....    DCD    526472
        0x08004a44:    20201900    ..      DCD    538974464
        0x08004a48:    000e1120     ...    DCD    921888
        0x08004a4c:    8810e000    ....    DCD    2282807296
        0x08004a50:    00009088    ....    DCD    37000
        0x08004a54:    20110f00    ...     DCD    537988864
        0x08004a58:    001f2020      ..    DCD    2039840
        0x08004a5c:    08081800    ....    DCD    134748160
        0x08004a60:    00186888    .h..    DCD    1599624
        0x08004a64:    3e000000    ...>    DCD    1040187392
        0x08004a68:    00000001    ....    DCD    1
        0x08004a6c:    08887000    .p..    DCD    143159296
        0x08004a70:    00708808    ..p.    DCD    7374856
        0x08004a74:    21221c00    .."!    DCD    555883520
        0x08004a78:    001c2221    !"..    DCD    1843745
        0x08004a7c:    0808f000    ....    DCD    134803456
        0x08004a80:    00e01008    ....    DCD    14684168
        0x08004a84:    22120100    ..."    DCD    571605248
        0x08004a88:    000f1122    "...    DCD    987426
        0x08004a8c:    c0000000    ....    DCD    3221225472
        0x08004a90:    000000c0    ....    DCD    192
        0x08004a94:    30000000    ...0    DCD    805306368
        0x08004a98:    00000030    0...    DCD    48
        0x08004a9c:    80000000    ....    DCD    2147483648
        0x08004aa0:    00000000    ....    DCD    0
        0x08004aa4:    e0000000    ....    DCD    3758096384
        0x08004aa8:    00000000    ....    DCD    0
        0x08004aac:    40800000    ...@    DCD    1082130432
        0x08004ab0:    00081020     ...    DCD    528416
        0x08004ab4:    04020100    ....    DCD    67240192
        0x08004ab8:    00201008    .. .    DCD    2101256
        0x08004abc:    40404000    .@@@    DCD    1077952512
        0x08004ac0:    00404040    @@@.    DCD    4210752
        0x08004ac4:    02020200    ....    DCD    33686016
        0x08004ac8:    00020202    ....    DCD    131586
        0x08004acc:    20100800    ...     DCD    537921536
        0x08004ad0:    00008040    @...    DCD    32832
        0x08004ad4:    08102000    . ..    DCD    135274496
        0x08004ad8:    00010204    ....    DCD    66052
        0x08004adc:    08487000    .pH.    DCD    138964992
        0x08004ae0:    00708808    ..p.    DCD    7374856
        0x08004ae4:    30000000    ...0    DCD    805306368
        0x08004ae8:    00000037    7...    DCD    55
        0x08004aec:    28c830c0    .0.(    DCD    684208320
        0x08004af0:    00e010e8    ....    DCD    14684392
        0x08004af4:    28271807    ..'(    DCD    673650695
        0x08004af8:    0017282f    /(..    DCD    1517615
        0x08004afc:    38c00000    ...8    DCD    952107008
        0x08004b00:    000000e0    ....    DCD    224
        0x08004b04:    02233c20     <#.    DCD    35863584
        0x08004b08:    20382702    .'8     DCD    540550914
        0x08004b0c:    8888f808    ....    DCD    2290677768
        0x08004b10:    00007088    .p..    DCD    28808
        0x08004b14:    20203f20     ?      DCD    538984224
        0x08004b18:    000e1120     ...    DCD    921888
        0x08004b1c:    080830c0    .0..    DCD    134754496
        0x08004b20:    00380808    ..8.    DCD    3672072
        0x08004b24:    20201807    ..      DCD    538974215
        0x08004b28:    00081020     ...    DCD    528416
        0x08004b2c:    0808f808    ....    DCD    134805512
        0x08004b30:    00e01008    ....    DCD    14684168
        0x08004b34:    20203f20     ?      DCD    538984224
        0x08004b38:    000f1020     ...    DCD    987168
        0x08004b3c:    8888f808    ....    DCD    2290677768
        0x08004b40:    001008e8    ....    DCD    1050856
        0x08004b44:    20203f20     ?      DCD    538984224
        0x08004b48:    00182023    # ..    DCD    1581091
        0x08004b4c:    8888f808    ....    DCD    2290677768
        0x08004b50:    001008e8    ....    DCD    1050856
        0x08004b54:    00203f20     ? .    DCD    2113312
        0x08004b58:    00000003    ....    DCD    3
        0x08004b5c:    080830c0    .0..    DCD    134754496
        0x08004b60:    00003808    .8..    DCD    14344
        0x08004b64:    20201807    ..      DCD    538974215
        0x08004b68:    00021e22    "...    DCD    138786
        0x08004b6c:    0008f808    ....    DCD    587784
        0x08004b70:    08f80800    ....    DCD    150472704
        0x08004b74:    01213f20     ?!.    DCD    18956064
        0x08004b78:    203f2101    .!?     DCD    541008129
        0x08004b7c:    f8080800    ....    DCD    4161275904
        0x08004b80:    00000808    ....    DCD    2056
        0x08004b84:    3f202000    .  ?    DCD    1059069952
        0x08004b88:    00002020      ..    DCD    8224
        0x08004b8c:    08080000    ....    DCD    134742016
        0x08004b90:    000808f8    ....    DCD    526584
        0x08004b94:    808080c0    ....    DCD    2155905216
        0x08004b98:    0000007f    ....    DCD    127
        0x08004b9c:    c088f808    ....    DCD    3230201864
        0x08004ba0:    00081828    (...    DCD    530472
        0x08004ba4:    01203f20     ? .    DCD    18890528
        0x08004ba8:    00203826    &8 .    DCD    2111526
        0x08004bac:    0008f808    ....    DCD    587784
        0x08004bb0:    00000000    ....    DCD    0
        0x08004bb4:    20203f20     ?      DCD    538984224
        0x08004bb8:    00302020      0.    DCD    3153952
        0x08004bbc:    00f8f808    ....    DCD    16316424
        0x08004bc0:    0008f8f8    ....    DCD    588024
        0x08004bc4:    3e013f20     ?.>    DCD    1040269088
        0x08004bc8:    00203f01    .? .    DCD    2113281
        0x08004bcc:    c030f808    ..0.    DCD    3224434696
        0x08004bd0:    08f80800    ....    DCD    150472704
        0x08004bd4:    00203f20     ? .    DCD    2113312
        0x08004bd8:    003f1807    ..?.    DCD    4134919
        0x08004bdc:    080810e0    ....    DCD    134746336
        0x08004be0:    00e01008    ....    DCD    14684168
        0x08004be4:    2020100f    ..      DCD    538972175
        0x08004be8:    000f1020     ...    DCD    987168
        0x08004bec:    0808f808    ....    DCD    134805512
        0x08004bf0:    00f00808    ....    DCD    15730696
        0x08004bf4:    01213f20     ?!.    DCD    18956064
        0x08004bf8:    00000101    ....    DCD    257
        0x08004bfc:    080810e0    ....    DCD    134746336
        0x08004c00:    00e01008    ....    DCD    14684168
        0x08004c04:    2828100f    ..((    DCD    673714191
        0x08004c08:    004f5030    0PO.    DCD    5197872
        0x08004c0c:    8888f808    ....    DCD    2290677768
        0x08004c10:    00708888    ..p.    DCD    7374984
        0x08004c14:    00203f20     ? .    DCD    2113312
        0x08004c18:    20300c03    ..0     DCD    540019715
        0x08004c1c:    08887000    .p..    DCD    143159296
        0x08004c20:    00380808    ..8.    DCD    3672072
        0x08004c24:    21203800    .8 !    DCD    555759616
        0x08004c28:    001c2221    !"..    DCD    1843745
        0x08004c2c:    f8080818    ....    DCD    4161275928
        0x08004c30:    00180808    ....    DCD    1574920
        0x08004c34:    3f200000    .. ?    DCD    1059061760
        0x08004c38:    00000020     ...    DCD    32
        0x08004c3c:    0008f808    ....    DCD    587784
        0x08004c40:    08f80800    ....    DCD    150472704
        0x08004c44:    20201f00    ..      DCD    538976000
        0x08004c48:    001f2020      ..    DCD    2039840
        0x08004c4c:    00887808    .x..    DCD    8943624
        0x08004c50:    0838c800    ..8.    DCD    137938944
        0x08004c54:    38070000    ...8    DCD    939982848
        0x08004c58:    0000010e    ....    DCD    270
        0x08004c5c:    f800f808    ....    DCD    4160813064
        0x08004c60:    0008f800    ....    DCD    587776
        0x08004c64:    013e0300    ..>.    DCD    20841216
        0x08004c68:    0000033e    >...    DCD    830
        0x08004c6c:    80681808    ..h.    DCD    2154305544
        0x08004c70:    08186880    .h..    DCD    135817344
        0x08004c74:    032c3020     0,.    DCD    53227552
        0x08004c78:    20302c03    .,0     DCD    540027907
        0x08004c7c:    00c83808    .8..    DCD    13121544
        0x08004c80:    000838c8    .8..    DCD    538824
        0x08004c84:    3f200000    .. ?    DCD    1059061760
        0x08004c88:    00000020     ...    DCD    32
        0x08004c8c:    08080810    ....    DCD    134744080
        0x08004c90:    000838c8    .8..    DCD    538824
        0x08004c94:    21263820     8&!    DCD    556152864
        0x08004c98:    00182020      ..    DCD    1581088
        0x08004c9c:    fe000000    ....    DCD    4261412864
        0x08004ca0:    00020202    ....    DCD    131586
        0x08004ca4:    7f000000    ....    DCD    2130706432
        0x08004ca8:    00404040    @@@.    DCD    4210752
        0x08004cac:    c0380400    ..8.    DCD    3224896512
        0x08004cb0:    00000000    ....    DCD    0
        0x08004cb4:    01000000    ....    DCD    16777216
        0x08004cb8:    00c03806    .8..    DCD    12597254
        0x08004cbc:    02020200    ....    DCD    33686016
        0x08004cc0:    000000fe    ....    DCD    254
        0x08004cc4:    40404000    .@@@    DCD    1077952512
        0x08004cc8:    0000007f    ....    DCD    127
        0x08004ccc:    02040000    ....    DCD    33816576
        0x08004cd0:    00000402    ....    DCD    1026
        0x08004cd4:    00000000    ....    DCD    0
        0x08004cd8:    00000000    ....    DCD    0
        0x08004cdc:    00000000    ....    DCD    0
        0x08004ce0:    00000000    ....    DCD    0
        0x08004ce4:    80808080    ....    DCD    2155905152
        0x08004ce8:    80808080    ....    DCD    2155905152
        0x08004cec:    04020200    ....    DCD    67240448
        0x08004cf0:    00000000    ....    DCD    0
        0x08004cf4:    00000000    ....    DCD    0
        0x08004cf8:    00000000    ....    DCD    0
        0x08004cfc:    80800000    ....    DCD    2155872256
        0x08004d00:    00000080    ....    DCD    128
        0x08004d04:    24241900    ..$$    DCD    606345472
        0x08004d08:    00203f12    .? .    DCD    2113298
        0x08004d0c:    8000f010    ....    DCD    2147545104
        0x08004d10:    00000080    ....    DCD    128
        0x08004d14:    20113f00    .?.     DCD    538001152
        0x08004d18:    000e1120     ...    DCD    921888
        0x08004d1c:    80000000    ....    DCD    2147483648
        0x08004d20:    00008080    ....    DCD    32896
        0x08004d24:    20110e00    ...     DCD    537988608
        0x08004d28:    00112020      ..    DCD    1122336
        0x08004d2c:    80800000    ....    DCD    2155872256
        0x08004d30:    00f09080    ....    DCD    15765632
        0x08004d34:    20201f00    ..      DCD    538976000
        0x08004d38:    203f1020     .?     DCD    541003808
        0x08004d3c:    80800000    ....    DCD    2155872256
        0x08004d40:    00008080    ....    DCD    32896
        0x08004d44:    24241f00    ..$$    DCD    606347008
        0x08004d48:    00172424    $$..    DCD    1516580
        0x08004d4c:    e0808000    ....    DCD    3766517760
        0x08004d50:    00209090    .. .    DCD    2134160
        0x08004d54:    3f202000    .  ?    DCD    1059069952
        0x08004d58:    00002020      ..    DCD    8224
        0x08004d5c:    80800000    ....    DCD    2155872256
        0x08004d60:    00808080    ....    DCD    8421504
        0x08004d64:    94946b00    .k..    DCD    2492754688
        0x08004d68:    00609394    ..`.    DCD    6329236
        0x08004d6c:    8000f010    ....    DCD    2147545104
        0x08004d70:    00008080    ....    DCD    32896
        0x08004d74:    00213f20     ?!.    DCD    2178848
        0x08004d78:    203f2000    . ?     DCD    541007872
        0x08004d7c:    98988000    ....    DCD    2560131072
        0x08004d80:    00000000    ....    DCD    0
        0x08004d84:    3f202000    .  ?    DCD    1059069952
        0x08004d88:    00002020      ..    DCD    8224
        0x08004d8c:    80000000    ....    DCD    2147483648
        0x08004d90:    00009898    ....    DCD    39064
        0x08004d94:    8080c000    ....    DCD    2155921408
        0x08004d98:    00007f80    ....    DCD    32640
        0x08004d9c:    0000f010    ....    DCD    61456
        0x08004da0:    00808080    ....    DCD    8421504
        0x08004da4:    06243f20     ?$.    DCD    103038752
        0x08004da8:    00203029    )0 .    DCD    2109481
        0x08004dac:    f8101000    ....    DCD    4161802240
        0x08004db0:    00000000    ....    DCD    0
        0x08004db4:    3f202000    .  ?    DCD    1059069952
        0x08004db8:    00002020      ..    DCD    8224
        0x08004dbc:    80808080    ....    DCD    2155905152
        0x08004dc0:    00808080    ....    DCD    8421504
        0x08004dc4:    00203f20     ? .    DCD    2113312
        0x08004dc8:    3f00203f    ? .?    DCD    1056972863
        0x08004dcc:    80008080    ....    DCD    2147516544
        0x08004dd0:    00008080    ....    DCD    32896
        0x08004dd4:    00213f20     ?!.    DCD    2178848
        0x08004dd8:    203f2000    . ?     DCD    541007872
        0x08004ddc:    80800000    ....    DCD    2155872256
        0x08004de0:    00008080    ....    DCD    32896
        0x08004de4:    20201f00    ..      DCD    538976000
        0x08004de8:    001f2020      ..    DCD    2039840
        0x08004dec:    80008080    ....    DCD    2147516544
        0x08004df0:    00000080    ....    DCD    128
        0x08004df4:    2091ff80    ...     DCD    546439040
        0x08004df8:    000e1120     ...    DCD    921888
        0x08004dfc:    80000000    ....    DCD    2147483648
        0x08004e00:    00800080    ....    DCD    8388736
        0x08004e04:    20110e00    ...     DCD    537988608
        0x08004e08:    80ff9120     ...    DCD    2164232480
        0x08004e0c:    00808080    ....    DCD    8421504
        0x08004e10:    00808080    ....    DCD    8421504
        0x08004e14:    213f2020      ?!    DCD    557785120
        0x08004e18:    00010020     ...    DCD    65568
        0x08004e1c:    80800000    ....    DCD    2155872256
        0x08004e20:    00808080    ....    DCD    8421504
        0x08004e24:    24243300    .3$$    DCD    606352128
        0x08004e28:    00192424    $$..    DCD    1647652
        0x08004e2c:    e0808000    ....    DCD    3766517760
        0x08004e30:    00008080    ....    DCD    32896
        0x08004e34:    1f000000    ....    DCD    520093696
        0x08004e38:    00102020      ..    DCD    1056800
        0x08004e3c:    00008080    ....    DCD    32896
        0x08004e40:    00808000    ....    DCD    8421376
        0x08004e44:    20201f00    ..      DCD    538976000
        0x08004e48:    203f1020     .?     DCD    541003808
        0x08004e4c:    00808080    ....    DCD    8421504
        0x08004e50:    00808080    ....    DCD    8421504
        0x08004e54:    300c0300    ...0    DCD    806093568
        0x08004e58:    0000030c    ....    DCD    780
        0x08004e5c:    80008080    ....    DCD    2147516544
        0x08004e60:    80800080    ....    DCD    2155872384
        0x08004e64:    0c300e01    ..0.    DCD    204475905
        0x08004e68:    01063807    .8..    DCD    17184775
        0x08004e6c:    80808000    ....    DCD    2155905024
        0x08004e70:    00808000    ....    DCD    8421376
        0x08004e74:    0e312000    . 1.    DCD    238100480
        0x08004e78:    0020312e    .1 .    DCD    2109742
        0x08004e7c:    00808080    ....    DCD    8421504
        0x08004e80:    80808000    ....    DCD    2155905024
        0x08004e84:    78868100    ...x    DCD    2022080768
        0x08004e88:    00010618    ....    DCD    67096
        0x08004e8c:    80808000    ....    DCD    2155905024
        0x08004e90:    00808080    ....    DCD    8421504
        0x08004e94:    2c302100    .!0,    DCD    741351680
        0x08004e98:    00302122    "!0.    DCD    3154210
        0x08004e9c:    00000000    ....    DCD    0
        0x08004ea0:    0202fc00    ....    DCD    33750016
        0x08004ea4:    00000000    ....    DCD    0
        0x08004ea8:    40403e01    .>@@    DCD    1077952001
        0x08004eac:    00000000    ....    DCD    0
        0x08004eb0:    000000ff    ....    DCD    255
        0x08004eb4:    00000000    ....    DCD    0
        0x08004eb8:    000000ff    ....    DCD    255
        0x08004ebc:    00fc0202    ....    DCD    16515586
        0x08004ec0:    00000000    ....    DCD    0
        0x08004ec4:    013e4040    @@>.    DCD    20856896
        0x08004ec8:    00000000    ....    DCD    0
        0x08004ecc:    02010200    ....    DCD    33620480
        0x08004ed0:    00020402    ....    DCD    132098
        0x08004ed4:    00000000    ....    DCD    0
        0x08004ed8:    00000000    ....    DCD    0
        0x08004edc:    00000000    ....    DCD    0
        0x08004ee0:    00000000    ....    DCD    0
        0x08004ee4:    00000000    ....    DCD    0
        0x08004ee8:    00000000    ....    DCD    0
    .constdata
    freq_table
        0x08004eec:    00000106    ....    DCD    262
        0x08004ef0:    00000115    ....    DCD    277
        0x08004ef4:    00000126    &...    DCD    294
        0x08004ef8:    00000137    7...    DCD    311
        0x08004efc:    0000014a    J...    DCD    330
        0x08004f00:    0000015d    ]...    DCD    349
        0x08004f04:    00000171    q...    DCD    369
        0x08004f08:    00000188    ....    DCD    392
        0x08004f0c:    0000019f    ....    DCD    415
        0x08004f10:    000001b8    ....    DCD    440
        0x08004f14:    000001d2    ....    DCD    466
        0x08004f18:    000001ee    ....    DCD    494
    sign_table
        0x08004f1c:    00000000    ....    DCD    0
        0x08004f20:    00000002    ....    DCD    2
        0x08004f24:    00000004    ....    DCD    4
        0x08004f28:    00000005    ....    DCD    5
        0x08004f2c:    00000007    ....    DCD    7
        0x08004f30:    00000009    ....    DCD    9
        0x08004f34:    0000000b    ....    DCD    11
    length_tab
        0x08004f38:    00000001    ....    DCD    1
        0x08004f3c:    00000002    ....    DCD    2
        0x08004f40:    00000004    ....    DCD    4
        0x08004f44:    00000008    ....    DCD    8
        0x08004f48:    00000010    ....    DCD    16
        0x08004f4c:    00000020     ...    DCD    32
        0x08004f50:    00000040    @...    DCD    64
    .constdata
    song1
        0x08004f54:    bbd6bdc1    ....    DCD    3151412673
        0x08004f58:    a2bbcfc0    ....    DCD    2730217408
        0x08004f5c:    00000000    ....    DCD    0
        0x08004f60:    00000000    ....    DCD    0
        0x08004f64:    00000000    ....    DCD    0
        0x08004f68:    00000000    ....    DCD    0
        0x08004f6c:    00000000    ....    DCD    0
        0x08004f70:    02150000    ....    DCD    34930688
        0x08004f74:    02170216    ....    DCD    35062294
        0x08004f78:    02150215    ....    DCD    34931221
        0x08004f7c:    02170216    ....    DCD    35062294
        0x08004f80:    02170215    ....    DCD    35062293
        0x08004f84:    01190218    ....    DCD    18416152
        0x08004f88:    02180217    ....    DCD    35127831
        0x08004f8c:    03190119    ....    DCD    51970329
        0x08004f90:    0319031a    ....    DCD    51970842
        0x08004f94:    02170318    ....    DCD    35062552
        0x08004f98:    03191615    ....    DCD    51975701
        0x08004f9c:    0319031a    ....    DCD    51970842
        0x08004fa0:    02170318    ....    DCD    35062552
        0x08004fa4:    02151615    ....    DCD    34936341
        0x08004fa8:    0115020f    ....    DCD    18153999
        0x08004fac:    020f0215    ....    DCD    34538005
        0x08004fb0:    00000115    ....    DCD    277
        0x08004fb4:    00000000    ....    DCD    0
        0x08004fb8:    00000000    ....    DCD    0
        0x08004fbc:    00000000    ....    DCD    0
        0x08004fc0:    00000000    ....    DCD    0
        0x08004fc4:    00000000    ....    DCD    0
        0x08004fc8:    00000000    ....    DCD    0
        0x08004fcc:    00000000    ....    DCD    0
        0x08004fd0:    00000000    ....    DCD    0
        0x08004fd4:    00000000    ....    DCD    0
        0x08004fd8:    00000000    ....    DCD    0
        0x08004fdc:    00000000    ....    DCD    0
        0x08004fe0:    00000000    ....    DCD    0
        0x08004fe4:    00000000    ....    DCD    0
        0x08004fe8:    00000000    ....    DCD    0
        0x08004fec:    00000000    ....    DCD    0
        0x08004ff0:    00000000    ....    DCD    0
        0x08004ff4:    00000000    ....    DCD    0
        0x08004ff8:    00000000    ....    DCD    0
        0x08004ffc:    00000000    ....    DCD    0
        0x08005000:    00000000    ....    DCD    0
        0x08005004:    00000000    ....    DCD    0
        0x08005008:    00000000    ....    DCD    0
        0x0800500c:    00000000    ....    DCD    0
        0x08005010:    00000000    ....    DCD    0
        0x08005014:    00000000    ....    DCD    0
        0x08005018:    00000000    ....    DCD    0
        0x0800501c:    00000000    ....    DCD    0
        0x08005020:    00000000    ....    DCD    0
        0x08005024:    00000000    ....    DCD    0
        0x08005028:    00000000    ....    DCD    0
        0x0800502c:    00000000    ....    DCD    0
        0x08005030:    00000000    ....    DCD    0
        0x08005034:    00000000    ....    DCD    0
        0x08005038:    00000000    ....    DCD    0
        0x0800503c:    00000000    ....    DCD    0
        0x08005040:    00000000    ....    DCD    0
        0x08005044:    00000000    ....    DCD    0
        0x08005048:    00000000    ....    DCD    0
        0x0800504c:    00000000    ....    DCD    0
        0x08005050:    00000000    ....    DCD    0
        0x08005054:    00000000    ....    DCD    0
        0x08005058:    00000000    ....    DCD    0
        0x0800505c:    00000000    ....    DCD    0
        0x08005060:    00000000    ....    DCD    0
        0x08005064:    00000000    ....    DCD    0
        0x08005068:    00000000    ....    DCD    0
        0x0800506c:    00000000    ....    DCD    0
        0x08005070:    00000000    ....    DCD    0
        0x08005074:    00000000    ....    DCD    0
        0x08005078:    00000000    ....    DCD    0
        0x0800507c:    00000000    ....    DCD    0
        0x08005080:    00000000    ....    DCD    0
        0x08005084:    00000000    ....    DCD    0
        0x08005088:    00000000    ....    DCD    0
        0x0800508c:    00000000    ....    DCD    0
        0x08005090:    00000000    ....    DCD    0
        0x08005094:    00000000    ....    DCD    0
        0x08005098:    00000000    ....    DCD    0
        0x0800509c:    00000000    ....    DCD    0
        0x080050a0:    00000000    ....    DCD    0
        0x080050a4:    00000000    ....    DCD    0
        0x080050a8:    00000000    ....    DCD    0
        0x080050ac:    00000000    ....    DCD    0
        0x080050b0:    00000000    ....    DCD    0
        0x080050b4:    00000000    ....    DCD    0
        0x080050b8:    00000000    ....    DCD    0
        0x080050bc:    00000000    ....    DCD    0
        0x080050c0:    00000000    ....    DCD    0
        0x080050c4:    00000000    ....    DCD    0
        0x080050c8:    00000000    ....    DCD    0
        0x080050cc:    00000000    ....    DCD    0
        0x080050d0:    00000000    ....    DCD    0
        0x080050d4:    00000000    ....    DCD    0
        0x080050d8:    00000000    ....    DCD    0
        0x080050dc:    00000000    ....    DCD    0
        0x080050e0:    00000000    ....    DCD    0
        0x080050e4:    00000000    ....    DCD    0
        0x080050e8:    00000000    ....    DCD    0
        0x080050ec:    00000000    ....    DCD    0
        0x080050f0:    00000000    ....    DCD    0
        0x080050f4:    00000000    ....    DCD    0
        0x080050f8:    00000000    ....    DCD    0
        0x080050fc:    00000000    ....    DCD    0
        0x08005100:    00000000    ....    DCD    0
        0x08005104:    00000000    ....    DCD    0
        0x08005108:    00000000    ....    DCD    0
        0x0800510c:    00000000    ....    DCD    0
        0x08005110:    00000000    ....    DCD    0
        0x08005114:    00000000    ....    DCD    0
        0x08005118:    00000000    ....    DCD    0
        0x0800511c:    00000000    ....    DCD    0
        0x08005120:    00000000    ....    DCD    0
        0x08005124:    00000000    ....    DCD    0
        0x08005128:    00000000    ....    DCD    0
        0x0800512c:    00000000    ....    DCD    0
        0x08005130:    00000000    ....    DCD    0
        0x08005134:    00000000    ....    DCD    0
        0x08005138:    00000000    ....    DCD    0
        0x0800513c:    00000000    ....    DCD    0
        0x08005140:    00000000    ....    DCD    0
        0x08005144:    00000000    ....    DCD    0
        0x08005148:    00000000    ....    DCD    0
        0x0800514c:    00000000    ....    DCD    0
        0x08005150:    00000000    ....    DCD    0
        0x08005154:    00000000    ....    DCD    0
        0x08005158:    00000000    ....    DCD    0
        0x0800515c:    00000000    ....    DCD    0
        0x08005160:    00000000    ....    DCD    0
        0x08005164:    0000        ..      DCW    0
    song2
        0x08005166:    c9ba        ..      DCW    51642
        0x08005168:    c2d4c1cc    ....    DCD    3268723148
        0x0800516c:    0000abc9    ....    DCD    43977
        0x08005170:    00000000    ....    DCD    0
        0x08005174:    00000000    ....    DCD    0
        0x08005178:    00000000    ....    DCD    0
        0x0800517c:    00000000    ....    DCD    0
        0x08005180:    00000000    ....    DCD    0
        0x08005184:    02190317    ....    DCD    35193623
        0x08005188:    02190319    ....    DCD    35193625
        0x0800518c:    031a0219    ....    DCD    52036121
        0x08005190:    03170319    ....    DCD    51839769
        0x08005194:    01150316    ....    DCD    18154262
        0x08005198:    031f031a    ....    DCD    52364058
        0x0800519c:    0319031a    ....    DCD    51970842
        0x080051a0:    02160d17    ....    DCD    34999575
        0x080051a4:    03100315    ....    DCD    51381013
        0x080051a8:    03160216    ....    DCD    51773974
        0x080051ac:    0d170317    ....    DCD    219611927
        0x080051b0:    03176616    .f..    DCD    51865110
        0x080051b4:    03190219    ....    DCD    51970585
        0x080051b8:    02190219    ....    DCD    35193369
        0x080051bc:    0319031a    ....    DCD    51970842
        0x080051c0:    03160317    ....    DCD    51774231
        0x080051c4:    03100115    ....    DCD    51380501
        0x080051c8:    03100315    ....    DCD    51381013
        0x080051cc:    0216030f    ....    DCD    34997007
        0x080051d0:    14150217    ....    DCD    336921111
        0x080051d4:    00000000    ....    DCD    0
        0x080051d8:    00000000    ....    DCD    0
        0x080051dc:    00000000    ....    DCD    0
        0x080051e0:    00000000    ....    DCD    0
        0x080051e4:    00000000    ....    DCD    0
        0x080051e8:    00000000    ....    DCD    0
        0x080051ec:    00000000    ....    DCD    0
        0x080051f0:    00000000    ....    DCD    0
        0x080051f4:    00000000    ....    DCD    0
        0x080051f8:    00000000    ....    DCD    0
        0x080051fc:    00000000    ....    DCD    0
        0x08005200:    00000000    ....    DCD    0
        0x08005204:    00000000    ....    DCD    0
        0x08005208:    00000000    ....    DCD    0
        0x0800520c:    00000000    ....    DCD    0
        0x08005210:    00000000    ....    DCD    0
        0x08005214:    00000000    ....    DCD    0
        0x08005218:    00000000    ....    DCD    0
        0x0800521c:    00000000    ....    DCD    0
        0x08005220:    00000000    ....    DCD    0
        0x08005224:    00000000    ....    DCD    0
        0x08005228:    00000000    ....    DCD    0
        0x0800522c:    00000000    ....    DCD    0
        0x08005230:    00000000    ....    DCD    0
        0x08005234:    00000000    ....    DCD    0
        0x08005238:    00000000    ....    DCD    0
        0x0800523c:    00000000    ....    DCD    0
        0x08005240:    00000000    ....    DCD    0
        0x08005244:    00000000    ....    DCD    0
        0x08005248:    00000000    ....    DCD    0
        0x0800524c:    00000000    ....    DCD    0
        0x08005250:    00000000    ....    DCD    0
        0x08005254:    00000000    ....    DCD    0
        0x08005258:    00000000    ....    DCD    0
        0x0800525c:    00000000    ....    DCD    0
        0x08005260:    00000000    ....    DCD    0
        0x08005264:    00000000    ....    DCD    0
        0x08005268:    00000000    ....    DCD    0
        0x0800526c:    00000000    ....    DCD    0
        0x08005270:    00000000    ....    DCD    0
        0x08005274:    00000000    ....    DCD    0
        0x08005278:    00000000    ....    DCD    0
        0x0800527c:    00000000    ....    DCD    0
        0x08005280:    00000000    ....    DCD    0
        0x08005284:    00000000    ....    DCD    0
        0x08005288:    00000000    ....    DCD    0
        0x0800528c:    00000000    ....    DCD    0
        0x08005290:    00000000    ....    DCD    0
        0x08005294:    00000000    ....    DCD    0
        0x08005298:    00000000    ....    DCD    0
        0x0800529c:    00000000    ....    DCD    0
        0x080052a0:    00000000    ....    DCD    0
        0x080052a4:    00000000    ....    DCD    0
        0x080052a8:    00000000    ....    DCD    0
        0x080052ac:    00000000    ....    DCD    0
        0x080052b0:    00000000    ....    DCD    0
        0x080052b4:    00000000    ....    DCD    0
        0x080052b8:    00000000    ....    DCD    0
        0x080052bc:    00000000    ....    DCD    0
        0x080052c0:    00000000    ....    DCD    0
        0x080052c4:    00000000    ....    DCD    0
        0x080052c8:    00000000    ....    DCD    0
        0x080052cc:    00000000    ....    DCD    0
        0x080052d0:    00000000    ....    DCD    0
        0x080052d4:    00000000    ....    DCD    0
        0x080052d8:    00000000    ....    DCD    0
        0x080052dc:    00000000    ....    DCD    0
        0x080052e0:    00000000    ....    DCD    0
        0x080052e4:    00000000    ....    DCD    0
        0x080052e8:    00000000    ....    DCD    0
        0x080052ec:    00000000    ....    DCD    0
        0x080052f0:    00000000    ....    DCD    0
        0x080052f4:    00000000    ....    DCD    0
        0x080052f8:    00000000    ....    DCD    0
        0x080052fc:    00000000    ....    DCD    0
        0x08005300:    00000000    ....    DCD    0
        0x08005304:    00000000    ....    DCD    0
        0x08005308:    00000000    ....    DCD    0
        0x0800530c:    00000000    ....    DCD    0
        0x08005310:    00000000    ....    DCD    0
        0x08005314:    00000000    ....    DCD    0
        0x08005318:    00000000    ....    DCD    0
        0x0800531c:    00000000    ....    DCD    0
        0x08005320:    00000000    ....    DCD    0
        0x08005324:    00000000    ....    DCD    0
        0x08005328:    00000000    ....    DCD    0
        0x0800532c:    00000000    ....    DCD    0
        0x08005330:    00000000    ....    DCD    0
        0x08005334:    00000000    ....    DCD    0
        0x08005338:    00000000    ....    DCD    0
        0x0800533c:    00000000    ....    DCD    0
        0x08005340:    00000000    ....    DCD    0
        0x08005344:    00000000    ....    DCD    0
        0x08005348:    00000000    ....    DCD    0
        0x0800534c:    00000000    ....    DCD    0
        0x08005350:    00000000    ....    DCD    0
        0x08005354:    00000000    ....    DCD    0
        0x08005358:    00000000    ....    DCD    0
        0x0800535c:    00000000    ....    DCD    0
        0x08005360:    00000000    ....    DCD    0
        0x08005364:    00000000    ....    DCD    0
        0x08005368:    00000000    ....    DCD    0
        0x0800536c:    00000000    ....    DCD    0
        0x08005370:    00000000    ....    DCD    0
        0x08005374:    00000000    ....    DCD    0
    song3
        0x08005378:    a8bbe0c7    ....    DCD    2830885063
        0x0800537c:    0000c9b4    ....    DCD    51636
        0x08005380:    00000000    ....    DCD    0
        0x08005384:    00000000    ....    DCD    0
        0x08005388:    00000000    ....    DCD    0
        0x0800538c:    00000000    ....    DCD    0
        0x08005390:    00000000    ....    DCD    0
        0x08005394:    04230000    ..#.    DCD    69402624
        0x08005398:    04230424    $.#.    DCD    69403684
        0x0800539c:    04200421    !. .    DCD    69207073
        0x080053a0:    04200421    !. .    DCD    69207073
        0x080053a4:    0d1a041f    ....    DCD    219808799
        0x080053a8:    04210420     .!.    DCD    69272608
        0x080053ac:    041f0420     ...    DCD    69141536
        0x080053b0:    03190d19    ....    DCD    51973401
        0x080053b4:    04210420     .!.    DCD    69272608
        0x080053b8:    041f0420     ...    DCD    69141536
        0x080053bc:    041f031a    ....    DCD    69141274
        0x080053c0:    031a0320     ...    DCD    52036384
        0x080053c4:    041f0221    !...    DCD    69141025
        0x080053c8:    04210420     .!.    DCD    69272608
        0x080053cc:    04230423    #.#.    DCD    69403683
        0x080053d0:    03210421    !.!.    DCD    52495393
        0x080053d4:    031f0320     ...    DCD    52364064
        0x080053d8:    041f0420     ...    DCD    69141536
        0x080053dc:    041f031a    ....    DCD    69141274
        0x080053e0:    03210420     .!.    DCD    52495392
        0x080053e4:    04201423    #. .    DCD    69211171
        0x080053e8:    041a041f    ....    DCD    68813855
        0x080053ec:    041f031f    ....    DCD    69141279
        0x080053f0:    031f041a    ....    DCD    52364314
        0x080053f4:    041a041f    ....    DCD    68813855
        0x080053f8:    041f031f    ....    DCD    69141279
        0x080053fc:    041f041a    ....    DCD    69141530
        0x08005400:    1719041a    ....    DCD    387515418
        0x08005404:    041f0420     ...    DCD    69141536
        0x08005408:    031f041a    ....    DCD    52364314
        0x0800540c:    041a041f    ....    DCD    68813855
        0x08005410:    041f031f    ....    DCD    69141279
        0x08005414:    041f041a    ....    DCD    69141530
        0x08005418:    1719041a    ....    DCD    387515418
        0x0800541c:    041a0419    ....    DCD    68813849
        0x08005420:    03230421    !.#.    DCD    52626465
        0x08005424:    04210423    #.!.    DCD    69272611
        0x08005428:    04230323    #.#.    DCD    69403427
        0x0800542c:    04200421    !. .    DCD    69207073
        0x08005430:    161f041f    ....    DCD    371131423
        0x08005434:    041f0420     ...    DCD    69141536
        0x08005438:    04210420     .!.    DCD    69272608
        0x0800543c:    04200420     . .    DCD    69207072
        0x08005440:    0320041f    .. .    DCD    52429855
        0x08005444:    041a041f    ....    DCD    68813855
        0x08005448:    041f0420     ...    DCD    69141536
        0x0800544c:    041a041f    ....    DCD    68813855
        0x08005450:    041f031f    ....    DCD    69141279
        0x08005454:    141f041f    ....    DCD    337576991
        0x08005458:    04230423    #.#.    DCD    69403683
        0x0800545c:    04200421    !. .    DCD    69207073
        0x08005460:    031a0421    !...    DCD    52036641
        0x08005464:    04210420     .!.    DCD    69272608
        0x08005468:    04210423    #.!.    DCD    69272611
        0x0800546c:    04231620     .#.    DCD    69408288
        0x08005470:    04210423    #.!.    DCD    69272611
        0x08005474:    04210420     .!.    DCD    69272608
        0x08005478:    04200319    .. .    DCD    69206809
        0x0800547c:    04230421    !.#.    DCD    69403681
        0x08005480:    161f0420     ...    DCD    371131424
        0x08005484:    0420041f    .. .    DCD    69207071
        0x08005488:    04230421    !.#.    DCD    69403681
        0x0800548c:    04230424    $.#.    DCD    69403684
        0x08005490:    04230421    !.#.    DCD    69403681
        0x08005494:    04210421    !.!.    DCD    69272609
        0x08005498:    16200420     . .    DCD    371196960
        0x0800549c:    0420041f    .. .    DCD    69207071
        0x080054a0:    0320041f    .. .    DCD    52429855
        0x080054a4:    0e20041f    .. .    DCD    236979231
        0x080054a8:    03210420     .!.    DCD    52495392
        0x080054ac:    03210e23    #.!.    DCD    52497955
        0x080054b0:    04231721    !.#.    DCD    69408545
        0x080054b4:    04210423    #.!.    DCD    69272611
        0x080054b8:    04210420     .!.    DCD    69272608
        0x080054bc:    0420031a    .. .    DCD    69206810
        0x080054c0:    04230421    !.#.    DCD    69403681
        0x080054c4:    16200421    !. .    DCD    371196961
        0x080054c8:    04230423    #.#.    DCD    69403683
        0x080054cc:    04200421    !. .    DCD    69207073
        0x080054d0:    03190421    !...    DCD    51971105
        0x080054d4:    04210420     .!.    DCD    69272608
        0x080054d8:    04200423    #. .    DCD    69207075
        0x080054dc:    041f161f    ....    DCD    69146143
        0x080054e0:    04210420     .!.    DCD    69272608
        0x080054e4:    04240423    #.$.    DCD    69469219
        0x080054e8:    04210423    #.!.    DCD    69272611
        0x080054ec:    04210423    #.!.    DCD    69272611
        0x080054f0:    04200421    !. .    DCD    69207073
        0x080054f4:    03190320     ...    DCD    51970848
        0x080054f8:    04200321    !. .    DCD    69206817
        0x080054fc:    03200420     . .    DCD    52429856
        0x08005500:    151f031f    ....    DCD    354353951
        0x08005504:    041f0420     ...    DCD    69141536
        0x08005508:    0320041a    .. .    DCD    52429850
        0x0800550c:    151f0d1f    ....    DCD    354356511
        0x08005510:    04230423    #.#.    DCD    69403683
        0x08005514:    03200e21    !. .    DCD    52432417
        0x08005518:    161f0d1f    ....    DCD    371133727
        0x0800551c:    00000000    ....    DCD    0
        0x08005520:    00000000    ....    DCD    0
        0x08005524:    00000000    ....    DCD    0
        0x08005528:    00000000    ....    DCD    0
        0x0800552c:    00000000    ....    DCD    0
        0x08005530:    00000000    ....    DCD    0
        0x08005534:    00000000    ....    DCD    0
        0x08005538:    00000000    ....    DCD    0
        0x0800553c:    00000000    ....    DCD    0
        0x08005540:    00000000    ....    DCD    0
        0x08005544:    00000000    ....    DCD    0
        0x08005548:    00000000    ....    DCD    0
        0x0800554c:    00000000    ....    DCD    0
        0x08005550:    00000000    ....    DCD    0
        0x08005554:    00000000    ....    DCD    0
        0x08005558:    00000000    ....    DCD    0
        0x0800555c:    00000000    ....    DCD    0
        0x08005560:    00000000    ....    DCD    0
        0x08005564:    00000000    ....    DCD    0
        0x08005568:    00000000    ....    DCD    0
        0x0800556c:    00000000    ....    DCD    0
        0x08005570:    00000000    ....    DCD    0
        0x08005574:    00000000    ....    DCD    0
        0x08005578:    00000000    ....    DCD    0
        0x0800557c:    00000000    ....    DCD    0
        0x08005580:    00000000    ....    DCD    0
        0x08005584:    00000000    ....    DCD    0
        0x08005588:    0000        ..      DCW    0
    song4
        0x0800558a:    e7c8        ..      DCW    59336
        0x0800558c:    b1b5fbb9    ....    DCD    2981493689
        0x08005590:    0000b1ca    ....    DCD    45514
        0x08005594:    00000000    ....    DCD    0
        0x08005598:    00000000    ....    DCD    0
        0x0800559c:    00000000    ....    DCD    0
        0x080055a0:    00000000    ....    DCD    0
        0x080055a4:    00000000    ....    DCD    0
        0x080055a8:    03170219    ....    DCD    51839513
        0x080055ac:    031a0319    ....    DCD    52036377
        0x080055b0:    03170319    ....    DCD    51839769
        0x080055b4:    03150316    ....    DCD    51708694
        0x080055b8:    04150e16    ....    DCD    68488726
        0x080055bc:    02150324    $...    DCD    34931492
        0x080055c0:    0e170416    ....    DCD    236389398
        0x080055c4:    04107b17    .{..    DCD    68188951
        0x080055c8:    03150310    ....    DCD    51708688
        0x080055cc:    03170316    ....    DCD    51839766
        0x080055d0:    03170219    ....    DCD    51839513
        0x080055d4:    03160317    ....    DCD    51774231
        0x080055d8:    03100315    ....    DCD    51381013
        0x080055dc:    04150e16    ....    DCD    68488726
        0x080055e0:    79190115    ...y    DCD    2031681813
        0x080055e4:    04170416    ....    DCD    68617238
        0x080055e8:    03160419    ....    DCD    51774489
        0x080055ec:    03160416    ....    DCD    51774486
        0x080055f0:    03100215    ....    DCD    51380757
        0x080055f4:    660e010f    ...f    DCD    1712193807
        0x080055f8:    040e040d    ....    DCD    68027405
        0x080055fc:    040d040f    ....    DCD    67961871
        0x08005600:    040f040e    ....    DCD    68092942
        0x08005604:    04160415    ....    DCD    68551701
        0x08005608:    04150416    ....    DCD    68486166
        0x0800560c:    04160415    ....    DCD    68551701
        0x08005610:    04160417    ....    DCD    68551703
        0x08005614:    02150c15    ....    DCD    34933781
        0x08005618:    671a0419    ...g    DCD    1729758233
        0x0800561c:    00000119    ....    DCD    281
        0x08005620:    00000000    ....    DCD    0
        0x08005624:    00000000    ....    DCD    0
        0x08005628:    00000000    ....    DCD    0
        0x0800562c:    00000000    ....    DCD    0
        0x08005630:    00000000    ....    DCD    0
        0x08005634:    00000000    ....    DCD    0
        0x08005638:    00000000    ....    DCD    0
        0x0800563c:    00000000    ....    DCD    0
        0x08005640:    00000000    ....    DCD    0
        0x08005644:    00000000    ....    DCD    0
        0x08005648:    00000000    ....    DCD    0
        0x0800564c:    00000000    ....    DCD    0
        0x08005650:    00000000    ....    DCD    0
        0x08005654:    00000000    ....    DCD    0
        0x08005658:    00000000    ....    DCD    0
        0x0800565c:    00000000    ....    DCD    0
        0x08005660:    00000000    ....    DCD    0
        0x08005664:    00000000    ....    DCD    0
        0x08005668:    00000000    ....    DCD    0
        0x0800566c:    00000000    ....    DCD    0
        0x08005670:    00000000    ....    DCD    0
        0x08005674:    00000000    ....    DCD    0
        0x08005678:    00000000    ....    DCD    0
        0x0800567c:    00000000    ....    DCD    0
        0x08005680:    00000000    ....    DCD    0
        0x08005684:    00000000    ....    DCD    0
        0x08005688:    00000000    ....    DCD    0
        0x0800568c:    00000000    ....    DCD    0
        0x08005690:    00000000    ....    DCD    0
        0x08005694:    00000000    ....    DCD    0
        0x08005698:    00000000    ....    DCD    0
        0x0800569c:    00000000    ....    DCD    0
        0x080056a0:    00000000    ....    DCD    0
        0x080056a4:    00000000    ....    DCD    0
        0x080056a8:    00000000    ....    DCD    0
        0x080056ac:    00000000    ....    DCD    0
        0x080056b0:    00000000    ....    DCD    0
        0x080056b4:    00000000    ....    DCD    0
        0x080056b8:    00000000    ....    DCD    0
        0x080056bc:    00000000    ....    DCD    0
        0x080056c0:    00000000    ....    DCD    0
        0x080056c4:    00000000    ....    DCD    0
        0x080056c8:    00000000    ....    DCD    0
        0x080056cc:    00000000    ....    DCD    0
        0x080056d0:    00000000    ....    DCD    0
        0x080056d4:    00000000    ....    DCD    0
        0x080056d8:    00000000    ....    DCD    0
        0x080056dc:    00000000    ....    DCD    0
        0x080056e0:    00000000    ....    DCD    0
        0x080056e4:    00000000    ....    DCD    0
        0x080056e8:    00000000    ....    DCD    0
        0x080056ec:    00000000    ....    DCD    0
        0x080056f0:    00000000    ....    DCD    0
        0x080056f4:    00000000    ....    DCD    0
        0x080056f8:    00000000    ....    DCD    0
        0x080056fc:    00000000    ....    DCD    0
        0x08005700:    00000000    ....    DCD    0
        0x08005704:    00000000    ....    DCD    0
        0x08005708:    00000000    ....    DCD    0
        0x0800570c:    00000000    ....    DCD    0
        0x08005710:    00000000    ....    DCD    0
        0x08005714:    00000000    ....    DCD    0
        0x08005718:    00000000    ....    DCD    0
        0x0800571c:    00000000    ....    DCD    0
        0x08005720:    00000000    ....    DCD    0
        0x08005724:    00000000    ....    DCD    0
        0x08005728:    00000000    ....    DCD    0
        0x0800572c:    00000000    ....    DCD    0
        0x08005730:    00000000    ....    DCD    0
        0x08005734:    00000000    ....    DCD    0
        0x08005738:    00000000    ....    DCD    0
        0x0800573c:    00000000    ....    DCD    0
        0x08005740:    00000000    ....    DCD    0
        0x08005744:    00000000    ....    DCD    0
        0x08005748:    00000000    ....    DCD    0
        0x0800574c:    00000000    ....    DCD    0
        0x08005750:    00000000    ....    DCD    0
        0x08005754:    00000000    ....    DCD    0
        0x08005758:    00000000    ....    DCD    0
        0x0800575c:    00000000    ....    DCD    0
        0x08005760:    00000000    ....    DCD    0
        0x08005764:    00000000    ....    DCD    0
        0x08005768:    00000000    ....    DCD    0
        0x0800576c:    00000000    ....    DCD    0
        0x08005770:    00000000    ....    DCD    0
        0x08005774:    00000000    ....    DCD    0
        0x08005778:    00000000    ....    DCD    0
        0x0800577c:    00000000    ....    DCD    0
        0x08005780:    00000000    ....    DCD    0
        0x08005784:    00000000    ....    DCD    0
        0x08005788:    00000000    ....    DCD    0
        0x0800578c:    00000000    ....    DCD    0
        0x08005790:    00000000    ....    DCD    0
        0x08005794:    00000000    ....    DCD    0
        0x08005798:    00000000    ....    DCD    0
    song5
        0x0800579c:    f7c3e5c7    ....    DCD    4156810695
        0x080057a0:    cfc9ead3    ....    DCD    3486116563
        0x080057a4:    00000000    ....    DCD    0
        0x080057a8:    00000000    ....    DCD    0
        0x080057ac:    00000000    ....    DCD    0
        0x080057b0:    00000000    ....    DCD    0
        0x080057b4:    00000000    ....    DCD    0
        0x080057b8:    030f0000    ....    DCD    51314688
        0x080057bc:    66150310    ...f    DCD    1712653072
        0x080057c0:    67160317    ...g    DCD    1729495831
        0x080057c4:    03106715    .g..    DCD    51406613
        0x080057c8:    030f000f    ....    DCD    51314703
        0x080057cc:    66150310    ...f    DCD    1712653072
        0x080057d0:    67160317    ...g    DCD    1729495831
        0x080057d4:    04196715    .g..    DCD    68773653
        0x080057d8:    0017041a    ....    DCD    1508378
        0x080057dc:    03190317    ....    DCD    51970839
        0x080057e0:    031f661a    .f..    DCD    52389402
        0x080057e4:    031a021b    ....    DCD    52036123
        0x080057e8:    03170319    ....    DCD    51839769
        0x080057ec:    03190316    ....    DCD    51970838
        0x080057f0:    0115031a    ....    DCD    18154266
        0x080057f4:    04166616    .f..    DCD    68576790
        0x080057f8:    66160417    ...f    DCD    1712718871
        0x080057fc:    00150310    ....    DCD    1377040
        0x08005800:    04170316    ....    DCD    68616982
        0x08005804:    03190e19    ....    DCD    51973657
        0x08005808:    0316031a    ....    DCD    51774234
        0x0800580c:    0e190417    ....    DCD    236520471
        0x08005810:    031a0319    ....    DCD    52036377
        0x08005814:    03160317    ....    DCD    51774231
        0x08005818:    03190317    ....    DCD    51970839
        0x0800581c:    03156615    .f..    DCD    51734037
        0x08005820:    031a031a    ....    DCD    52036378
        0x08005824:    0319031a    ....    DCD    51970842
        0x08005828:    03170319    ....    DCD    51839769
        0x0800582c:    67170416    ...g    DCD    1729561622
        0x08005830:    71150416    ...q    DCD    1897202710
        0x08005834:    04170015    ....    DCD    68616213
        0x08005838:    04170319    ....    DCD    68616985
        0x0800583c:    03170319    ....    DCD    51839769
        0x08005840:    0317021a    ....    DCD    51839514
        0x08005844:    04150416    ....    DCD    68486166
        0x08005848:    03150315    ....    DCD    51708693
        0x0800584c:    03190315    ....    DCD    51970837
        0x08005850:    031a0117    ....    DCD    52035863
        0x08005854:    031a031a    ....    DCD    52036378
        0x08005858:    031a0319    ....    DCD    52036377
        0x0800585c:    0321031a    ..!.    DCD    52495130
        0x08005860:    0020031f    .. .    DCD    2097951
        0x08005864:    031a0319    ....    DCD    52036377
        0x08005868:    67216723    #g!g    DCD    1730242339
        0x0800586c:    0220031a    .. .    DCD    35652378
        0x08005870:    031f0320     ...    DCD    52364064
        0x08005874:    0319031b    ....    DCD    51970843
        0x08005878:    03210320     .!.    DCD    52495136
        0x0800587c:    031f021f    ....    DCD    52363807
        0x08005880:    67210320     .!g    DCD    1730216736
        0x08005884:    031f6720     g..    DCD    52389664
        0x08005888:    031f0320     ...    DCD    52364064
        0x0800588c:    03240323    #.$.    DCD    52691747
        0x08005890:    03190021    !...    DCD    51970081
        0x08005894:    6723031a    ..#g    DCD    1730347802
        0x08005898:    031a6721    !g..    DCD    52061985
        0x0800589c:    03200220     . .    DCD    52429344
        0x080058a0:    031b031f    ....    DCD    52101919
        0x080058a4:    03200319    .. .    DCD    52429593
        0x080058a8:    661f0321    !..f    DCD    1713308449
        0x080058ac:    0321031a    ..!.    DCD    52495130
        0x080058b0:    031f031f    ....    DCD    52364063
        0x080058b4:    0321031a    ..!.    DCD    52495130
        0x080058b8:    031f031f    ....    DCD    52364063
        0x080058bc:    031a0d1a    ....    DCD    52038938
        0x080058c0:    001f0d1f    ....    DCD    2034975
        0x080058c4:    01200121    !. .    DCD    18874657
        0x080058c8:    01240121    !.$.    DCD    19136801
        0x080058cc:    02210220     .!.    DCD    35717664
        0x080058d0:    031a6623    #f..    DCD    52061731
        0x080058d4:    0316001f    ....    DCD    51773471
        0x080058d8:    0e190417    ....    DCD    236520471
        0x080058dc:    031a0319    ....    DCD    52036377
        0x080058e0:    04170316    ....    DCD    68616982
        0x080058e4:    03190e19    ....    DCD    51973657
        0x080058e8:    0317031a    ....    DCD    51839770
        0x080058ec:    03170316    ....    DCD    51839766
        0x080058f0:    01150319    ....    DCD    18154265
        0x080058f4:    031a031a    ....    DCD    52036378
        0x080058f8:    0319031a    ....    DCD    51970842
        0x080058fc:    03170319    ....    DCD    51839769
        0x08005900:    03150316    ....    DCD    51708694
        0x08005904:    03160017    ....    DCD    51773463
        0x08005908:    0e190417    ....    DCD    236520471
        0x0800590c:    031a0319    ....    DCD    52036377
        0x08005910:    04170316    ....    DCD    68616982
        0x08005914:    03190e19    ....    DCD    51973657
        0x08005918:    0317031a    ....    DCD    51839770
        0x0800591c:    03170316    ....    DCD    51839766
        0x08005920:    01150319    ....    DCD    18154265
        0x08005924:    031a031a    ....    DCD    52036378
        0x08005928:    0319031a    ....    DCD    51970842
        0x0800592c:    03170319    ....    DCD    51839769
        0x08005930:    67170416    ...g    DCD    1729561622
        0x08005934:    00000000    ....    DCD    0
        0x08005938:    00000000    ....    DCD    0
        0x0800593c:    00000000    ....    DCD    0
        0x08005940:    00000000    ....    DCD    0
        0x08005944:    00000000    ....    DCD    0
        0x08005948:    00000000    ....    DCD    0
        0x0800594c:    00000000    ....    DCD    0
        0x08005950:    00000000    ....    DCD    0
        0x08005954:    00000000    ....    DCD    0
        0x08005958:    00000000    ....    DCD    0
        0x0800595c:    00000000    ....    DCD    0
        0x08005960:    00000000    ....    DCD    0
        0x08005964:    00000000    ....    DCD    0
        0x08005968:    00000000    ....    DCD    0
        0x0800596c:    00000000    ....    DCD    0
        0x08005970:    00000000    ....    DCD    0
        0x08005974:    00000000    ....    DCD    0
        0x08005978:    00000000    ....    DCD    0
        0x0800597c:    00000000    ....    DCD    0
        0x08005980:    00000000    ....    DCD    0
        0x08005984:    00000000    ....    DCD    0
        0x08005988:    00000000    ....    DCD    0
        0x0800598c:    00000000    ....    DCD    0
        0x08005990:    00000000    ....    DCD    0
        0x08005994:    00000000    ....    DCD    0
        0x08005998:    00000000    ....    DCD    0
        0x0800599c:    00000000    ....    DCD    0
        0x080059a0:    00000000    ....    DCD    0
        0x080059a4:    00000000    ....    DCD    0
        0x080059a8:    00000000    ....    DCD    0
        0x080059ac:    0000        ..      DCW    0
    .constdata
    CLOUD
        0x080059ae:    c080        ..      DCW    49280
        0x080059b0:    b0b070e0    .p..    DCD    2964353248
        0x080059b4:    8e8898b0    ....    DCD    2391316656
        0x080059b8:    81838383    ....    DCD    2172879747
        0x080059bc:    8c8e9381    ....    DCD    2358154113
        0x080059c0:    b0988888    ....    DCD    2962786440
        0x080059c4:    c0f0        ..      DCW    49392
    DINOSAUR
        0x080059c6:    80e0        ..      DCW    32992
        0x080059c8:    80000000    ....    DCD    2147483648
        0x080059cc:    fffee0c0    ....    DCD    4294893760
        0x080059d0:    2fafbffd    .../    DCD    800047101
        0x080059d4:    07030e2f    /...    DCD    117640751
        0x080059d8:    bfff1e0f    ....    DCD    3221167631
        0x080059dc:    2f3f1f1f    ..?/    DCD    792665887
        0x080059e0:    00010007    ....    DCD    65543
        0x080059e4:    80e00000    ....    DCD    2162163712
        0x080059e8:    80000000    ....    DCD    2147483648
        0x080059ec:    fffee0c0    ....    DCD    4294893760
        0x080059f0:    2fafbffd    .../    DCD    800047101
        0x080059f4:    07030e2f    /...    DCD    117640751
        0x080059f8:    7f3f1e0f    ..?.    DCD    2134842895
        0x080059fc:    8fff3f5f    _?..    DCD    2415869791
        0x08005a00:    00010007    ....    DCD    65543
        0x08005a04:    0000        ..      DCW    0
    GROUND
        0x08005a06:    c8c8        ..      DCW    51400
        0x08005a08:    282828c8    .(((    DCD    673720520
        0x08005a0c:    08c8c808    ....    DCD    147376136
        0x08005a10:    08080808    ....    DCD    134744072
        0x08005a14:    08080808    ....    DCD    134744072
        0x08005a18:    48080808    ...H    DCD    1208485896
        0x08005a1c:    c8c80808    ....    DCD    3368552456
        0x08005a20:    383808c8    ..88    DCD    943196360
        0x08005a24:    08080808    ....    DCD    134744072
        0x08005a28:    08484808    .HH.    DCD    138954760
        0x08005a2c:    08080808    ....    DCD    134744072
        0x08005a30:    48082808    .(.H    DCD    1208494088
        0x08005a34:    08084848    HH..    DCD    134760520
        0x08005a38:    08282808    .((.    DCD    136849416
        0x08005a3c:    08080808    ....    DCD    134744072
        0x08005a40:    c8080808    ....    DCD    3355969544
        0x08005a44:    08080808    ....    DCD    134744072
        0x08005a48:    48080808    ...H    DCD    1208485896
        0x08005a4c:    08080808    ....    DCD    134744072
        0x08005a50:    38380808    ..88    DCD    943196168
        0x08005a54:    08080808    ....    DCD    134744072
        0x08005a58:    08080808    ....    DCD    134744072
        0x08005a5c:    48080808    ...H    DCD    1208485896
        0x08005a60:    08282808    .((.    DCD    136849416
        0x08005a64:    08084848    HH..    DCD    134760520
        0x08005a68:    08080808    ....    DCD    134744072
        0x08005a6c:    08080808    ....    DCD    134744072
        0x08005a70:    08280808    ..(.    DCD    136841224
        0x08005a74:    38080808    ...8    DCD    940050440
        0x08005a78:    08680838    8.h.    DCD    141035576
        0x08005a7c:    08080808    ....    DCD    134744072
        0x08005a80:    08082808    .(..    DCD    134752264
        0x08005a84:    08080808    ....    DCD    134744072
        0x08005a88:    48084808    .H.H    DCD    1208502280
        0x08005a8c:    08080848    H...    DCD    134744136
        0x08005a90:    48080808    ...H    DCD    1208485896
        0x08005a94:    08080848    H...    DCD    134744136
        0x08005a98:    08080808    ....    DCD    134744072
        0x08005a9c:    08080868    h...    DCD    134744168
        0x08005aa0:    08080808    ....    DCD    134744072
        0x08005aa4:    28080808    ...(    DCD    671614984
        0x08005aa8:    08080808    ....    DCD    134744072
        0x08005aac:    c8c80808    ....    DCD    3368552456
        0x08005ab0:    08080908    ....    DCD    134744328
        0x08005ab4:    38080808    ...8    DCD    940050440
        0x08005ab8:    28080838    8..(    DCD    671615032
        0x08005abc:    08080908    ....    DCD    134744328
        0x08005ac0:    08080808    ....    DCD    134744072
        0x08005ac4:    08282808    .((.    DCD    136849416
        0x08005ac8:    08090808    ....    DCD    134809608
        0x08005acc:    08080808    ....    DCD    134744072
        0x08005ad0:    68080808    ...h    DCD    1745356808
        0x08005ad4:    c8c90868    h...    DCD    3368618088
        0x08005ad8:    080808c8    ....    DCD    134744264
        0x08005adc:    080808c8    ....    DCD    134744264
        0x08005ae0:    08292808    .().    DCD    136914952
        0x08005ae4:    08080808    ....    DCD    134744072
        0x08005ae8:    08080808    ....    DCD    134744072
        0x08005aec:    49480808    ..HI    DCD    1229457416
        0x08005af0:    08080808    ....    DCD    134744072
        0x08005af4:    08080808    ....    DCD    134744072
        0x08005af8:    68080808    ...h    DCD    1745356808
        0x08005afc:    28080868    h..(    DCD    671615080
        0x08005b00:    08080828    (...    DCD    134744104
        0x08005b04:    08080808    ....    DCD    134744072
        0x08005b08:    08086868    hh..    DCD    134768744
        0x08005b0c:    0808c8c8    ....    DCD    134793416
        0x08005b10:    08080808    ....    DCD    134744072
        0x08005b14:    28280808    ..((    DCD    673712136
        0x08005b18:    08082808    .(..    DCD    134752264
        0x08005b1c:    28080808    ...(    DCD    671614984
        0x08005b20:    08082828    ((..    DCD    134752296
        0x08005b24:    38380848    H.88    DCD    943196232
        0x08005b28:    08080808    ....    DCD    134744072
        0x08005b2c:    080808c8    ....    DCD    134744264
        0x08005b30:    c8c80808    ....    DCD    3368552456
        0x08005b34:    282828c8    .(((    DCD    673720520
        0x08005b38:    08c8c808    ....    DCD    147376136
        0x08005b3c:    08080808    ....    DCD    134744072
        0x08005b40:    08080808    ....    DCD    134744072
        0x08005b44:    48480808    ..HH    DCD    1212680200
        0x08005b48:    c8c80808    ....    DCD    3368552456
        0x08005b4c:    383808c8    ..88    DCD    943196360
        0x08005b50:    08080808    ....    DCD    134744072
        0x08005b54:    08484808    .HH.    DCD    138954760
        0x08005b58:    08080808    ....    DCD    134744072
        0x08005b5c:    48082828    ((.H    DCD    1208494120
        0x08005b60:    08084848    HH..    DCD    134760520
        0x08005b64:    08282808    .((.    DCD    136849416
        0x08005b68:    08080808    ....    DCD    134744072
        0x08005b6c:    c8080808    ....    DCD    3355969544
        0x08005b70:    0c080808    ....    DCD    201852936
        0x08005b74:    42420206    ..BB    DCD    1111622150
        0x08005b78:    08080c06    ....    DCD    134745094
        0x08005b7c:    38380808    ..88    DCD    943196168
        0x08005b80:    10181808    ....    DCD    270014472
        0x08005b84:    10101010    ....    DCD    269488144
        0x08005b88:    48081818    ...H    DCD    1208490008
        0x08005b8c:    08282808    .((.    DCD    136849416
        0x08005b90:    08084848    HH..    DCD    134760520
        0x08005b94:    08080808    ....    DCD    134744072
        0x08005b98:    08080808    ....    DCD    134744072
        0x08005b9c:    08282808    .((.    DCD    136849416
        0x08005ba0:    38080808    ...8    DCD    940050440
        0x08005ba4:    08686838    8hh.    DCD    141060152
        0x08005ba8:    08080808    ....    DCD    134744072
        0x08005bac:    08082808    .(..    DCD    134752264
        0x08005bb0:    08080808    ....    DCD    134744072
        0x08005bb4:    48084808    .H.H    DCD    1208502280
        0x08005bb8:    08080848    H...    DCD    134744136
        0x08005bbc:    48080808    ...H    DCD    1208485896
        0x08005bc0:    08080848    H...    DCD    134744136
        0x08005bc4:    68080808    ...h    DCD    1745356808
        0x08005bc8:    08080868    h...    DCD    134744168
        0x08005bcc:    08080808    ....    DCD    134744072
        0x08005bd0:    28280808    ..((    DCD    673712136
        0x08005bd4:    08080808    ....    DCD    134744072
        0x08005bd8:    c8c8c808    ....    DCD    3368601608
        0x08005bdc:    08080808    ....    DCD    134744072
        0x08005be0:    38280808    ..(8    DCD    942147592
        0x08005be4:    28080838    8..(    DCD    671615032
        0x08005be8:    08080808    ....    DCD    134744072
        0x08005bec:    08080808    ....    DCD    134744072
        0x08005bf0:    08282828    (((.    DCD    136849448
        0x08005bf4:    08080808    ....    DCD    134744072
        0x08005bf8:    08080808    ....    DCD    134744072
        0x08005bfc:    68080808    ...h    DCD    1745356808
        0x08005c00:    c8c80868    h...    DCD    3368552552
        0x08005c04:    080808c8    ....    DCD    134744264
        0x08005c08:    080808c8    ....    DCD    134744264
        0x08005c0c:    08282808    .((.    DCD    136849416
        0x08005c10:    0c080808    ....    DCD    201852936
        0x08005c14:    02020604    ....    DCD    33687044
        0x08005c18:    484c0c06    ..LH    DCD    1212943366
        0x08005c1c:    0c080808    ....    DCD    201852936
        0x08005c20:    02020604    ....    DCD    33687044
        0x08005c24:    680c0c06    ...h    DCD    1745619974
        0x08005c28:    28280868    h.((    DCD    673712232
        0x08005c2c:    08080828    (...    DCD    134744104
        0x08005c30:    68080808    ...h    DCD    1745356808
        0x08005c34:    08086868    hh..    DCD    134768744
        0x08005c38:    0808c8c8    ....    DCD    134793416
        0x08005c3c:    08080808    ....    DCD    134744072
        0x08005c40:    28280808    ..((    DCD    673712136
        0x08005c44:    08082828    ((..    DCD    134752296
        0x08005c48:    28080808    ...(    DCD    671614984
        0x08005c4c:    08082828    ((..    DCD    134752296
        0x08005c50:    38382848    H(88    DCD    943204424
        0x08005c54:    08080808    ....    DCD    134744072
        0x08005c58:    000808c8    ....    DCD    526536
        0x08005c5c:    0000        ..      DCW    0
    GroundImg
        0x08005c5e:    cccc        ..      DCW    52428
        0x08005c60:    3c3c3ccc    .<<<    DCD    1010580684
        0x08005c64:    0ccccc0c    ....    DCD    214748172
        0x08005c68:    0c0c0c0c    ....    DCD    202116108
        0x08005c6c:    0c0c0c0c    ....    DCD    202116108
        0x08005c70:    6c6c0c0c    ..ll    DCD    1819020300
        0x08005c74:    cccc0c0c    ....    DCD    3435924492
        0x08005c78:    3c3c2ccc    .,<<    DCD    1010576588
        0x08005c7c:    0c0c0c0c    ....    DCD    202116108
        0x08005c80:    0c6c6c0c    .ll.    DCD    208432140
        0x08005c84:    0c0c0c0c    ....    DCD    202116108
        0x08005c88:    6c0c3c2c    ,<.l    DCD    1812741164
        0x08005c8c:    0c0c6c6c    ll..    DCD    202140780
        0x08005c90:    0c3c3c0c    .<<.    DCD    205274124
        0x08005c94:    0c0c0c0c    ....    DCD    202116108
        0x08005c98:    cc0c0c0c    ....    DCD    3423341580
        0x08005c9c:    0c0c0c8c    ....    DCD    202116236
        0x08005ca0:    6c2c0c0c    ..,l    DCD    1814825996
        0x08005ca4:    0c0c0c2c    ,...    DCD    202116140
        0x08005ca8:    3c3c2c0c    .,<<    DCD    1010576396
        0x08005cac:    0c0c0c2c    ,...    DCD    202116140
        0x08005cb0:    0c0c0c0c    ....    DCD    202116108
        0x08005cb4:    6c0c0c0c    ...l    DCD    1812728844
        0x08005cb8:    0c3c3c6c    l<<.    DCD    205274220
        0x08005cbc:    0c2c6c6c    ll,.    DCD    204237932
        0x08005cc0:    0c0c0c0c    ....    DCD    202116108
        0x08005cc4:    0c0c0c0c    ....    DCD    202116108
        0x08005cc8:    0c2c2c0c    .,,.    DCD    204221452
        0x08005ccc:    3c0c0c0c    ...<    DCD    1007422476
        0x08005cd0:    0c2c2c3c    <,,.    DCD    204221500
        0x08005cd4:    0c0c0c0c    ....    DCD    202116108
        0x08005cd8:    0c2c3c0c    .<,.    DCD    204225548
        0x08005cdc:    0c0c0c0c    ....    DCD    202116108
        0x08005ce0:    6c0c6c0c    .l.l    DCD    1812753420
        0x08005ce4:    0c0c0c6c    l...    DCD    202116204
        0x08005ce8:    6c0c0c0c    ...l    DCD    1812728844
        0x08005cec:    0c0c0c6c    l...    DCD    202116204
        0x08005cf0:    6c0c0c0c    ...l    DCD    1812728844
        0x08005cf4:    0c0c0c6c    l...    DCD    202116204
        0x08005cf8:    0c0c0c0c    ....    DCD    202116108
        0x08005cfc:    3c2c0c0c    ..,<    DCD    1009519628
        0x08005d00:    0c0c0c2c    ,...    DCD    202116140
        0x08005d04:    cccccc0c    ....    DCD    3435973644
        0x08005d08:    0c0c0d0d    ....    DCD    202116365
        0x08005d0c:    3c3c0c0c    ..<<    DCD    1010568204
        0x08005d10:    3c0c0c3c    <..<    DCD    1007422524
        0x08005d14:    0c0c0d2c    ,...    DCD    202116396
        0x08005d18:    0c0c0c0c    ....    DCD    202116108
        0x08005d1c:    0c2c3c2c    ,<,.    DCD    204225580
        0x08005d20:    0c0d0d0c    ....    DCD    202181900
        0x08005d24:    0c0c0c0c    ....    DCD    202116108
        0x08005d28:    6c0c0c0c    ...l    DCD    1812728844
        0x08005d2c:    cccd0c6c    l...    DCD    3435990124
        0x08005d30:    0c0c0ccc    ....    DCD    202116300
        0x08005d34:    0c0ccccc    ....    DCD    202165452
        0x08005d38:    0d3d3c0c    .<=.    DCD    222116876
        0x08005d3c:    0c0c0c0c    ....    DCD    202116108
        0x08005d40:    0c0c0c0c    ....    DCD    202116108
        0x08005d44:    6d6c0c0c    ..lm    DCD    1835797516
        0x08005d48:    0c0c0c0c    ....    DCD    202116108
        0x08005d4c:    0c0c0c0c    ....    DCD    202116108
        0x08005d50:    6c0c0c0c    ...l    DCD    1812728844
        0x08005d54:    3c2c0c6c    l.,<    DCD    1009519724
        0x08005d58:    0c0c0c2c    ,...    DCD    202116140
        0x08005d5c:    6c0c0c0c    ...l    DCD    1812728844
        0x08005d60:    0c0c6c6c    ll..    DCD    202140780
        0x08005d64:    0c0ccccc    ....    DCD    202165452
        0x08005d68:    0c0c0c0c    ....    DCD    202116108
        0x08005d6c:    2c2c0c0c    ..,,    DCD    741084172
        0x08005d70:    0c0c3c2c    ,<..    DCD    202128428
        0x08005d74:    2c0c0c0c    ...,    DCD    738987020
        0x08005d78:    4c0c2c3c    <,.L    DCD    1275866172
        0x08005d7c:    3c3c3c6c    l<<<    DCD    1010580588
        0x08005d80:    4c0c0c0c    ...L    DCD    1275857932
        0x08005d84:    0c0ccccc    ....    DCD    202165452
        0x08005d88:    cccc0c0c    ....    DCD    3435924492
        0x08005d8c:    2c3c3ccc    .<<,    DCD    742145228
        0x08005d90:    0ccccc0c    ....    DCD    214748172
        0x08005d94:    0c0c0c0c    ....    DCD    202116108
        0x08005d98:    0c0c0c0c    ....    DCD    202116108
        0x08005d9c:    6c6c0c0c    ..ll    DCD    1819020300
        0x08005da0:    cccc0c0c    ....    DCD    3435924492
        0x08005da4:    3c3c3ccc    .<<<    DCD    1010580684
        0x08005da8:    0c0c0c0c    ....    DCD    202116108
        0x08005dac:    0c6c6c0c    .ll.    DCD    208432140
        0x08005db0:    0c0c0c0c    ....    DCD    202116108
        0x08005db4:    6c0c2c2c    ,,.l    DCD    1812737068
        0x08005db8:    0c0c6c6c    ll..    DCD    202140780
        0x08005dbc:    0c2c3c0c    .<,.    DCD    204225548
        0x08005dc0:    0c0c0c0c    ....    DCD    202116108
        0x08005dc4:    cccc0c0c    ....    DCD    3435924492
        0x08005dc8:    0e0c0c0c    ....    DCD    235670540
        0x08005dcc:    67630306    ..cg    DCD    1734542086
        0x08005dd0:    0c0c0c0e    ....    DCD    202116110
        0x08005dd4:    3c3c3c0c    .<<<    DCD    1010580492
        0x08005dd8:    18181c0c    ....    DCD    404233228
        0x08005ddc:    18181818    ....    DCD    404232216
        0x08005de0:    6c6c1c18    ..ll    DCD    1819024408
        0x08005de4:    0c2c3c0c    .<,.    DCD    204225548
        0x08005de8:    0c0c6c6c    ll..    DCD    202140780
        0x08005dec:    0c0c0c0c    ....    DCD    202116108
        0x08005df0:    0c0c0c0c    ....    DCD    202116108
        0x08005df4:    0c2c2c0c    .,,.    DCD    204221452
        0x08005df8:    3c0c0c0c    ...<    DCD    1007422476
        0x08005dfc:    0c6c6c3c    <ll.    DCD    208432188
        0x08005e00:    0c0c0c0c    ....    DCD    202116108
        0x08005e04:    0c0c3c2c    ,<..    DCD    202128428
        0x08005e08:    0c0c0c0c    ....    DCD    202116108
        0x08005e0c:    6c0c6c6c    ll.l    DCD    1812753516
        0x08005e10:    0c0c0c6c    l...    DCD    202116204
        0x08005e14:    6c0c0c0c    ...l    DCD    1812728844
        0x08005e18:    0c0c0c6c    l...    DCD    202116204
        0x08005e1c:    6c0c0c0c    ...l    DCD    1812728844
        0x08005e20:    0c0c0c6c    l...    DCD    202116204
        0x08005e24:    0c0c0c0c    ....    DCD    202116108
        0x08005e28:    3c3c0c0c    ..<<    DCD    1010568204
        0x08005e2c:    0c0c0c0c    ....    DCD    202116108
        0x08005e30:    cccccc0c    ....    DCD    3435973644
        0x08005e34:    0c0c0c0c    ....    DCD    202116108
        0x08005e38:    3c3c0c0c    ..<<    DCD    1010568204
        0x08005e3c:    3c2c0c3c    <.,<    DCD    1009519676
        0x08005e40:    0c0c0c0c    ....    DCD    202116108
        0x08005e44:    0c0c0c0c    ....    DCD    202116108
        0x08005e48:    0c2c3c3c    <<,.    DCD    204225596
        0x08005e4c:    0c0c0c0c    ....    DCD    202116108
        0x08005e50:    0c0c0c0c    ....    DCD    202116108
        0x08005e54:    6c6c0c0c    ..ll    DCD    1819020300
        0x08005e58:    cccccc6c    l...    DCD    3435973740
        0x08005e5c:    cc0c0ccc    ....    DCD    3423341772
        0x08005e60:    0c0c0ccc    ....    DCD    202116300
        0x08005e64:    0c3c3c2c    ,<<.    DCD    205274156
        0x08005e68:    0e0c0c0c    ....    DCD    235670540
        0x08005e6c:    03030706    ....    DCD    50530054
        0x08005e70:    6c6c6c06    .lll    DCD    1819044870
        0x08005e74:    0e0c0c0c    ....    DCD    235670540
        0x08005e78:    03030706    ....    DCD    50530054
        0x08005e7c:    6c0c0c06    ...l    DCD    1812728838
        0x08005e80:    3c3c0c6c    l.<<    DCD    1010568300
        0x08005e84:    0c0c0c2c    ,...    DCD    202116140
        0x08005e88:    6c0c0c0c    ...l    DCD    1812728844
        0x08005e8c:    cc0c6c6c    ll..    DCD    3423366252
        0x08005e90:    0c0ccccc    ....    DCD    202165452
        0x08005e94:    0c0c0c0c    ....    DCD    202116108
        0x08005e98:    2c3c0c0c    ..<,    DCD    742132748
        0x08005e9c:    0c0c3c3c    <<..    DCD    202128444
        0x08005ea0:    3c0c0c0c    ...<    DCD    1007422476
        0x08005ea4:    6c0c2c3c    <,.l    DCD    1812737084
        0x08005ea8:    3c3c3c6c    l<<<    DCD    1010580588
        0x08005eac:    cc0c0c0c    ....    DCD    3423341580
        0x08005eb0:    0c0c0ccc    ....    DCD    202116300
        0x08005eb4:    000c0c0c    ....    DCD    789516
        0x08005eb8:    00000000    ....    DCD    0
        0x08005ebc:    00000000    ....    DCD    0
        0x08005ec0:    00000000    ....    DCD    0
        0x08005ec4:    00000000    ....    DCD    0
        0x08005ec8:    00000000    ....    DCD    0
        0x08005ecc:    00000000    ....    DCD    0
        0x08005ed0:    00000000    ....    DCD    0
        0x08005ed4:    00000000    ....    DCD    0
        0x08005ed8:    00000000    ....    DCD    0
        0x08005edc:    00000000    ....    DCD    0
        0x08005ee0:    00000000    ....    DCD    0
        0x08005ee4:    00000000    ....    DCD    0
        0x08005ee8:    00000000    ....    DCD    0
        0x08005eec:    00000000    ....    DCD    0
        0x08005ef0:    00000000    ....    DCD    0
        0x08005ef4:    00000000    ....    DCD    0
        0x08005ef8:    00000000    ....    DCD    0
        0x08005efc:    00000000    ....    DCD    0
        0x08005f00:    00000000    ....    DCD    0
        0x08005f04:    00000000    ....    DCD    0
        0x08005f08:    00000000    ....    DCD    0
        0x08005f0c:    00000000    ....    DCD    0
        0x08005f10:    00000000    ....    DCD    0
        0x08005f14:    00000000    ....    DCD    0
        0x08005f18:    00000000    ....    DCD    0
        0x08005f1c:    00000000    ....    DCD    0
        0x08005f20:    00000000    ....    DCD    0
        0x08005f24:    00000000    ....    DCD    0
        0x08005f28:    00000000    ....    DCD    0
        0x08005f2c:    00000000    ....    DCD    0
        0x08005f30:    00000000    ....    DCD    0
        0x08005f34:    00000000    ....    DCD    0
        0x08005f38:    00000000    ....    DCD    0
        0x08005f3c:    00000000    ....    DCD    0
        0x08005f40:    00000000    ....    DCD    0
        0x08005f44:    00000000    ....    DCD    0
        0x08005f48:    00000000    ....    DCD    0
        0x08005f4c:    00000000    ....    DCD    0
        0x08005f50:    00000000    ....    DCD    0
        0x08005f54:    00000000    ....    DCD    0
        0x08005f58:    00000000    ....    DCD    0
        0x08005f5c:    00000000    ....    DCD    0
        0x08005f60:    00000000    ....    DCD    0
        0x08005f64:    00000000    ....    DCD    0
        0x08005f68:    00000000    ....    DCD    0
        0x08005f6c:    00000000    ....    DCD    0
        0x08005f70:    00000000    ....    DCD    0
        0x08005f74:    00000000    ....    DCD    0
        0x08005f78:    00000000    ....    DCD    0
        0x08005f7c:    00000000    ....    DCD    0
        0x08005f80:    00000000    ....    DCD    0
        0x08005f84:    00000000    ....    DCD    0
        0x08005f88:    00000000    ....    DCD    0
        0x08005f8c:    00000000    ....    DCD    0
        0x08005f90:    00000000    ....    DCD    0
        0x08005f94:    00000000    ....    DCD    0
        0x08005f98:    00000000    ....    DCD    0
        0x08005f9c:    00000000    ....    DCD    0
        0x08005fa0:    00000000    ....    DCD    0
        0x08005fa4:    00000000    ....    DCD    0
        0x08005fa8:    00000000    ....    DCD    0
        0x08005fac:    00000000    ....    DCD    0
        0x08005fb0:    00000000    ....    DCD    0
        0x08005fb4:    00000000    ....    DCD    0
        0x08005fb8:    00000000    ....    DCD    0
        0x08005fbc:    00000000    ....    DCD    0
        0x08005fc0:    00000000    ....    DCD    0
        0x08005fc4:    00000000    ....    DCD    0
        0x08005fc8:    00000000    ....    DCD    0
        0x08005fcc:    00000000    ....    DCD    0
        0x08005fd0:    00000000    ....    DCD    0
        0x08005fd4:    00000000    ....    DCD    0
        0x08005fd8:    00000000    ....    DCD    0
        0x08005fdc:    00000000    ....    DCD    0
        0x08005fe0:    00000000    ....    DCD    0
        0x08005fe4:    00000000    ....    DCD    0
        0x08005fe8:    00000000    ....    DCD    0
        0x08005fec:    00000000    ....    DCD    0
        0x08005ff0:    00000000    ....    DCD    0
        0x08005ff4:    00000000    ....    DCD    0
        0x08005ff8:    00000000    ....    DCD    0
        0x08005ffc:    00000000    ....    DCD    0
        0x08006000:    00000000    ....    DCD    0
        0x08006004:    00000000    ....    DCD    0
        0x08006008:    00000000    ....    DCD    0
        0x0800600c:    00000000    ....    DCD    0
        0x08006010:    00000000    ....    DCD    0
        0x08006014:    00000000    ....    DCD    0
        0x08006018:    00000000    ....    DCD    0
        0x0800601c:    00000000    ....    DCD    0
        0x08006020:    00000000    ....    DCD    0
        0x08006024:    00000000    ....    DCD    0
        0x08006028:    00000000    ....    DCD    0
        0x0800602c:    00000000    ....    DCD    0
        0x08006030:    00000000    ....    DCD    0
        0x08006034:    00000000    ....    DCD    0
        0x08006038:    00000000    ....    DCD    0
        0x0800603c:    00000000    ....    DCD    0
        0x08006040:    00000000    ....    DCD    0
        0x08006044:    00000000    ....    DCD    0
        0x08006048:    00000000    ....    DCD    0
        0x0800604c:    00000000    ....    DCD    0
        0x08006050:    00000000    ....    DCD    0
        0x08006054:    00000000    ....    DCD    0
        0x08006058:    00000000    ....    DCD    0
        0x0800605c:    0000        ..      DCW    0
    Cactus1
        0x0800605e:    f0e0        ..      DCW    61664
        0x08006060:    00ffff00    ....    DCD    16776960
        0x08006064:    8703f0f8    ....    DCD    2265182456
        0x08006068:    07ffff07    ....    DCD    134217479
        0x0800606c:    00018347    G...    DCD    99143
        0x08006070:    00010100    ....    DCD    65792
        0x08006074:    00000000    ....    DCD    0
        0x08006078:    00000000    ....    DCD    0
        0x0800607c:    00000000    ....    DCD    0
        0x08006080:    00000000    ....    DCD    0
        0x08006084:    00000000    ....    DCD    0
        0x08006088:    00000000    ....    DCD    0
        0x0800608c:    00000000    ....    DCD    0
        0x08006090:    00000000    ....    DCD    0
        0x08006094:    00000000    ....    DCD    0
        0x08006098:    00000000    ....    DCD    0
        0x0800609c:    00000000    ....    DCD    0
        0x080060a0:    00000000    ....    DCD    0
        0x080060a4:    00000000    ....    DCD    0
        0x080060a8:    00000000    ....    DCD    0
        0x080060ac:    00000000    ....    DCD    0
        0x080060b0:    00000000    ....    DCD    0
        0x080060b4:    00000000    ....    DCD    0
        0x080060b8:    00000000    ....    DCD    0
        0x080060bc:    00000000    ....    DCD    0
        0x080060c0:    00000000    ....    DCD    0
        0x080060c4:    00000000    ....    DCD    0
        0x080060c8:    00000000    ....    DCD    0
        0x080060cc:    00000000    ....    DCD    0
        0x080060d0:    00000000    ....    DCD    0
        0x080060d4:    00000000    ....    DCD    0
        0x080060d8:    00000000    ....    DCD    0
        0x080060dc:    0000        ..      DCW    0
    CACTUS_1
        0x080060de:    f0f0        ..      DCW    61680
        0x080060e0:    00ffff00    ....    DCD    16776960
        0x080060e4:    0703f0f0    ....    DCD    117698800
        0x080060e8:    06ffff86    ....    DCD    117440390
        0x080060ec:    0103        ..      DCW    259
    CACTUS_2
        0x080060ee:    e0f0        ..      DCW    57584
        0x080060f0:    80feff00    ....    DCD    2164195072
        0x080060f4:    7c0000fc    ...|    DCD    2080375036
        0x080060f8:    00fffec0    ....    DCD    16776896
        0x080060fc:    0703fc80    ....    DCD    117701760
        0x08006100:    01ffff06    ....    DCD    33554182
        0x08006104:    90909010    ....    DCD    2425393168
        0x08006108:    03ffff00    ....    DCD    67108608
        0x0800610c:    0103        ..      DCW    259
    CACTUS_3
        0x0800610e:    e0f0        ..      DCW    57584
        0x08006110:    80feff00    ....    DCD    2164195072
        0x08006114:    fefc00fc    ....    DCD    4277928188
        0x08006118:    00ffff00    ....    DCD    16776960
        0x0800611c:    fe00f0f8    ....    DCD    4261474552
        0x08006120:    fefffe80    ....    DCD    4278189696
        0x08006124:    1713fc78    x...    DCD    387185784
        0x08006128:    01ffff06    ....    DCD    33554182
        0x0800612c:    37131010    ...7    DCD    923996176
        0x08006130:    08ffff04    ....    DCD    150994692
        0x08006134:    1010170f    ....    DCD    269489935
        0x08006138:    03ffff01    ....    DCD    67108609
        0x0800613c:    1113        ..      DCW    4371
    CACTUS_4
        0x0800613e:    e0f0        ..      DCW    57584
        0x08006140:    00feff00    ....    DCD    16711424
        0x08006144:    00c000f0    ....    DCD    12583152
        0x08006148:    3c60feff    ..`<    DCD    1012989695
        0x0800614c:    7c000080    ...|    DCD    2080374912
        0x08006150:    00fffec0    ....    DCD    16776896
        0x08006154:    4743f8f0    ..CG    DCD    1195636976
        0x08006158:    26ffff86    ...&    DCD    654311302
        0x0800615c:    0427a0a3    ..'.    DCD    69705891
        0x08006160:    0800ffff    ....    DCD    134283263
        0x08006164:    002f88ff    ../.    DCD    3115263
        0x08006168:    06ffff00    ....    DCD    117440256
        0x0800616c:    2123        #!      DCW    8483
    RESTART
        0x0800616e:    fffc        ..      DCW    65532
        0x08006170:    ffffffff    ....    DCD    4294967295
        0x08006174:    3f3f3f3f    ????    DCD    1061109567
        0x08006178:    ff3f1f0f    ..?.    DCD    4282326799
        0x0800617c:    3f3fffff    ..??    DCD    1061158911
        0x08006180:    ffffffff    ....    DCD    4294967295
        0x08006184:    fffffcff    ....    DCD    4294966527
        0x08006188:    00ffffff    ....    DCD    16777215
        0x0800618c:    7e7e7e00    .~~~    DCD    2122219008
        0x08006190:    7f7e7c78    x|~.    DCD    2138995832
        0x08006194:    007e7f7f    ..~.    DCD    8290175
        0x08006198:    ffffff00    ....    DCD    4294967040
        0x0800619c:    ff3fffff    ..?.    DCD    4282384383
        0x080061a0:    ffffffff    ....    DCD    4294967295
        0x080061a4:    fcfcfcfc    ....    DCD    4244438268
        0x080061a8:    fcfcfcfc    ....    DCD    4244438268
        0x080061ac:    fcfcfcfc    ....    DCD    4244438268
        0x080061b0:    ffffffff    ....    DCD    4294967295
        0x080061b4:    3fff        .?      DCW    16383
    START
        0x080061b6:    0000        ..      DCW    0
        0x080061b8:    00000000    ....    DCD    0
        0x080061bc:    f0e00000    ....    DCD    4041211904
        0x080061c0:    30303030    0000    DCD    808464432
        0x080061c4:    f0f00000    ....    DCD    4042260480
        0x080061c8:    f0f0c0c0    ....    DCD    4042309824
        0x080061cc:    f0f00000    ....    DCD    4042260480
        0x080061d0:    6070b0b0    ..p`    DCD    1617998000
        0x080061d4:    f0e00000    ....    DCD    4041211904
        0x080061d8:    e0f03030    00..    DCD    3773837360
        0x080061dc:    f0f00000    ....    DCD    4042260480
        0x080061e0:    30f0f030    0..0    DCD    821096496
        0x080061e4:    e000e0f0    ....    DCD    3758153968
        0x080061e8:    909090e0    ....    DCD    2425393376
        0x080061ec:    00009090    ....    DCD    37008
        0x080061f0:    00000000    ....    DCD    0
        0x080061f4:    00000000    ....    DCD    0
        0x080061f8:    00000000    ....    DCD    0
        0x080061fc:    00000000    ....    DCD    0
        0x08006200:    00000000    ....    DCD    0
        0x08006204:    80800000    ....    DCD    2155872256
        0x08006208:    00000000    ....    DCD    0
        0x0800620c:    00000000    ....    DCD    0
        0x08006210:    00000000    ....    DCD    0
        0x08006214:    00000000    ....    DCD    0
        0x08006218:    00000000    ....    DCD    0
        0x0800621c:    00000000    ....    DCD    0
        0x08006220:    00000000    ....    DCD    0
        0x08006224:    00000000    ....    DCD    0
        0x08006228:    00000000    ....    DCD    0
        0x0800622c:    00000000    ....    DCD    0
        0x08006230:    00000000    ....    DCD    0
        0x08006234:    00000000    ....    DCD    0
        0x08006238:    00000000    ....    DCD    0
        0x0800623c:    f7f30000    ....    DCD    4159897600
        0x08006240:    e6f63636    66..    DCD    3874895414
        0x08006244:    07f7f000    ....    DCD    133689344
        0x08006248:    3737c1c1    ..77    DCD    926400961
        0x0800624c:    c707c0f0    ....    DCD    3339174128
        0x08006250:    373730e0    .077    DCD    926363872
        0x08006254:    0703c0e0    ....    DCD    117686496
        0x08006258:    b3f7f606    ....    DCD    3019372038
        0x0800625c:    e7f7b0b0    ....    DCD    3891769520
        0x08006260:    00f7f700    ....    DCD    16250624
        0x08006264:    03f0f707    ....    DCD    66123527
        0x08006268:    3434f4e3    ..44    DCD    875885795
        0x0800626c:    0000e4f4    ....    DCD    58612
        0x08006270:    00000000    ....    DCD    0
        0x08006274:    00000000    ....    DCD    0
        0x08006278:    00000000    ....    DCD    0
        0x0800627c:    0c101000    ....    DCD    202379264
        0x08006280:    12141404    ....    DCD    303305732
        0x08006284:    10111111    ....    DCD    269553937
        0x08006288:    12121211    ....    DCD    303174161
        0x0800628c:    00101c14    ....    DCD    1055764
        0x08006290:    00000000    ....    DCD    0
        0x08006294:    00000000    ....    DCD    0
        0x08006298:    00000000    ....    DCD    0
        0x0800629c:    00000000    ....    DCD    0
        0x080062a0:    00000000    ....    DCD    0
        0x080062a4:    00000000    ....    DCD    0
        0x080062a8:    00000000    ....    DCD    0
        0x080062ac:    00000000    ....    DCD    0
        0x080062b0:    00000000    ....    DCD    0
        0x080062b4:    00000000    ....    DCD    0
        0x080062b8:    00000000    ....    DCD    0
        0x080062bc:    0f0f0000    ....    DCD    252641280
        0x080062c0:    070f0c0c    ....    DCD    118426636
        0x080062c4:    000f0f00    ....    DCD    986880
        0x080062c8:    00000f0f    ....    DCD    3855
        0x080062cc:    03000f0f    ....    DCD    50335503
        0x080062d0:    0c0c0c07    ....    DCD    202116103
        0x080062d4:    00000307    ....    DCD    775
        0x080062d8:    010f0f00    ....    DCD    17764096
        0x080062dc:    0e0e0101    ....    DCD    235798785
        0x080062e0:    0c0f0700    ....    DCD    202311424
        0x080062e4:    0007070c    ....    DCD    460556
        0x080062e8:    00000f0f    ....    DCD    3855
        0x080062ec:    00000f0f    ....    DCD    3855
        0x080062f0:    00000000    ....    DCD    0
        0x080062f4:    00000000    ....    DCD    0
        0x080062f8:    00000000    ....    DCD    0
        0x080062fc:    00000000    ....    DCD    0
        0x08006300:    00000000    ....    DCD    0
        0x08006304:    00000000    ....    DCD    0
        0x08006308:    00000000    ....    DCD    0
        0x0800630c:    00000000    ....    DCD    0
        0x08006310:    00000000    ....    DCD    0
        0x08006314:    00000000    ....    DCD    0
        0x08006318:    80000000    ....    DCD    2147483648
        0x0800631c:    a0a060c0    .`..    DCD    2694865088
        0x08006320:    888890a0    ....    DCD    2290651296
        0x08006324:    9090888c    ....    DCD    2425391244
        0x08006328:    80c0a0b0    ....    DCD    2160107696
        0x0800632c:    00000000    ....    DCD    0
        0x08006330:    00000000    ....    DCD    0
        0x08006334:    00000000    ....    DCD    0
        0x08006338:    00000000    ....    DCD    0
        0x0800633c:    00000000    ....    DCD    0
        0x08006340:    40000000    ...@    DCD    1073741824
        0x08006344:    40400040    @.@@    DCD    1077936192
        0x08006348:    40404040    @@@@    DCD    1077952576
        0x0800634c:    00404040    @@@.    DCD    4210752
        0x08006350:    fcfcf000    ....    DCD    4244434944
        0x08006354:    fcfc9c9c    ....    DCD    4244413596
        0x08006358:    fcfcfcfc    ....    DCD    4244438268
        0x0800635c:    fcfcfcfc    ....    DCD    4244438268
        0x08006360:    0000f0f0    ....    DCD    61680
        0x08006364:    00000000    ....    DCD    0
        0x08006368:    00000000    ....    DCD    0
        0x0800636c:    00000000    ....    DCD    0
        0x08006370:    00000000    ....    DCD    0
        0x08006374:    00000000    ....    DCD    0
        0x08006378:    00000000    ....    DCD    0
        0x0800637c:    00000000    ....    DCD    0
        0x08006380:    00000000    ....    DCD    0
        0x08006384:    80000000    ....    DCD    2147483648
        0x08006388:    00000000    ....    DCD    0
        0x0800638c:    00000000    ....    DCD    0
        0x08006390:    00000000    ....    DCD    0
        0x08006394:    00000000    ....    DCD    0
        0x08006398:    00000000    ....    DCD    0
        0x0800639c:    00000000    ....    DCD    0
        0x080063a0:    00000000    ....    DCD    0
        0x080063a4:    00800000    ....    DCD    8388608
        0x080063a8:    00000000    ....    DCD    0
        0x080063ac:    00000000    ....    DCD    0
        0x080063b0:    00000000    ....    DCD    0
        0x080063b4:    00000000    ....    DCD    0
        0x080063b8:    00000000    ....    DCD    0
        0x080063bc:    80000000    ....    DCD    2147483648
        0x080063c0:    00080000    ....    DCD    524288
        0x080063c4:    08080800    ....    DCD    134744064
        0x080063c8:    08080808    ....    DCD    134744072
        0x080063cc:    80000008    ....    DCD    2147483656
        0x080063d0:    ffffff80    ....    DCD    4294967168
        0x080063d4:    7fffffff    ....    DCD    2147483647
        0x080063d8:    4f4f4f7f    .OOO    DCD    1330597759
        0x080063dc:    0f4f4f4f    OOO.    DCD    256855887
        0x080063e0:    00000f0f    ....    DCD    3855
        0x080063e4:    00000000    ....    DCD    0
        0x080063e8:    00000000    ....    DCD    0
        0x080063ec:    00000000    ....    DCD    0
        0x080063f0:    00000000    ....    DCD    0
        0x080063f4:    00000000    ....    DCD    0
        0x080063f8:    00000000    ....    DCD    0
        0x080063fc:    00000000    ....    DCD    0
        0x08006400:    00808000    ....    DCD    8421376
        0x08006404:    ffff0000    ....    DCD    4294901760
        0x08006408:    0000ffff    ....    DCD    65535
        0x0800640c:    00008080    ....    DCD    32896
        0x08006410:    fe000000    ....    DCD    4261412864
        0x08006414:    0000fefe    ....    DCD    65278
        0x08006418:    0000e0f0    ....    DCD    57584
        0x0800641c:    f0000000    ....    DCD    4026531840
        0x08006420:    0000f0f8    ....    DCD    61688
        0x08006424:    ffffffff    ....    DCD    4294967295
        0x08006428:    80800000    ....    DCD    2155872256
        0x0800642c:    00000080    ....    DCD    128
        0x08006430:    00000000    ....    DCD    0
        0x08006434:    00000000    ....    DCD    0
        0x08006438:    00000000    ....    DCD    0
        0x0800643c:    ff000000    ....    DCD    4278190080
        0x08006440:    e0e0f8f8    ....    DCD    3772840184
        0x08006444:    c0808080    ....    DCD    3229646976
        0x08006448:    f8f8f8e0    ....    DCD    4177066208
        0x0800644c:    fffefefe    ....    DCD    4294901502
        0x08006450:    ffffffff    ....    DCD    4294967295
        0x08006454:    18ffffff    ....    DCD    419430399
        0x08006458:    00383808    .88.    DCD    3684360
        0x0800645c:    00000000    ....    DCD    0
        0x08006460:    00000000    ....    DCD    0
        0x08006464:    00000000    ....    DCD    0
        0x08006468:    00000000    ....    DCD    0
        0x0800646c:    00000000    ....    DCD    0
        0x08006470:    00000000    ....    DCD    0
        0x08006474:    00000000    ....    DCD    0
        0x08006478:    00000000    ....    DCD    0
        0x0800647c:    00000000    ....    DCD    0
        0x08006480:    01ffff00    ....    DCD    33554176
        0x08006484:    ffff0000    ....    DCD    4294901760
        0x08006488:    0000ffff    ....    DCD    65535
        0x0800648c:    fc00ffff    ....    DCD    4227923967
        0x08006490:    ff0004fe    ....    DCD    4278191358
        0x08006494:    0c0cffff    ....    DCD    202178559
        0x08006498:    f000838f    ....    DCD    4026565519
        0x0800649c:    9f8000f0    ....    DCD    2675966192
        0x080064a0:    70707f3f    ?.pp    DCD    1886420799
        0x080064a4:    ffffffff    ....    DCD    4294967295
        0x080064a8:    ff000000    ....    DCD    4278190080
        0x080064ac:    000000ff    ....    DCD    255
        0x080064b0:    00000000    ....    DCD    0
        0x080064b4:    00000000    ....    DCD    0
        0x080064b8:    00000000    ....    DCD    0
        0x080064bc:    03000000    ....    DCD    50331648
        0x080064c0:    1f1f0f07    ....    DCD    522129159
        0x080064c4:    ffff7f7f    ....    DCD    4294934399
        0x080064c8:    ffffffff    ....    DCD    4294967295
        0x080064cc:    ffffffff    ....    DCD    4294967295
        0x080064d0:    7f7fffff    ....    DCD    2139095039
        0x080064d4:    0007171f    ....    DCD    464671
        0x080064d8:    00000000    ....    DCD    0
        0x080064dc:    00000000    ....    DCD    0
        0x080064e0:    00000000    ....    DCD    0
        0x080064e4:    00000000    ....    DCD    0
        0x080064e8:    00000000    ....    DCD    0
        0x080064ec:    00000000    ....    DCD    0
        0x080064f0:    00000000    ....    DCD    0
        0x080064f4:    00000000    ....    DCD    0
        0x080064f8:    00000000    ....    DCD    0
        0x080064fc:    00000000    ....    DCD    0
        0x08006500:    07030100    ....    DCD    117637376
        0x08006504:    ffff0707    ....    DCD    4294903559
        0x08006508:    0303ffff    ....    DCD    50593791
        0x0800650c:    03000001    ....    DCD    50331649
        0x08006510:    ff0c0e07    ....    DCD    4278980103
        0x08006514:    0000ffff    ....    DCD    65535
        0x08006518:    ff203f1f    .? .    DCD    4280303391
        0x0800651c:    0f1f20ff    . ..    DCD    253698303
        0x08006520:    00000000    ....    DCD    0
        0x08006524:    ffffffff    ....    DCD    4294967295
        0x08006528:    01030303    ....    DCD    16974595
        0x0800652c:    00000000    ....    DCD    0
        0x08006530:    00000000    ....    DCD    0
        0x08006534:    82820000    ....    DCD    2189557760
        0x08006538:    22020282    ..."    DCD    570557058
        0x0800653c:    02222222    """.    DCD    35791394
        0x08006540:    82820202    ....    DCD    2189558274
        0x08006544:    01000000    ....    DCD    16777216
        0x08006548:    079f9fff    ....    DCD    127901695
        0x0800654c:    07010107    ....    DCD    117506311
        0x08006550:    8080ff07    ....    DCD    2155937543
        0x08006554:    02020000    ....    DCD    33685504
        0x08006558:    02c20202    ....    DCD    46268930
        0x0800655c:    02020202    ....    DCD    33686018
        0x08006560:    82828282    ....    DCD    2189591170
        0x08006564:    32320202    ..22    DCD    842138114
        0x08006568:    02022232    2"..    DCD    33694258
        0x0800656c:    00000202    ....    DCD    514
        0x08006570:    00000000    ....    DCD    0
        0x08006574:    00000000    ....    DCD    0
        0x08006578:    00000000    ....    DCD    0
        0x0800657c:    42420200    ..BB    DCD    1111622144
        0x08006580:    02020202    ....    DCD    33686018
        0x08006584:    0f0f0002    ....    DCD    252641282
        0x08006588:    01000f0f    ....    DCD    16781071
        0x0800658c:    11110101    ....    DCD    286327041
        0x08006590:    0f000101    ....    DCD    251658497
        0x08006594:    01000f0f    ....    DCD    16781071
        0x08006598:    0f001131    1...    DCD    251662641
        0x0800659c:    0d0d000f    ....    DCD    218955791
        0x080065a0:    10111101    ....    DCD    269553921
        0x080065a4:    1f1f1f1f    ....    DCD    522133279
        0x080065a8:    010d0010    ....    DCD    17629200
        0x080065ac:    01010101    ....    DCD    16843009
        0x080065b0:    010d0d01    ....    DCD    17632513
        0x080065b4:    0000        ..      DCW    0
    HOME
        0x080065b6:    0000        ..      DCW    0
        0x080065b8:    00000000    ....    DCD    0
        0x080065bc:    00000000    ....    DCD    0
        0x080065c0:    00000000    ....    DCD    0
        0x080065c4:    c0808000    ....    DCD    3229646848
        0x080065c8:    3870f0e0    ..p8    DCD    946925792
        0x080065cc:    3c1e1e3c    <..<    DCD    1008606780
        0x080065d0:    e0f07038    8p..    DCD    3773853752
        0x080065d4:    008080c0    ....    DCD    8421568
        0x080065d8:    00000000    ....    DCD    0
        0x080065dc:    00000000    ....    DCD    0
        0x080065e0:    00000000    ....    DCD    0
        0x080065e4:    00000000    ....    DCD    0
        0x080065e8:    80800000    ....    DCD    2155872256
        0x080065ec:    70f0e0c0    ...p    DCD    1894834368
        0x080065f0:    0e1c3c78    x<..    DCD    236731512
        0x080065f4:    0103070f    ....    DCD    16975631
        0x080065f8:    00000001    ....    DCD    1
        0x080065fc:    00000000    ....    DCD    0
        0x08006600:    01000000    ....    DCD    16777216
        0x08006604:    0f070301    ....    DCD    252117761
        0x08006608:    783c1c0e    ..<x    DCD    2017205262
        0x0800660c:    c0e0f070    p...    DCD    3235967088
        0x08006610:    00008080    ....    DCD    32896
        0x08006614:    0c000000    ....    DCD    201326592
        0x08006618:    03070f0e    ....    DCD    50794254
        0x0800661c:    00f0f1f1    ....    DCD    15790577
        0x08006620:    00000000    ....    DCD    0
        0x08006624:    00000000    ....    DCD    0
        0x08006628:    00000000    ....    DCD    0
        0x0800662c:    00000000    ....    DCD    0
        0x08006630:    00000000    ....    DCD    0
        0x08006634:    00000000    ....    DCD    0
        0x08006638:    00000000    ....    DCD    0
        0x0800663c:    f1f1f000    ....    DCD    4059164672
        0x08006640:    0e0f0703    ....    DCD    235865859
        0x08006644:    0000000c    ....    DCD    12
        0x08006648:    00000000    ....    DCD    0
        0x0800664c:    00ffffff    ....    DCD    16777215
        0x08006650:    00000000    ....    DCD    0
        0x08006654:    f0000000    ....    DCD    4026531840
        0x08006658:    7070f0f0    ..pp    DCD    1886449904
        0x0800665c:    70707070    pppp    DCD    1886417008
        0x08006660:    f0f07070    pp..    DCD    4042289264
        0x08006664:    000000f0    ....    DCD    240
        0x08006668:    00000000    ....    DCD    0
        0x0800666c:    ffffff00    ....    DCD    4294967040
        0x08006670:    00000000    ....    DCD    0
        0x08006674:    00000000    ....    DCD    0
        0x08006678:    00000000    ....    DCD    0
        0x0800667c:    00ffffff    ....    DCD    16777215
        0x08006680:    00000000    ....    DCD    0
        0x08006684:    ff000000    ....    DCD    4278190080
        0x08006688:    0000ffff    ....    DCD    65535
        0x0800668c:    00000000    ....    DCD    0
        0x08006690:    ffff0000    ....    DCD    4294901760
        0x08006694:    000000ff    ....    DCD    255
        0x08006698:    00000000    ....    DCD    0
        0x0800669c:    ffffff00    ....    DCD    4294967040
        0x080066a0:    00000000    ....    DCD    0
        0x080066a4:    00000000    ....    DCD    0
        0x080066a8:    00000000    ....    DCD    0
        0x080066ac:    e0ffffff    ....    DCD    3774873599
        0x080066b0:    e0e0e0e0    ....    DCD    3772834016
        0x080066b4:    ffe0e0e0    ....    DCD    4292927712
        0x080066b8:    e0e0ffff    ....    DCD    3772841983
        0x080066bc:    e0e0e0e0    ....    DCD    3772834016
        0x080066c0:    ffffe0e0    ....    DCD    4294959328
        0x080066c4:    e0e0e0ff    ....    DCD    3772834047
        0x080066c8:    e0e0e0e0    ....    DCD    3772834016
        0x080066cc:    ffffffe0    ....    DCD    4294967264
        0x080066d0:    00000000    ....    DCD    0
        0x080066d4:    0000        ..      DCW    0
    TEMP
        0x080066d6:    0000        ..      DCW    0
        0x080066d8:    00000000    ....    DCD    0
        0x080066dc:    00000000    ....    DCD    0
        0x080066e0:    e0000000    ....    DCD    3758096384
        0x080066e4:    3c78f8f0    ..x<    DCD    1014561008
        0x080066e8:    1e1e1c1c    ....    DCD    505289756
        0x080066ec:    3c3c1c1e    ..<<    DCD    1010572318
        0x080066f0:    c0f0f8f8    ....    DCD    3237017848
        0x080066f4:    00000000    ....    DCD    0
        0x080066f8:    00000000    ....    DCD    0
        0x080066fc:    00000000    ....    DCD    0
        0x08006700:    00000000    ....    DCD    0
        0x08006704:    00000000    ....    DCD    0
        0x08006708:    00000000    ....    DCD    0
        0x0800670c:    00000000    ....    DCD    0
        0x08006710:    ff000000    ....    DCD    4278190080
        0x08006714:    0000ffff    ....    DCD    65535
        0x08006718:    f8f8f000    ....    DCD    4177063936
        0x0800671c:    0000f0f8    ....    DCD    61688
        0x08006720:    ffffffff    ....    DCD    4294967295
        0x08006724:    5a5a6a00    .jZZ    DCD    1515874816
        0x08006728:    00000000    ....    DCD    0
        0x0800672c:    00000000    ....    DCD    0
        0x08006730:    00000000    ....    DCD    0
        0x08006734:    00000000    ....    DCD    0
        0x08006738:    00000000    ....    DCD    0
        0x0800673c:    00000000    ....    DCD    0
        0x08006740:    ff000000    ....    DCD    4278190080
        0x08006744:    0000ffff    ....    DCD    65535
        0x08006748:    ffffff00    ....    DCD    4294967040
        0x0800674c:    0000ffff    ....    DCD    65535
        0x08006750:    ffffffff    ....    DCD    4294967295
        0x08006754:    6b6b6b00    .kkk    DCD    1802201856
        0x08006758:    00000000    ....    DCD    0
        0x0800675c:    00000000    ....    DCD    0
        0x08006760:    00000000    ....    DCD    0
        0x08006764:    00000000    ....    DCD    0
        0x08006768:    00000000    ....    DCD    0
        0x0800676c:    c0000000    ....    DCD    3221225472
        0x08006770:    3ffefcf0    ...?    DCD    1073675504
        0x08006774:    e0c0070f    ....    DCD    3770681103
        0x08006778:    fffffff0    ....    DCD    4294967280
        0x0800677c:    e0e0ffff    ....    DCD    3772841983
        0x08006780:    3f1f07c3    ...?    DCD    1058998211
        0x08006784:    80e0f8fc    ....    DCD    2162227452
        0x08006788:    00000000    ....    DCD    0
        0x0800678c:    00000000    ....    DCD    0
        0x08006790:    00000000    ....    DCD    0
        0x08006794:    00000000    ....    DCD    0
        0x08006798:    00000000    ....    DCD    0
        0x0800679c:    3f000000    ...?    DCD    1056964608
        0x080067a0:    80f0ffff    ....    DCD    2163277823
        0x080067a4:    7f3f1f00    ..?.    DCD    2134843136
        0x080067a8:    ffffffff    ....    DCD    4294967295
        0x080067ac:    7fffffff    ....    DCD    2147483647
        0x080067b0:    c0000e3f    ?...    DCD    3221229119
        0x080067b4:    1fffffff    ....    DCD    536870911
        0x080067b8:    00000000    ....    DCD    0
        0x080067bc:    00000000    ....    DCD    0
        0x080067c0:    00000000    ....    DCD    0
        0x080067c4:    00000000    ....    DCD    0
        0x080067c8:    00000000    ....    DCD    0
        0x080067cc:    00000000    ....    DCD    0
        0x080067d0:    0f070300    ....    DCD    252117760
        0x080067d4:    3c3c1e1f    ..<<    DCD    1010572831
        0x080067d8:    79783838    88xy    DCD    2037921848
        0x080067dc:    3c383878    x88<    DCD    1010317432
        0x080067e0:    0f0f1e3c    <...    DCD    252649020
        0x080067e4:    00000107    ....    DCD    263
        0x080067e8:    00000000    ....    DCD    0
        0x080067ec:    00000000    ....    DCD    0
        0x080067f0:    00000000    ....    DCD    0
        0x080067f4:    0000        ..      DCW    0
    GAME
        0x080067f6:    0000        ..      DCW    0
        0x080067f8:    00000000    ....    DCD    0
        0x080067fc:    80800000    ....    DCD    2155872256
        0x08006800:    8080c080    ....    DCD    2155921536
        0x08006804:    00000000    ....    DCD    0
        0x08006808:    00000000    ....    DCD    0
        0x0800680c:    00000000    ....    DCD    0
        0x08006810:    00000000    ....    DCD    0
        0x08006814:    80000000    ....    DCD    2147483648
        0x08006818:    80c08080    ....    DCD    2160099456
        0x0800681c:    00008080    ....    DCD    32896
        0x08006820:    00000000    ....    DCD    0
        0x08006824:    00000000    ....    DCD    0
        0x08006828:    fcf8e000    ....    DCD    4244168704
        0x0800682c:    03071f3e    >...    DCD    50798398
        0x08006830:    07030303    ....    DCD    117637891
        0x08006834:    000c1e0f    ....    DCD    794127
        0x08006838:    1e0c0000    ....    DCD    504102912
        0x0800683c:    1e1e1e1e    ....    DCD    505290270
        0x08006840:    1e1e1e1e    ....    DCD    505290270
        0x08006844:    0f0f1e1e    ....    DCD    252648990
        0x08006848:    c3c38307    ....    DCD    3284370183
        0x0800684c:    7e1f8fc7    ...~    DCD    2115997639
        0x08006850:    00c0f0fc    ....    DCD    12644604
        0x08006854:    e0000000    ....    DCD    3758096384
        0x08006858:    017fffff    ....    DCD    25165823
        0x0800685c:    70702000    . pp    DCD    1886396416
        0x08006860:    fcfefefc    ....    DCD    4244569852
        0x08006864:    00207070    pp .    DCD    2125936
        0x08006868:    00000000    ....    DCD    0
        0x0800686c:    00000000    ....    DCD    0
        0x08006870:    e0c00000    ....    DCD    3770679296
        0x08006874:    e0f0f0f0    ....    DCD    3773886704
        0x08006878:    0f0f07c3    ....    DCD    252643267
        0x0800687c:    0003070f    ....    DCD    198415
        0x08006880:    feffff03    ....    DCD    4278189827
        0x08006884:    0f0000c0    ....    DCD    251658432
        0x08006888:    00f8ffff    ....    DCD    16318463
        0x0800688c:    00000000    ....    DCD    0
        0x08006890:    01030301    ....    DCD    16974593
        0x08006894:    f8f0e000    ....    DCD    4176535552
        0x08006898:    78787878    xxxx    DCD    2021161080
        0x0800689c:    78787878    xxxx    DCD    2021161080
        0x080068a0:    79787878    xxxy    DCD    2037938296
        0x080068a4:    81f3f3fb    ....    DCD    2180248571
        0x080068a8:    00000000    ....    DCD    0
        0x080068ac:    00000000    ....    DCD    0
        0x080068b0:    fffffc00    ....    DCD    4294966272
        0x080068b4:    0000001f    ....    DCD    31
        0x080068b8:    3f1f0701    ...?    DCD    1058998017
        0x080068bc:    f070787c    |xp.    DCD    4033902716
        0x080068c0:    3c787070    ppx<    DCD    1014526064
        0x080068c4:    01070f1f    ....    DCD    17239839
        0x080068c8:    00000000    ....    DCD    0
        0x080068cc:    00000000    ....    DCD    0
        0x080068d0:    00000000    ....    DCD    0
        0x080068d4:    1f0f0300    ....    DCD    521077504
        0x080068d8:    7070783e    >xpp    DCD    1886419006
        0x080068dc:    7c7070f0    .pp|    DCD    2087743728
        0x080068e0:    01071f3f    ?...    DCD    17243967
        0x080068e4:    00000000    ....    DCD    0
        0x080068e8:    00000000    ....    DCD    0
        0x080068ec:    00000000    ....    DCD    0
        0x080068f0:    00000000    ....    DCD    0
        0x080068f4:    00000000    ....    DCD    0
        0x080068f8:    00000000    ....    DCD    0
        0x080068fc:    00000000    ....    DCD    0
        0x08006900:    00000000    ....    DCD    0
        0x08006904:    00000000    ....    DCD    0
        0x08006908:    00000000    ....    DCD    0
        0x0800690c:    00000000    ....    DCD    0
        0x08006910:    00000000    ....    DCD    0
        0x08006914:    0000        ..      DCW    0
    PLAYER
        0x08006916:    0000        ..      DCW    0
        0x08006918:    00000000    ....    DCD    0
        0x0800691c:    00000000    ....    DCD    0
        0x08006920:    00000000    ....    DCD    0
        0x08006924:    ff000000    ....    DCD    4278190080
        0x08006928:    e0707cff    .|p.    DCD    3765468415
        0x0800692c:    000080c0    ....    DCD    32960
        0x08006930:    00000000    ....    DCD    0
        0x08006934:    00000000    ....    DCD    0
        0x08006938:    00000000    ....    DCD    0
        0x0800693c:    00000000    ....    DCD    0
        0x08006940:    00000000    ....    DCD    0
        0x08006944:    ff000000    ....    DCD    4278190080
        0x08006948:    000000ff    ....    DCD    255
        0x0800694c:    fc1f0701    ....    DCD    4229891841
        0x08006950:    00000020     ...    DCD    32
        0x08006954:    00000000    ....    DCD    0
        0x08006958:    00000000    ....    DCD    0
        0x0800695c:    80800000    ....    DCD    2155872256
        0x08006960:    c0c0c0c0    ....    DCD    3233857728
        0x08006964:    ffc080c0    ....    DCD    4290805952
        0x08006968:    000000ff    ....    DCD    255
        0x0800696c:    01000000    ....    DCD    16777216
        0x08006970:    00000000    ....    DCD    0
        0x08006974:    00000000    ....    DCD    0
        0x08006978:    18000000    ....    DCD    402653184
        0x0800697c:    ffff7f7e    ~...    DCD    4294934398
        0x08006980:    7fffffff    ....    DCD    2147483647
        0x08006984:    1f1f3f7f    .?..    DCD    522141567
        0x08006988:    00000003    ....    DCD    3
        0x0800698c:    00000000    ....    DCD    0
        0x08006990:    00000000    ....    DCD    0
        0x08006994:    0000        ..      DCW    0
    SETTING
        0x08006996:    0000        ..      DCW    0
        0x08006998:    00000000    ....    DCD    0
        0x0800699c:    e0c08000    ....    DCD    3770712064
        0x080069a0:    008080c0    ....    DCD    8421568
        0x080069a4:    00000000    ....    DCD    0
        0x080069a8:    fff8c000    ....    DCD    4294492160
        0x080069ac:    3f07073f    ?..?    DCD    1057425215
        0x080069b0:    00c0f8ff    ....    DCD    12646655
        0x080069b4:    00000000    ....    DCD    0
        0x080069b8:    c0808000    ....    DCD    3229646848
        0x080069bc:    0080c0e0    ....    DCD    8437984
        0x080069c0:    00000000    ....    DCD    0
        0x080069c4:    00000000    ....    DCD    0
        0x080069c8:    02000000    ....    DCD    33554432
        0x080069cc:    f97f1f0f    ....    DCD    4185857807
        0x080069d0:    070383e1    ....    DCD    117670881
        0x080069d4:    070e0e07    ....    DCD    118361607
        0x080069d8:    01030307    ....    DCD    16974599
        0x080069dc:    00000000    ....    DCD    0
        0x080069e0:    07030301    ....    DCD    117637889
        0x080069e4:    070e0e07    ....    DCD    118361607
        0x080069e8:    e1830307    ....    DCD    3783459591
        0x080069ec:    071f7ff9    ....    DCD    119504889
        0x080069f0:    00000002    ....    DCD    2
        0x080069f4:    e0e00000    ....    DCD    3772776448
        0x080069f8:    707070e0    .ppp    DCD    1886417120
        0x080069fc:    1f3f3838    88?.    DCD    524236856
        0x08006a00:    00000107    ....    DCD    263
        0x08006a04:    e0000000    ....    DCD    3758096384
        0x08006a08:    1e3cf8f0    ..<.    DCD    507312368
        0x08006a0c:    0e0e0e0e    ....    DCD    235802126
        0x08006a10:    f0f83c1e    .<..    DCD    4042800158
        0x08006a14:    000000e0    ....    DCD    224
        0x08006a18:    07010000    ....    DCD    117506048
        0x08006a1c:    38383f1f    .?88    DCD    943210271
        0x08006a20:    e0707070    ppp.    DCD    3765465200
        0x08006a24:    0707e0e0    ....    DCD    117956832
        0x08006a28:    0e0e0e07    ....    DCD    235802119
        0x08006a2c:    f8fc1c1c    ....    DCD    4177271836
        0x08006a30:    000080e0    ....    DCD    32992
        0x08006a34:    07000000    ....    DCD    117440512
        0x08006a38:    783c1f0f    ..<x    DCD    2017206031
        0x08006a3c:    70707070    pppp    DCD    1886417008
        0x08006a40:    0f1f3c78    x<..    DCD    253705336
        0x08006a44:    00000007    ....    DCD    7
        0x08006a48:    e0800000    ....    DCD    3766484992
        0x08006a4c:    1c1c7cf8    .|..    DCD    471629048
        0x08006a50:    070e0e0e    ....    DCD    118361614
        0x08006a54:    00000707    ....    DCD    1799
        0x08006a58:    40000000    ...@    DCD    1073741824
        0x08006a5c:    9ffefcf0    ....    DCD    2684288240
        0x08006a60:    e0c0c187    ....    DCD    3770728839
        0x08006a64:    e0f070e0    .p..    DCD    3773853920
        0x08006a68:    80c0c0e0    ....    DCD    2160115936
        0x08006a6c:    00000000    ....    DCD    0
        0x08006a70:    e0c0c080    ....    DCD    3770728576
        0x08006a74:    e07070e0    .pp.    DCD    3765465312
        0x08006a78:    87c1c0e0    ....    DCD    2277621984
        0x08006a7c:    f0f8fe9f    ....    DCD    4042849951
        0x08006a80:    00000040    @...    DCD    64
        0x08006a84:    00000000    ....    DCD    0
        0x08006a88:    00000000    ....    DCD    0
        0x08006a8c:    07030100    ....    DCD    117637376
        0x08006a90:    00010103    ....    DCD    65795
        0x08006a94:    00000000    ....    DCD    0
        0x08006a98:    ff1f0300    ....    DCD    4280222464
        0x08006a9c:    fce0e0fc    ....    DCD    4242596092
        0x08006aa0:    00031fff    ....    DCD    204799
        0x08006aa4:    00000000    ....    DCD    0
        0x08006aa8:    03030100    ....    DCD    50528512
        0x08006aac:    00010307    ....    DCD    66311
        0x08006ab0:    00000000    ....    DCD    0
        0x08006ab4:    0000        ..      DCW    0
    INFORMATION
        0x08006ab6:    0000        ..      DCW    0
        0x08006ab8:    00000000    ....    DCD    0
        0x08006abc:    e0c08000    ....    DCD    3770712064
        0x08006ac0:    383870f0    .p88    DCD    943223024
        0x08006ac4:    0e0e1c1c    ....    DCD    235805724
        0x08006ac8:    07070e0e    ....    DCD    117902862
        0x08006acc:    07070707    ....    DCD    117901063
        0x08006ad0:    0e0e0707    ....    DCD    235800327
        0x08006ad4:    1c1c0e0e    ....    DCD    471600654
        0x08006ad8:    f0703838    88p.    DCD    4033886264
        0x08006adc:    0080c0e0    ....    DCD    8437984
        0x08006ae0:    00000000    ....    DCD    0
        0x08006ae4:    00000000    ....    DCD    0
        0x08006ae8:    3efcf0e0    ...>    DCD    1056764128
        0x08006aec:    0103070f    ....    DCD    16975631
        0x08006af0:    00000000    ....    DCD    0
        0x08006af4:    00000000    ....    DCD    0
        0x08006af8:    00000000    ....    DCD    0
        0x08006afc:    1e080000    ....    DCD    503840768
        0x08006b00:    001c3e3e    >>..    DCD    1850942
        0x08006b04:    00000000    ....    DCD    0
        0x08006b08:    00000000    ....    DCD    0
        0x08006b0c:    0f070301    ....    DCD    252117761
        0x08006b10:    e0f0fc3e    >...    DCD    3773889598
        0x08006b14:    fff80000    ....    DCD    4294443008
        0x08006b18:    00000fff    ....    DCD    4095
        0x08006b1c:    00000000    ....    DCD    0
        0x08006b20:    00000000    ....    DCD    0
        0x08006b24:    00000000    ....    DCD    0
        0x08006b28:    1c1c3818    .8..    DCD    471611416
        0x08006b2c:    fefedc1c    ....    DCD    4278115356
        0x08006b30:    0000003e    >...    DCD    62
        0x08006b34:    00000000    ....    DCD    0
        0x08006b38:    00000000    ....    DCD    0
        0x08006b3c:    00000000    ....    DCD    0
        0x08006b40:    ff0f0000    ....    DCD    4279173120
        0x08006b44:    ff1ff8ff    ....    DCD    4280285439
        0x08006b48:    0000f0ff    ....    DCD    61695
        0x08006b4c:    00000000    ....    DCD    0
        0x08006b50:    00000000    ....    DCD    0
        0x08006b54:    00000000    ....    DCD    0
        0x08006b58:    c0000000    ....    DCD    3221225472
        0x08006b5c:    033ffffc    ..?.    DCD    54525948
        0x08006b60:    00000000    ....    DCD    0
        0x08006b64:    00000000    ....    DCD    0
        0x08006b68:    00000000    ....    DCD    0
        0x08006b6c:    00000000    ....    DCD    0
        0x08006b70:    fff00000    ....    DCD    4293918720
        0x08006b74:    00001fff    ....    DCD    8191
        0x08006b78:    7c3f0f07    ..?|    DCD    2084507399
        0x08006b7c:    80c0e0f0    ....    DCD    2160124144
        0x08006b80:    00000000    ....    DCD    0
        0x08006b84:    00000000    ....    DCD    0
        0x08006b88:    7f7c0000    ..|.    DCD    2138832896
        0x08006b8c:    38383b7f    .;88    DCD    943209343
        0x08006b90:    00181c38    8...    DCD    1580088
        0x08006b94:    00000000    ....    DCD    0
        0x08006b98:    00000000    ....    DCD    0
        0x08006b9c:    f0e0c080    ....    DCD    4041261184
        0x08006ba0:    070f3f7c    |?..    DCD    118439804
        0x08006ba4:    00000000    ....    DCD    0
        0x08006ba8:    00000000    ....    DCD    0
        0x08006bac:    07030100    ....    DCD    117637376
        0x08006bb0:    3c1c0e0f    ...<    DCD    1008471567
        0x08006bb4:    70703838    88pp    DCD    1886402616
        0x08006bb8:    e0e0e070    p...    DCD    3772833904
        0x08006bbc:    e0e0e0e0    ....    DCD    3772834016
        0x08006bc0:    70e0e0e0    ...p    DCD    1893785824
        0x08006bc4:    38387070    pp88    DCD    943222896
        0x08006bc8:    0f0e1c3c    <...    DCD    252582972
        0x08006bcc:    00010307    ....    DCD    66311
        0x08006bd0:    00000000    ....    DCD    0
        0x08006bd4:    0000        ..      DCW    0
    LEFT
        0x08006bd6:    0000        ..      DCW    0
        0x08006bd8:    c0800000    ....    DCD    3229614080
        0x08006bdc:    f8f0f0e0    ....    DCD    4176539872
        0x08006be0:    000000fc    ....    DCD    252
        0x08006be4:    00000000    ....    DCD    0
        0x08006be8:    03010000    ....    DCD    50397184
        0x08006bec:    1f0f0707    ....    DCD    521078535
        0x08006bf0:    0000003f    ?...    DCD    63
        0x08006bf4:    0000        ..      DCW    0
    RIGHT
        0x08006bf6:    0000        ..      DCW    0
        0x08006bf8:    fc000000    ....    DCD    4227858432
        0x08006bfc:    e0e0f0f8    ....    DCD    3772838136
        0x08006c00:    000080c0    ....    DCD    32960
        0x08006c04:    00000000    ....    DCD    0
        0x08006c08:    3f000000    ...?    DCD    1056964608
        0x08006c0c:    07070f1f    ....    DCD    117903135
        0x08006c10:    00000103    ....    DCD    259
        0x08006c14:    0000        ..      DCW    0
    SIGNAL
        0x08006c16:    0400        ..      DCW    1024
        0x08006c18:    fc24140c    ..$.    DCD    4230222860
        0x08006c1c:    040c1424    $...    DCD    67900452
        0x08006c20:    00000000    ....    DCD    0
        0x08006c24:    80800000    ....    DCD    2155872256
        0x08006c28:    00000000    ....    DCD    0
        0x08006c2c:    7f000000    ....    DCD    2130706432
        0x08006c30:    00606000    .``.    DCD    6316032
        0x08006c34:    7e007878    xx.~    DCD    2113960056
        0x08006c38:    7f7f007e    ~...    DCD    2139029630
        0x08006c3c:    00000000    ....    DCD    0
        0x08006c40:    00000000    ....    DCD    0
        0x08006c44:    00000000    ....    DCD    0
        0x08006c48:    00000000    ....    DCD    0
        0x08006c4c:    00000000    ....    DCD    0
        0x08006c50:    00000000    ....    DCD    0
    .conststring
        0x08006c54:    74747562    butt    DCD    1953789282
        0x08006c58:    00006e6f    on..    DCD    28271
    .conststring
        0x08006c5c:    756f6c63    clou    DCD    1970236515
        0x08006c60:    00003164    d1..    DCD    12644
        0x08006c64:    74636163    cact    DCD    1952670051
        0x08006c68:    00317375    us1.    DCD    3240821
        0x08006c6c:    756f6c63    clou    DCD    1970236515
        0x08006c70:    00003264    d2..    DCD    12900
        0x08006c74:    74636163    cact    DCD    1952670051
        0x08006c78:    00327375    us2.    DCD    3306357
        0x08006c7c:    756f7267    grou    DCD    1970238055
        0x08006c80:    0000646e    nd..    DCD    25710
        0x08006c84:    6f6e6964    dino    DCD    1869506916
        0x08006c88:    72756173    saur    DCD    1920295283
        0x08006c8c:    00000000    ....    DCD    0
    Region$$Table$$Base
        0x08006c90:    08006cb0    .l..    DCD    134245552
        0x08006c94:    20000000    ...     DCD    536870912
        0x08006c98:    000007a4    ....    DCD    1956
        0x08006c9c:    08000278    x...    DCD    134218360
        0x08006ca0:    08006f54    To..    DCD    134246228
        0x08006ca4:    200007a4    ...     DCD    536872868
        0x08006ca8:    00002e24    $...    DCD    11812
        0x08006cac:    080039b8    .9..    DCD    134232504
    Region$$Table$$Limit

** Section #2 'RW_IRAM1' (SHT_PROGBITS) [SHF_ALLOC + SHF_WRITE]
    Size   : 676 bytes (alignment 4)
    Address: 0x20000000


** Section #3 'RW_IRAM1' (SHT_NOBITS) [SHF_ALLOC + SHF_WRITE]
    Size   : 11812 bytes (alignment 8)
    Address: 0x200007a4


** Section #4 '.debug_abbrev' (SHT_PROGBITS)
    Size   : 1476 bytes


** Section #5 '.debug_frame' (SHT_PROGBITS)
    Size   : 8696 bytes


** Section #6 '.debug_info' (SHT_PROGBITS)
    Size   : 128920 bytes


** Section #7 '.debug_line' (SHT_PROGBITS)
    Size   : 46360 bytes


** Section #8 '.debug_loc' (SHT_PROGBITS)
    Size   : 20500 bytes


** Section #9 '.debug_macinfo' (SHT_PROGBITS)
    Size   : 264128 bytes


** Section #10 '.debug_pubnames' (SHT_PROGBITS)
    Size   : 10799 bytes


** Section #11 '.symtab' (SHT_SYMTAB)
    Size   : 23824 bytes (alignment 4)
    String table #12 '.strtab'
    Last local symbol no. 1045


** Section #12 '.strtab' (SHT_STRTAB)
    Size   : 20264 bytes


** Section #13 '.note' (SHT_NOTE)
    Size   : 28 bytes (alignment 4)


** Section #14 '.comment' (SHT_PROGBITS)
    Size   : 103404 bytes


** Section #15 '.shstrtab' (SHT_STRTAB)
    Size   : 156 bytes


address     size       variable name                            type
0x20000790  0x4        g_ptOledDev                              PDisplayDevice

address     size       variable name                            type
0x2000078c  0x4        rt_current_thread                        pointer to rt_thread

address     size       variable name                            type
0x20000780  0x4        rt_interrupt_from_thread                 rt_uint32_t

address     size       variable name                            type
0x20000784  0x4        rt_interrupt_to_thread                   rt_uint32_t

address     size       variable name                            type
0x20000788  0x4        rt_thread_switch_interrupt_flag          rt_uint32_t

address     size       variable name                            type
0x20000778  0x4        g_ptCurrentElement                       pointer to Element

address     size       variable name                            type
0x20000774  0x4        g_ptCurrentVisitor                       pointer to Visitor

address     size       variable name                            type
0x2000072c  0x18       g_tGameElement                           Element
0x2000072c  0x4        g_tGameElement.FirstKeyShortPress        pointer to function 
0x20000730  0x4        g_tGameElement.SecondKeyShortPress       pointer to function 
0x20000734  0x4        g_tGameElement.ThirdKeyShortPress        pointer to function 
0x20000738  0x4        g_tGameElement.FirstKeyLongPress         pointer to function 
0x2000073c  0x4        g_tGameElement.SecondKeyLongPress        pointer to function 
0x20000740  0x4        g_tGameElement.ThirdKeyLongPress         pointer to function 

address     size       variable name                            type
0x20000744  0x18       g_tMenuElement                           Element
0x20000744  0x4        g_tMenuElement.FirstKeyShortPress        pointer to function 
0x20000748  0x4        g_tMenuElement.SecondKeyShortPress       pointer to function 
0x2000074c  0x4        g_tMenuElement.ThirdKeyShortPress        pointer to function 
0x20000750  0x4        g_tMenuElement.FirstKeyLongPress         pointer to function 
0x20000754  0x4        g_tMenuElement.SecondKeyLongPress        pointer to function 
0x20000758  0x4        g_tMenuElement.ThirdKeyLongPress         pointer to function 

address     size       variable name                            type
0x20000714  0x18       g_tPlayerElement                         Element
0x20000714  0x4        g_tPlayerElement.FirstKeyShortPress      pointer to function 
0x20000718  0x4        g_tPlayerElement.SecondKeyShortPress     pointer to function 
0x2000071c  0x4        g_tPlayerElement.ThirdKeyShortPress      pointer to function 
0x20000720  0x4        g_tPlayerElement.FirstKeyLongPress       pointer to function 
0x20000724  0x4        g_tPlayerElement.SecondKeyLongPress      pointer to function 
0x20000728  0x4        g_tPlayerElement.ThirdKeyLongPress       pointer to function 

address     size       variable name                            type
0x20000768  0x4        g_tVisitorKEY1LongPress                  Visitor
0x20000768  0x4        g_tVisitorKEY1LongPress.visit            pointer to function 

address     size       variable name                            type
0x2000075c  0x4        g_tVisitorKEY1ShortPress                 Visitor
0x2000075c  0x4        g_tVisitorKEY1ShortPress.visit           pointer to function 

address     size       variable name                            type
0x2000076c  0x4        g_tVisitorKEY2LongPress                  Visitor
0x2000076c  0x4        g_tVisitorKEY2LongPress.visit            pointer to function 

address     size       variable name                            type
0x20000760  0x4        g_tVisitorKEY2ShortPress                 Visitor
0x20000760  0x4        g_tVisitorKEY2ShortPress.visit           pointer to function 

address     size       variable name                            type
0x20000770  0x4        g_tVisitorKEY3LongPress                  Visitor
0x20000770  0x4        g_tVisitorKEY3LongPress.visit            pointer to function 

address     size       variable name                            type
0x20000764  0x4        g_tVisitorKEY3ShortPress                 Visitor
0x20000764  0x4        g_tVisitorKEY3ShortPress.visit           pointer to function 

address     size       variable name                            type
0x20000710  0x4        player_volume                            int

address     size       variable name                            type
0x2000070c  0x4        current_option                           pointer to Option

address     size       variable name                            type
0x20002774  0x54       g_tOptionManager                         OptionManager
0x20002774  0x4        g_tOptionManager.num                     unsigned int
0x20002778  0x50       g_tOptionManager.option_list             array[20] of pointer to Option

address     size       variable name                            type
0x20000450  0x4        enter_count                              int

address     size       variable name                            type
0x20000534  0x20       g_tMenuGraphBACK                         GraphBitMap
0x20000534  0x4        g_tMenuGraphBACK.iLeftTopX               int
0x20000538  0x4        g_tMenuGraphBACK.iLeftTopY               int
0x2000053c  0x4        g_tMenuGraphBACK.iWidth                  int
0x20000540  0x4        g_tMenuGraphBACK.iHeight                 int
0x20000544  0x4        g_tMenuGraphBACK.iCurOriginX             int
0x20000548  0x4        g_tMenuGraphBACK.iCurOriginY             int
0x2000054c  0x4        g_tMenuGraphBACK.pbuffer                 pointer to unsigned char
0x20000550  0x4        g_tMenuGraphBACK.index                   int

address     size       variable name                            type
0x20000494  0x20       g_tMenuGraphBATTERY                      GraphBitMap
0x20000494  0x4        g_tMenuGraphBATTERY.iLeftTopX            int
0x20000498  0x4        g_tMenuGraphBATTERY.iLeftTopY            int
0x2000049c  0x4        g_tMenuGraphBATTERY.iWidth               int
0x200004a0  0x4        g_tMenuGraphBATTERY.iHeight              int
0x200004a4  0x4        g_tMenuGraphBATTERY.iCurOriginX          int
0x200004a8  0x4        g_tMenuGraphBATTERY.iCurOriginY          int
0x200004ac  0x4        g_tMenuGraphBATTERY.pbuffer              pointer to unsigned char
0x200004b0  0x4        g_tMenuGraphBATTERY.index                int

address     size       variable name                            type
0x20000474  0x20       g_tMenuGraphBLUETOOTH                    GraphBitMap
0x20000474  0x4        g_tMenuGraphBLUETOOTH.iLeftTopX          int
0x20000478  0x4        g_tMenuGraphBLUETOOTH.iLeftTopY          int
0x2000047c  0x4        g_tMenuGraphBLUETOOTH.iWidth             int
0x20000480  0x4        g_tMenuGraphBLUETOOTH.iHeight            int
0x20000484  0x4        g_tMenuGraphBLUETOOTH.iCurOriginX        int
0x20000488  0x4        g_tMenuGraphBLUETOOTH.iCurOriginY        int
0x2000048c  0x4        g_tMenuGraphBLUETOOTH.pbuffer            pointer to unsigned char
0x20000490  0x4        g_tMenuGraphBLUETOOTH.index              int

address     size       variable name                            type
0x200005ac  0x20       g_tMenuGraphGAME                         GraphBitMap
0x200005ac  0x4        g_tMenuGraphGAME.iLeftTopX               int
0x200005b0  0x4        g_tMenuGraphGAME.iLeftTopY               int
0x200005b4  0x4        g_tMenuGraphGAME.iWidth                  int
0x200005b8  0x4        g_tMenuGraphGAME.iHeight                 int
0x200005bc  0x4        g_tMenuGraphGAME.iCurOriginX             int
0x200005c0  0x4        g_tMenuGraphGAME.iCurOriginY             int
0x200005c4  0x4        g_tMenuGraphGAME.pbuffer                 pointer to unsigned char
0x200005c8  0x4        g_tMenuGraphGAME.index                   int

address     size       variable name                            type
0x200004f4  0x20       g_tMenuGraphHOME                         GraphBitMap
0x200004f4  0x4        g_tMenuGraphHOME.iLeftTopX               int
0x200004f8  0x4        g_tMenuGraphHOME.iLeftTopY               int
0x200004fc  0x4        g_tMenuGraphHOME.iWidth                  int
0x20000500  0x4        g_tMenuGraphHOME.iHeight                 int
0x20000504  0x4        g_tMenuGraphHOME.iCurOriginX             int
0x20000508  0x4        g_tMenuGraphHOME.iCurOriginY             int
0x2000050c  0x4        g_tMenuGraphHOME.pbuffer                 pointer to unsigned char
0x20000510  0x4        g_tMenuGraphHOME.index                   int

address     size       variable name                            type
0x20000660  0x20       g_tMenuGraphINFORMATION                  GraphBitMap
0x20000660  0x4        g_tMenuGraphINFORMATION.iLeftTopX        int
0x20000664  0x4        g_tMenuGraphINFORMATION.iLeftTopY        int
0x20000668  0x4        g_tMenuGraphINFORMATION.iWidth           int
0x2000066c  0x4        g_tMenuGraphINFORMATION.iHeight          int
0x20000670  0x4        g_tMenuGraphINFORMATION.iCurOriginX      int
0x20000674  0x4        g_tMenuGraphINFORMATION.iCurOriginY      int
0x20000678  0x4        g_tMenuGraphINFORMATION.pbuffer          pointer to unsigned char
0x2000067c  0x4        g_tMenuGraphINFORMATION.index            int

address     size       variable name                            type
0x200004b4  0x20       g_tMenuGraphLEFT                         GraphBitMap
0x200004b4  0x4        g_tMenuGraphLEFT.iLeftTopX               int
0x200004b8  0x4        g_tMenuGraphLEFT.iLeftTopY               int
0x200004bc  0x4        g_tMenuGraphLEFT.iWidth                  int
0x200004c0  0x4        g_tMenuGraphLEFT.iHeight                 int
0x200004c4  0x4        g_tMenuGraphLEFT.iCurOriginX             int
0x200004c8  0x4        g_tMenuGraphLEFT.iCurOriginY             int
0x200004cc  0x4        g_tMenuGraphLEFT.pbuffer                 pointer to unsigned char
0x200004d0  0x4        g_tMenuGraphLEFT.index                   int

address     size       variable name                            type
0x200005e8  0x20       g_tMenuGraphPLAYER                       GraphBitMap
0x200005e8  0x4        g_tMenuGraphPLAYER.iLeftTopX             int
0x200005ec  0x4        g_tMenuGraphPLAYER.iLeftTopY             int
0x200005f0  0x4        g_tMenuGraphPLAYER.iWidth                int
0x200005f4  0x4        g_tMenuGraphPLAYER.iHeight               int
0x200005f8  0x4        g_tMenuGraphPLAYER.iCurOriginX           int
0x200005fc  0x4        g_tMenuGraphPLAYER.iCurOriginY           int
0x20000600  0x4        g_tMenuGraphPLAYER.pbuffer               pointer to unsigned char
0x20000604  0x4        g_tMenuGraphPLAYER.index                 int

address     size       variable name                            type
0x200004d4  0x20       g_tMenuGraphRIGHT                        GraphBitMap
0x200004d4  0x4        g_tMenuGraphRIGHT.iLeftTopX              int
0x200004d8  0x4        g_tMenuGraphRIGHT.iLeftTopY              int
0x200004dc  0x4        g_tMenuGraphRIGHT.iWidth                 int
0x200004e0  0x4        g_tMenuGraphRIGHT.iHeight                int
0x200004e4  0x4        g_tMenuGraphRIGHT.iCurOriginX            int
0x200004e8  0x4        g_tMenuGraphRIGHT.iCurOriginY            int
0x200004ec  0x4        g_tMenuGraphRIGHT.pbuffer                pointer to unsigned char
0x200004f0  0x4        g_tMenuGraphRIGHT.index                  int

address     size       variable name                            type
0x20000624  0x20       g_tMenuGraphSETTING                      GraphBitMap
0x20000624  0x4        g_tMenuGraphSETTING.iLeftTopX            int
0x20000628  0x4        g_tMenuGraphSETTING.iLeftTopY            int
0x2000062c  0x4        g_tMenuGraphSETTING.iWidth               int
0x20000630  0x4        g_tMenuGraphSETTING.iHeight              int
0x20000634  0x4        g_tMenuGraphSETTING.iCurOriginX          int
0x20000638  0x4        g_tMenuGraphSETTING.iCurOriginY          int
0x2000063c  0x4        g_tMenuGraphSETTING.pbuffer              pointer to unsigned char
0x20000640  0x4        g_tMenuGraphSETTING.index                int

address     size       variable name                            type
0x20000454  0x20       g_tMenuGraphSIGNAL                       GraphBitMap
0x20000454  0x4        g_tMenuGraphSIGNAL.iLeftTopX             int
0x20000458  0x4        g_tMenuGraphSIGNAL.iLeftTopY             int
0x2000045c  0x4        g_tMenuGraphSIGNAL.iWidth                int
0x20000460  0x4        g_tMenuGraphSIGNAL.iHeight               int
0x20000464  0x4        g_tMenuGraphSIGNAL.iCurOriginX           int
0x20000468  0x4        g_tMenuGraphSIGNAL.iCurOriginY           int
0x2000046c  0x4        g_tMenuGraphSIGNAL.pbuffer               pointer to unsigned char
0x20000470  0x4        g_tMenuGraphSIGNAL.index                 int

address     size       variable name                            type
0x20000570  0x20       g_tMenuGraphTEMP                         GraphBitMap
0x20000570  0x4        g_tMenuGraphTEMP.iLeftTopX               int
0x20000574  0x4        g_tMenuGraphTEMP.iLeftTopY               int
0x20000578  0x4        g_tMenuGraphTEMP.iWidth                  int
0x2000057c  0x4        g_tMenuGraphTEMP.iHeight                 int
0x20000580  0x4        g_tMenuGraphTEMP.iCurOriginX             int
0x20000584  0x4        g_tMenuGraphTEMP.iCurOriginY             int
0x20000588  0x4        g_tMenuGraphTEMP.pbuffer                 pointer to unsigned char
0x2000058c  0x4        g_tMenuGraphTEMP.index                   int

address     size       variable name                            type
0x20000514  0x20       g_tMenuGraphYES                          GraphBitMap
0x20000514  0x4        g_tMenuGraphYES.iLeftTopX                int
0x20000518  0x4        g_tMenuGraphYES.iLeftTopY                int
0x2000051c  0x4        g_tMenuGraphYES.iWidth                   int
0x20000520  0x4        g_tMenuGraphYES.iHeight                  int
0x20000524  0x4        g_tMenuGraphYES.iCurOriginX              int
0x20000528  0x4        g_tMenuGraphYES.iCurOriginY              int
0x2000052c  0x4        g_tMenuGraphYES.pbuffer                  pointer to unsigned char
0x20000530  0x4        g_tMenuGraphYES.index                    int

address     size       variable name                            type
0x200005cc  0x1c       g_tOptionGAME                            Option
0x200005cc  0x4        g_tOptionGAME.name                       pointer to char
0x200005d0  0xc        g_tOptionGAME.node                       Node
0x200005d0  0x4        g_tOptionGAME.node.parent                int
0x200005d4  0x4        g_tOptionGAME.node.first_child           int
0x200005d8  0x4        g_tOptionGAME.node.right_sibling         int
0x200005dc  0x1      * g_tOptionGAME.status                     OPTION_STATUS
0x200005e0  0x4        g_tOptionGAME.choose                     pointer to function 
0x200005e4  0x4        g_tOptionGAME.enter                      pointer to function 

address     size       variable name                            type
0x200006d4  0x1c       g_tOptionGAMEInfo                        Option
0x200006d4  0x4        g_tOptionGAMEInfo.name                   pointer to char
0x200006d8  0xc        g_tOptionGAMEInfo.node                   Node
0x200006d8  0x4        g_tOptionGAMEInfo.node.parent            int
0x200006dc  0x4        g_tOptionGAMEInfo.node.first_child       int
0x200006e0  0x4        g_tOptionGAMEInfo.node.right_sibling     int
0x200006e4  0x1      * g_tOptionGAMEInfo.status                 OPTION_STATUS
0x200006e8  0x4        g_tOptionGAMEInfo.choose                 pointer to function 
0x200006ec  0x4        g_tOptionGAMEInfo.enter                  pointer to function 

address     size       variable name                            type
0x200006b8  0x1c       g_tOptionGAMESet                         Option
0x200006b8  0x4        g_tOptionGAMESet.name                    pointer to char
0x200006bc  0xc        g_tOptionGAMESet.node                    Node
0x200006bc  0x4        g_tOptionGAMESet.node.parent             int
0x200006c0  0x4        g_tOptionGAMESet.node.first_child        int
0x200006c4  0x4        g_tOptionGAMESet.node.right_sibling      int
0x200006c8  0x1      * g_tOptionGAMESet.status                  OPTION_STATUS
0x200006cc  0x4        g_tOptionGAMESet.choose                  pointer to function 
0x200006d0  0x4        g_tOptionGAMESet.enter                   pointer to function 

address     size       variable name                            type
0x2000069c  0x1c       g_tOptionGAMEStart                       Option
0x2000069c  0x4        g_tOptionGAMEStart.name                  pointer to char
0x200006a0  0xc        g_tOptionGAMEStart.node                  Node
0x200006a0  0x4        g_tOptionGAMEStart.node.parent           int
0x200006a4  0x4        g_tOptionGAMEStart.node.first_child      int
0x200006a8  0x4        g_tOptionGAMEStart.node.right_sibling    int
0x200006ac  0x1      * g_tOptionGAMEStart.status                OPTION_STATUS
0x200006b0  0x4        g_tOptionGAMEStart.choose                pointer to function 
0x200006b4  0x4        g_tOptionGAMEStart.enter                 pointer to function 

address     size       variable name                            type
0x20000554  0x1c       g_tOptionHOME                            Option
0x20000554  0x4        g_tOptionHOME.name                       pointer to char
0x20000558  0xc        g_tOptionHOME.node                       Node
0x20000558  0x4        g_tOptionHOME.node.parent                int
0x2000055c  0x4        g_tOptionHOME.node.first_child           int
0x20000560  0x4        g_tOptionHOME.node.right_sibling         int
0x20000564  0x1      * g_tOptionHOME.status                     OPTION_STATUS
0x20000568  0x4        g_tOptionHOME.choose                     pointer to function 
0x2000056c  0x4        g_tOptionHOME.enter                      pointer to function 

address     size       variable name                            type
0x20000680  0x1c       g_tOptionINFORMATION                     Option
0x20000680  0x4        g_tOptionINFORMATION.name                pointer to char
0x20000684  0xc        g_tOptionINFORMATION.node                Node
0x20000684  0x4        g_tOptionINFORMATION.node.parent         int
0x20000688  0x4        g_tOptionINFORMATION.node.first_child    int
0x2000068c  0x4        g_tOptionINFORMATION.node.right_sibling  int
0x20000690  0x1      * g_tOptionINFORMATION.status              OPTION_STATUS
0x20000694  0x4        g_tOptionINFORMATION.choose              pointer to function 
0x20000698  0x4        g_tOptionINFORMATION.enter               pointer to function 

address     size       variable name                            type
0x20000608  0x1c       g_tOptionPLAYER                          Option
0x20000608  0x4        g_tOptionPLAYER.name                     pointer to char
0x2000060c  0xc        g_tOptionPLAYER.node                     Node
0x2000060c  0x4        g_tOptionPLAYER.node.parent              int
0x20000610  0x4        g_tOptionPLAYER.node.first_child         int
0x20000614  0x4        g_tOptionPLAYER.node.right_sibling       int
0x20000618  0x1      * g_tOptionPLAYER.status                   OPTION_STATUS
0x2000061c  0x4        g_tOptionPLAYER.choose                   pointer to function 
0x20000620  0x4        g_tOptionPLAYER.enter                    pointer to function 

address     size       variable name                            type
0x20000644  0x1c       g_tOptionSETTING                         Option
0x20000644  0x4        g_tOptionSETTING.name                    pointer to char
0x20000648  0xc        g_tOptionSETTING.node                    Node
0x20000648  0x4        g_tOptionSETTING.node.parent             int
0x2000064c  0x4        g_tOptionSETTING.node.first_child        int
0x20000650  0x4        g_tOptionSETTING.node.right_sibling      int
0x20000654  0x1      * g_tOptionSETTING.status                  OPTION_STATUS
0x20000658  0x4        g_tOptionSETTING.choose                  pointer to function 
0x2000065c  0x4        g_tOptionSETTING.enter                   pointer to function 

address     size       variable name                            type
0x20000590  0x1c       g_tOptionTEMPATURE                       Option
0x20000590  0x4        g_tOptionTEMPATURE.name                  pointer to char
0x20000594  0xc        g_tOptionTEMPATURE.node                  Node
0x20000594  0x4        g_tOptionTEMPATURE.node.parent           int
0x20000598  0x4        g_tOptionTEMPATURE.node.first_child      int
0x2000059c  0x4        g_tOptionTEMPATURE.node.right_sibling    int
0x200005a0  0x1      * g_tOptionTEMPATURE.status                OPTION_STATUS
0x200005a4  0x4        g_tOptionTEMPATURE.choose                pointer to function 
0x200005a8  0x4        g_tOptionTEMPATURE.enter                 pointer to function 

address     size       variable name                            type
0x20002720  0x54       g_tNodeTREE                              NodeManager
0x20002720  0x4        g_tNodeTREE.num                          unsigned int
0x20002724  0x50       g_tNodeTREE.node_list                    array[20] of pointer to Node

address     size       variable name                            type
0x2000044c  0x4        g_ptGame                                 PGame

address     size       variable name                            type
0x2000040c  0x20       g_tGraphRESTART                          GraphBitMap
0x2000040c  0x4        g_tGraphRESTART.iLeftTopX                int
0x20000410  0x4        g_tGraphRESTART.iLeftTopY                int
0x20000414  0x4        g_tGraphRESTART.iWidth                   int
0x20000418  0x4        g_tGraphRESTART.iHeight                  int
0x2000041c  0x4        g_tGraphRESTART.iCurOriginX              int
0x20000420  0x4        g_tGraphRESTART.iCurOriginY              int
0x20000424  0x4        g_tGraphRESTART.pbuffer                  pointer to unsigned char
0x20000428  0x4        g_tGraphRESTART.index                    int

address     size       variable name                            type
0x2000042c  0x20       g_tGraphSTART                            GraphBitMap
0x2000042c  0x4        g_tGraphSTART.iLeftTopX                  int
0x20000430  0x4        g_tGraphSTART.iLeftTopY                  int
0x20000434  0x4        g_tGraphSTART.iWidth                     int
0x20000438  0x4        g_tGraphSTART.iHeight                    int
0x2000043c  0x4        g_tGraphSTART.iCurOriginX                int
0x20000440  0x4        g_tGraphSTART.iCurOriginY                int
0x20000444  0x4        g_tGraphSTART.pbuffer                    pointer to unsigned char
0x20000448  0x4        g_tGraphSTART.index                      int

address     size       variable name                            type
0x2000270c  0x14       g_tGame                                  Game
0x2000270c  0x1      * g_tGame.eStatus                          GAME_STATUS
0x20002710  0x4        g_tGame.iHighestScore                    int
0x20002714  0x4        g_tGame.iCurrentScore                    int
0x20002718  0x4        g_tGame.iLevel                           int
0x2000271c  0x4        g_tGame.ptIterator                       pointer to Iterator

address     size       variable name                            type
0x20000404  0x4        g_ptDefaultPLAYERRole                    PGameRole

address     size       variable name                            type
0x200003c0  0x34       g_tAggregate                             Aggregate
0x200003c0  0x4        g_tAggregate.excute_item                 pointer to function 
0x200003c4  0x4        g_tAggregate.recover_item                pointer to function 
0x200003c8  0x28       g_tAggregate.role_list                   array[10] of pointer to GameRole
0x200003f0  0x4        g_tAggregate.num                         int

address     size       variable name                            type
0x200003bc  0x4        g_tIndicateLed                           PLedDevice

address     size       variable name                            type
0x200003f4  0x10       g_tIterator                              Iterator
0x200003f4  0x4        g_tIterator.traversal_excute_item        pointer to function 
0x200003f8  0x4        g_tIterator.traversal_recover_item       pointer to function 
0x200003fc  0x4        g_tIterator.ptAggregate                  pointer to Aggregate
0x20000400  0x4        g_tIterator.index                        int

address     size       variable name                            type
0x200002c0  0x4        cactus1_position                         int

address     size       variable name                            type
0x200002c4  0x4        cactus2_position                         int

address     size       variable name                            type
0x20000308  0x2c       g_tGameRoleCactus1                       GameRole
0x20000308  0x4        g_tGameRoleCactus1.name                  pointer to char
0x2000030c  0x4        g_tGameRoleCactus1.iCurrentFlag          int
0x20000310  0x4        g_tGameRoleCactus1.ptGraphBitMap         pointer to GraphBitMap
0x20000314  0x4        g_tGameRoleCactus1.iCurrentX             int
0x20000318  0x4        g_tGameRoleCactus1.iCurrentY             int
0x2000031c  0xc        g_tGameRoleCactus1.memento               memento_data
0x2000031c  0x4        g_tGameRoleCactus1.memento.iOriginX      int
0x20000320  0x4        g_tGameRoleCactus1.memento.iOriginY      int
0x20000324  0x4        g_tGameRoleCactus1.memento.iOriginFlag   int
0x20000328  0x4        g_tGameRoleCactus1.control_ops           pointer to function 
0x2000032c  0x4        g_tGameRoleCactus1.excute_ops            pointer to function 
0x20000330  0x4        g_tGameRoleCactus1.recover_data          pointer to function 

address     size       variable name                            type
0x20000334  0x2c       g_tGameRoleCactus2                       GameRole
0x20000334  0x4        g_tGameRoleCactus2.name                  pointer to char
0x20000338  0x4        g_tGameRoleCactus2.iCurrentFlag          int
0x2000033c  0x4        g_tGameRoleCactus2.ptGraphBitMap         pointer to GraphBitMap
0x20000340  0x4        g_tGameRoleCactus2.iCurrentX             int
0x20000344  0x4        g_tGameRoleCactus2.iCurrentY             int
0x20000348  0xc        g_tGameRoleCactus2.memento               memento_data
0x20000348  0x4        g_tGameRoleCactus2.memento.iOriginX      int
0x2000034c  0x4        g_tGameRoleCactus2.memento.iOriginY      int
0x20000350  0x4        g_tGameRoleCactus2.memento.iOriginFlag   int
0x20000354  0x4        g_tGameRoleCactus2.control_ops           pointer to function 
0x20000358  0x4        g_tGameRoleCactus2.excute_ops            pointer to function 
0x2000035c  0x4        g_tGameRoleCactus2.recover_data          pointer to function 

address     size       variable name                            type
0x2000021c  0x2c       g_tGameRoleCloud1                        GameRole
0x2000021c  0x4        g_tGameRoleCloud1.name                   pointer to char
0x20000220  0x4        g_tGameRoleCloud1.iCurrentFlag           int
0x20000224  0x4        g_tGameRoleCloud1.ptGraphBitMap          pointer to GraphBitMap
0x20000228  0x4        g_tGameRoleCloud1.iCurrentX              int
0x2000022c  0x4        g_tGameRoleCloud1.iCurrentY              int
0x20000230  0xc        g_tGameRoleCloud1.memento                memento_data
0x20000230  0x4        g_tGameRoleCloud1.memento.iOriginX       int
0x20000234  0x4        g_tGameRoleCloud1.memento.iOriginY       int
0x20000238  0x4        g_tGameRoleCloud1.memento.iOriginFlag    int
0x2000023c  0x4        g_tGameRoleCloud1.control_ops            pointer to function 
0x20000240  0x4        g_tGameRoleCloud1.excute_ops             pointer to function 
0x20000244  0x4        g_tGameRoleCloud1.recover_data           pointer to function 

address     size       variable name                            type
0x20000248  0x2c       g_tGameRoleCloud2                        GameRole
0x20000248  0x4        g_tGameRoleCloud2.name                   pointer to char
0x2000024c  0x4        g_tGameRoleCloud2.iCurrentFlag           int
0x20000250  0x4        g_tGameRoleCloud2.ptGraphBitMap          pointer to GraphBitMap
0x20000254  0x4        g_tGameRoleCloud2.iCurrentX              int
0x20000258  0x4        g_tGameRoleCloud2.iCurrentY              int
0x2000025c  0xc        g_tGameRoleCloud2.memento                memento_data
0x2000025c  0x4        g_tGameRoleCloud2.memento.iOriginX       int
0x20000260  0x4        g_tGameRoleCloud2.memento.iOriginY       int
0x20000264  0x4        g_tGameRoleCloud2.memento.iOriginFlag    int
0x20000268  0x4        g_tGameRoleCloud2.control_ops            pointer to function 
0x2000026c  0x4        g_tGameRoleCloud2.excute_ops             pointer to function 
0x20000270  0x4        g_tGameRoleCloud2.recover_data           pointer to function 

address     size       variable name                            type
0x20000390  0x2c       g_tGameRoleDinosaur                      GameRole
0x20000390  0x4        g_tGameRoleDinosaur.name                 pointer to char
0x20000394  0x4        g_tGameRoleDinosaur.iCurrentFlag         int
0x20000398  0x4        g_tGameRoleDinosaur.ptGraphBitMap        pointer to GraphBitMap
0x2000039c  0x4        g_tGameRoleDinosaur.iCurrentX            int
0x200003a0  0x4        g_tGameRoleDinosaur.iCurrentY            int
0x200003a4  0xc        g_tGameRoleDinosaur.memento              memento_data
0x200003a4  0x4        g_tGameRoleDinosaur.memento.iOriginX     int
0x200003a8  0x4        g_tGameRoleDinosaur.memento.iOriginY     int
0x200003ac  0x4        g_tGameRoleDinosaur.memento.iOriginFlag  int
0x200003b0  0x4        g_tGameRoleDinosaur.control_ops          pointer to function 
0x200003b4  0x4        g_tGameRoleDinosaur.excute_ops           pointer to function 
0x200003b8  0x4        g_tGameRoleDinosaur.recover_data         pointer to function 

address     size       variable name                            type
0x20000294  0x2c       g_tGameRoleGround                        GameRole
0x20000294  0x4        g_tGameRoleGround.name                   pointer to char
0x20000298  0x4        g_tGameRoleGround.iCurrentFlag           int
0x2000029c  0x4        g_tGameRoleGround.ptGraphBitMap          pointer to GraphBitMap
0x200002a0  0x4        g_tGameRoleGround.iCurrentX              int
0x200002a4  0x4        g_tGameRoleGround.iCurrentY              int
0x200002a8  0xc        g_tGameRoleGround.memento                memento_data
0x200002a8  0x4        g_tGameRoleGround.memento.iOriginX       int
0x200002ac  0x4        g_tGameRoleGround.memento.iOriginY       int
0x200002b0  0x4        g_tGameRoleGround.memento.iOriginFlag    int
0x200002b4  0x4        g_tGameRoleGround.control_ops            pointer to function 
0x200002b8  0x4        g_tGameRoleGround.excute_ops             pointer to function 
0x200002bc  0x4        g_tGameRoleGround.recover_data           pointer to function 

address     size       variable name                            type
0x200002c8  0x20       g_tRoleGraphCactus1                      GraphBitMap
0x200002c8  0x4        g_tRoleGraphCactus1.iLeftTopX            int
0x200002cc  0x4        g_tRoleGraphCactus1.iLeftTopY            int
0x200002d0  0x4        g_tRoleGraphCactus1.iWidth               int
0x200002d4  0x4        g_tRoleGraphCactus1.iHeight              int
0x200002d8  0x4        g_tRoleGraphCactus1.iCurOriginX          int
0x200002dc  0x4        g_tRoleGraphCactus1.iCurOriginY          int
0x200002e0  0x4        g_tRoleGraphCactus1.pbuffer              pointer to unsigned char
0x200002e4  0x4        g_tRoleGraphCactus1.index                int

address     size       variable name                            type
0x200002e8  0x20       g_tRoleGraphCactus2                      GraphBitMap
0x200002e8  0x4        g_tRoleGraphCactus2.iLeftTopX            int
0x200002ec  0x4        g_tRoleGraphCactus2.iLeftTopY            int
0x200002f0  0x4        g_tRoleGraphCactus2.iWidth               int
0x200002f4  0x4        g_tRoleGraphCactus2.iHeight              int
0x200002f8  0x4        g_tRoleGraphCactus2.iCurOriginX          int
0x200002fc  0x4        g_tRoleGraphCactus2.iCurOriginY          int
0x20000300  0x4        g_tRoleGraphCactus2.pbuffer              pointer to unsigned char
0x20000304  0x4        g_tRoleGraphCactus2.index                int

address     size       variable name                            type
0x200001fc  0x20       g_tRoleGraphCloud                        GraphBitMap
0x200001fc  0x4        g_tRoleGraphCloud.iLeftTopX              int
0x20000200  0x4        g_tRoleGraphCloud.iLeftTopY              int
0x20000204  0x4        g_tRoleGraphCloud.iWidth                 int
0x20000208  0x4        g_tRoleGraphCloud.iHeight                int
0x2000020c  0x4        g_tRoleGraphCloud.iCurOriginX            int
0x20000210  0x4        g_tRoleGraphCloud.iCurOriginY            int
0x20000214  0x4        g_tRoleGraphCloud.pbuffer                pointer to unsigned char
0x20000218  0x4        g_tRoleGraphCloud.index                  int

address     size       variable name                            type
0x20000370  0x20       g_tRoleGraphDinosaur                     GraphBitMap
0x20000370  0x4        g_tRoleGraphDinosaur.iLeftTopX           int
0x20000374  0x4        g_tRoleGraphDinosaur.iLeftTopY           int
0x20000378  0x4        g_tRoleGraphDinosaur.iWidth              int
0x2000037c  0x4        g_tRoleGraphDinosaur.iHeight             int
0x20000380  0x4        g_tRoleGraphDinosaur.iCurOriginX         int
0x20000384  0x4        g_tRoleGraphDinosaur.iCurOriginY         int
0x20000388  0x4        g_tRoleGraphDinosaur.pbuffer             pointer to unsigned char
0x2000038c  0x4        g_tRoleGraphDinosaur.index               int

address     size       variable name                            type
0x20000274  0x20       g_tRoleGraphGround                       GraphBitMap
0x20000274  0x4        g_tRoleGraphGround.iLeftTopX             int
0x20000278  0x4        g_tRoleGraphGround.iLeftTopY             int
0x2000027c  0x4        g_tRoleGraphGround.iWidth                int
0x20000280  0x4        g_tRoleGraphGround.iHeight               int
0x20000284  0x4        g_tRoleGraphGround.iCurOriginX           int
0x20000288  0x4        g_tRoleGraphGround.iCurOriginY           int
0x2000028c  0x4        g_tRoleGraphGround.pbuffer               pointer to unsigned char
0x20000290  0x4        g_tRoleGraphGround.index                 int

address     size       variable name                            type
0x2000036c  0x4        speed_index                              int

address     size       variable name                            type
0x20000360  0x9        speed_table                              array[9] of char

address     size       variable name                            type
0x2000019c  0x20       BACK                                     array[32] of unsigned char

address     size       variable name                            type
0x200001bc  0x20       BATTERY                                  array[32] of unsigned char

address     size       variable name                            type
0x200001dc  0x20       BLUETOOTH                                array[32] of unsigned char

address     size       variable name                            type
0x080060de  0x10       CACTUS_1                                 array[16] of const unsigned char

address     size       variable name                            type
0x080060ee  0x20       CACTUS_2                                 array[32] of const unsigned char

address     size       variable name                            type
0x0800610e  0x30       CACTUS_3                                 array[48] of const unsigned char

address     size       variable name                            type
0x0800613e  0x30       CACTUS_4                                 array[48] of const unsigned char

address     size       variable name                            type
0x080059ae  0x18       CLOUD                                    array[24] of const unsigned char

address     size       variable name                            type
0x0800605e  0x80       Cactus1                                  array[128] of const unsigned char

address     size       variable name                            type
0x080059c6  0x40       DINOSAUR                                 array[64] of const unsigned char

address     size       variable name                            type
0x080067f6  0x120      GAME                                     array[288] of const unsigned char

address     size       variable name                            type
0x08005a06  0x258      GROUND                                   array[600] of const unsigned char

address     size       variable name                            type
0x08005c5e  0x400      GroundImg                                array[1024] of const unsigned char

address     size       variable name                            type
0x080065b6  0x120      HOME                                     array[288] of const unsigned char

address     size       variable name                            type
0x08006ab6  0x120      INFORMATION                              array[288] of const unsigned char

address     size       variable name                            type
0x08006bd6  0x20       LEFT                                     array[32] of const unsigned char

address     size       variable name                            type
0x08006916  0x80       PLAYER                                   array[128] of const unsigned char

address     size       variable name                            type
0x0800616e  0x48       RESTART                                  array[72] of const unsigned char

address     size       variable name                            type
0x08006bf6  0x20       RIGHT                                    array[32] of const unsigned char

address     size       variable name                            type
0x08006996  0x120      SETTING                                  array[288] of const unsigned char

address     size       variable name                            type
0x08006c16  0x3c       SIGNAL                                   array[60] of const unsigned char

address     size       variable name                            type
0x080061b6  0x400      START                                    array[1024] of const unsigned char

address     size       variable name                            type
0x080066d6  0x120      TEMP                                     array[288] of const unsigned char

address     size       variable name                            type
0x2000017c  0x20       YES                                      array[32] of unsigned char

address     size       variable name                            type
0x20000174  0x4        g_ptPlayerDev                            PPlayer

address     size       variable name                            type
0x200026a4  0x14       aduio                                    audio_ops
0x200026a4  0x4        aduio.init                               pointer to function 
0x200026a8  0x4        aduio.open                               pointer to function 
0x200026ac  0x4        aduio.close                              pointer to function 
0x200026b0  0x4        aduio.control                            pointer to function 
0x200026b4  0x4        aduio.write                              pointer to function 

address     size       variable name                            type
0x20000170  0x4        beep_volume                              int

address     size       variable name                            type
0x200026b8  0xc        decode                                   decode_ops
0x200026b8  0x4        decode.init                              pointer to function 
0x200026bc  0x4        decode.control                           pointer to function 
0x200026c0  0x4        decode.read                              pointer to function 

address     size       variable name                            type
0x2000016c  0x4        g_ptPlayerBeepDev                        pointer to BeepDevice

address     size       variable name                            type
0x20000168  0x4        g_ptPlayerPilotLed                       pointer to LedDevice

address     size       variable name                            type
0x200026c4  0x48       g_tPlayer                                Player
0x200026c4  0x1      * g_tPlayer.status                         PLAYE_STATUS
0x200026c8  0x4        g_tPlayer.iVolume                        int
0x200026cc  0x4        g_tPlayer.iSongCurrent                   int
0x200026d0  0x4        g_tPlayer.iSongNum                       int
0x200026d4  0x4        g_tPlayer.iSongTimePass                  int
0x200026d8  0x4        g_tPlayer.iSongTimeAll                   int
0x200026dc  0x28       g_tPlayer.SongSheet                      array[10] of pointer to unknown Type 
0x20002704  0x4        g_tPlayer.audio                          pointer to audio_ops
0x20002708  0x4        g_tPlayer.decode                         pointer to decode_ops

address     size       variable name                            type
0x08004f54  0x212      song1                                    const BeepSong
0x08004f54  0x1e       song1.name                               array[30] of const unsigned char
0x08004f72  0x1f4      song1.data                               array[500] of const unsigned char

address     size       variable name                            type
0x08005166  0x212      song2                                    const BeepSong
0x08005166  0x1e       song2.name                               array[30] of const unsigned char
0x08005184  0x1f4      song2.data                               array[500] of const unsigned char

address     size       variable name                            type
0x08005378  0x212      song3                                    const BeepSong
0x08005378  0x1e       song3.name                               array[30] of const unsigned char
0x08005396  0x1f4      song3.data                               array[500] of const unsigned char

address     size       variable name                            type
0x0800558a  0x212      song4                                    const BeepSong
0x0800558a  0x1e       song4.name                               array[30] of const unsigned char
0x080055a8  0x1f4      song4.data                               array[500] of const unsigned char

address     size       variable name                            type
0x0800579c  0x212      song5                                    const BeepSong
0x0800579c  0x1e       song5.name                               array[30] of const unsigned char
0x080057ba  0x1f4      song5.data                               array[500] of const unsigned char

address     size       variable name                            type
0x08004eec  0x30       freq_table                               array[12] of const int

address     size       variable name                            type
0x20002674  0x30       freq_table_new                           array[12] of int

address     size       variable name                            type
0x08004f38  0x1c       length_tab                               array[7] of const int

address     size       variable name                            type
0x08004f1c  0x1c       sign_table                               array[7] of const int

address     size       variable name                            type
0x20002668  0xc        g_tBeepDeviceManager                     BeepDeviceManager
0x20002668  0x4        g_tBeepDeviceManager.num                 unsigned int
0x2000266c  0x8        g_tBeepDeviceManager.beep_device_list    array[2] of pointer to BeepDevice

address     size       variable name                            type
0x20000148  0x20       g_tBeepDevice                            BeepDevice
0x20000148  0x4        g_tBeepDevice.name                       pointer to char
0x2000014c  0x4        g_tBeepDevice.iPin                       int
0x20000150  0x4        g_tBeepDevice.iPort                      pointer to unknown Type 
0x20000154  0x4        g_tBeepDevice.timer                      pointer to unknown Type 
0x20000158  0x4        g_tBeepDevice.init                       pointer to function 
0x2000015c  0x4        g_tBeepDevice.pwm_cfg                    pointer to function 
0x20000160  0x4        g_tBeepDevice.pwm_on                     pointer to function 
0x20000164  0x4        g_tBeepDevice.pwm_off                    pointer to function 

address     size       variable name                            type
0x20000144  0x4        g_ptFaultFontlib                         PFontLib

address     size       variable name                            type
0x20002640  0x14       g_tFontLibManager                        FontLibManager
0x20002640  0x4        g_tFontLibManager.num                    unsigned int
0x20002644  0x10       g_tFontLibManager.fontlib_device_list    array[4] of pointer to FontLib

address     size       variable name                            type
0x080046ec  0x800      ascii_font                               array[128] of array[16] of const unsigned char

address     size       variable name                            type
0x20000130  0x14       g_tASCIIFontLib                          FontLib
0x20000130  0x4        g_tASCIIFontLib.name                     pointer to char
0x20000134  0x4        g_tASCIIFontLib.init                     pointer to function 
0x20000138  0x4        g_tASCIIFontLib.get_font_size            pointer to function 
0x2000013c  0x4        g_tASCIIFontLib.set_font_size            pointer to function 
0x20000140  0x4        g_tASCIIFontLib.get_font_bitmap          pointer to function 

address     size       variable name                            type
0x2000012c  0x4        OLED_I2C1_DMA_BUSYFLAG                   int

address     size       variable name                            type
0x20000128  0x4        g_ptI2CDevice                            pointer to I2CDevice

address     size       variable name                            type
0x20000120  0x4        g_ptFaultDisplayDev                      PDisplayDevice

address     size       variable name                            type
0x20000124  0x4        iFPS                                     int

address     size       variable name                            type
0x2000010c  0x4        flush_start                              int

address     size       variable name                            type
0x20000110  0x10       g_tDisplayDeviceManager                  DisplayDeviceManager
0x20000110  0x4        g_tDisplayDeviceManager.num              unsigned int
0x20000114  0x4        g_tDisplayDeviceManager.TimerFlushControl pointer to function 
0x20000118  0x8        g_tDisplayDeviceManager.display_device_list array[2] of pointer to DisplayDevice

address     size       variable name                            type
0x20001640  0x1000     g_OLEDFrameBuffer                        array[1024] of pointer to unsigned char

address     size       variable name                            type
0x200000e8  0x24       g_tOLEDdev                               DisplayDevice
0x200000e8  0x4        g_tOLEDdev.name                          pointer to char
0x200000ec  0x4        g_tOLEDdev.FBBase                        pointer to unknown Type 
0x200000f0  0x4        g_tOLEDdev.iXres                         int
0x200000f4  0x4        g_tOLEDdev.iYres                         int
0x200000f8  0x4        g_tOLEDdev.iBpp                          int
0x200000fc  0x4        g_tOLEDdev.iSize                         int
0x20000100  0x4        g_tOLEDdev.init                          pointer to function 
0x20000104  0x4        g_tOLEDdev.flush                         pointer to function 
0x20000108  0x4        g_tOLEDdev.SetPixel                      pointer to function 

address     size       variable name                            type
0x20001634  0xc        g_tI2CDeviceManager                      I2CDeviceManager
0x20001634  0x4        g_tI2CDeviceManager.num                  unsigned int
0x20001638  0x8        g_tI2CDeviceManager.i2c_device_list      array[2] of pointer to I2CDevice

address     size       variable name                            type
0x200000bc  0x2c       I2C1_DEV                                 I2CDevice
0x200000bc  0x4        I2C1_DEV.name                            pointer to char
0x200000c0  0x4        I2C1_DEV.iPin_SCL                        int
0x200000c4  0x4        I2C1_DEV.iPin_SDA                        int
0x200000c8  0x4        I2C1_DEV.iPort                           pointer to unknown Type 
0x200000cc  0x4        I2C1_DEV.init                            pointer to function 
0x200000d0  0x4        I2C1_DEV.iDMA                            pointer to unknown Type 
0x200000d4  0x4        I2C1_DEV.iDMAperBaseAddr                 unsigned int
0x200000d8  0x4        I2C1_DEV.iDMAmemBaseAddr                 unsigned int
0x200000dc  0x4        I2C1_DEV.iBufferSize                     unsigned int
0x200000e0  0x4        I2C1_DEV.dam_cfg                         pointer to function 
0x200000e4  0x4        I2C1_DEV.dam_enable                      pointer to function 

address     size       variable name                            type
0x20001474  0x1c0      g_tInputEventBuffer                      InputEventBuffer
0x20001474  0x1b8      g_tInputEventBuffer.buffer               array[10] of InputEvent
0x2000162c  0x4        g_tInputEventBuffer.pWrite               volatile unsigned int
0x20001630  0x4        g_tInputEventBuffer.pRead                volatile unsigned int

address     size       variable name                            type
0x200000b8  0x4        g_ptInputDeviceManager                   pointer to InputDevice

address     size       variable name                            type
0x200000a4  0x14       g_tButtonInputDevice                     InputDevice
0x200000a4  0x4        g_tButtonInputDevice.name                pointer to char
0x200000a8  0x4        g_tButtonInputDevice.GetInputEvent       pointer to function 
0x200000ac  0x4        g_tButtonInputDevice.DevceInit           pointer to function 
0x200000b0  0x4        g_tButtonInputDevice.DevceExit           pointer to function 
0x200000b4  0x4        g_tButtonInputDevice.pNext               pointer to InputDevice

address     size       variable name                            type
0x20001444  0x30       g_tButtonDevcieManager                   ButtonDevcieManager
0x20001444  0x4        g_tButtonDevcieManager.num               unsigned int
0x20001448  0x4        g_tButtonDevcieManager.ButtonTimerInit   pointer to function 
0x2000144c  0x28       g_tButtonDevcieManager.button_list       array[10] of pointer to Button

address     size       variable name                            type
0x2000004c  0x1c       button_1                                 Button
0x2000004c  0x4        button_1.name                            pointer to char
0x20000050  0x4        button_1.iPressLogicLevel                int
0x20000054  0x4        button_1.iCnt                            int
0x20000058  0x4        button_1.iHoldCycPeriod                  int
0x2000005c  0x4        button_1.iPin                            int
0x20000060  0x1      * button_1.eEvent                          my_button_envent
0x20000064  0x4        button_1.cb                              my_button_callback

address     size       variable name                            type
0x20000068  0x1c       button_2                                 Button
0x20000068  0x4        button_2.name                            pointer to char
0x2000006c  0x4        button_2.iPressLogicLevel                int
0x20000070  0x4        button_2.iCnt                            int
0x20000074  0x4        button_2.iHoldCycPeriod                  int
0x20000078  0x4        button_2.iPin                            int
0x2000007c  0x1      * button_2.eEvent                          my_button_envent
0x20000080  0x4        button_2.cb                              my_button_callback

address     size       variable name                            type
0x20000084  0x1c       button_3                                 Button
0x20000084  0x4        button_3.name                            pointer to char
0x20000088  0x4        button_3.iPressLogicLevel                int
0x2000008c  0x4        button_3.iCnt                            int
0x20000090  0x4        button_3.iHoldCycPeriod                  int
0x20000094  0x4        button_3.iPin                            int
0x20000098  0x1      * button_3.eEvent                          my_button_envent
0x2000009c  0x4        button_3.cb                              my_button_callback

address     size       variable name                            type
0x20000048  0x4        g_fButtonCallBack                        my_button_callback

address     size       variable name                            type
0x2000142c  0x18       g_tLedDeviceManager                      LedDeviceManager
0x2000142c  0x4        g_tLedDeviceManager.num                  unsigned int
0x20001430  0x14       g_tLedDeviceManager.led_device_list      array[5] of pointer to LedDevice

address     size       variable name                            type
0x20000030  0x18       LED_RED                                  LedDevice
0x20000030  0x4        LED_RED.name                             pointer to char
0x20000034  0x4        LED_RED.iPin                             int
0x20000038  0x4        LED_RED.iPort                            pointer to unknown Type 
0x2000003c  0x4        LED_RED.init                             pointer to function 
0x20000040  0x4        LED_RED.control                          pointer to function 
0x20000044  0x4        LED_RED.set                              pointer to function 

address     size       variable name                            type
0x20000018  0x18       LED_WHITE                                LedDevice
0x20000018  0x4        LED_WHITE.name                           pointer to char
0x2000001c  0x4        LED_WHITE.iPin                           int
0x20000020  0x4        LED_WHITE.iPort                          pointer to unknown Type 
0x20000024  0x4        LED_WHITE.init                           pointer to function 
0x20000028  0x4        LED_WHITE.control                        pointer to function 
0x2000002c  0x4        LED_WHITE.set                            pointer to function 

address     size       variable name                            type
0x20001024  0x408      usart1_ring_buffer                       ring_buffer
0x20001024  0x400      usart1_ring_buffer.buffer                array[1024] of unsigned char
0x20001424  0x4        usart1_ring_buffer.pWrite                volatile unsigned int
0x20001428  0x4        usart1_ring_buffer.pRead                 volatile unsigned int

address     size       variable name                            type
0x20000014  0x4        g_fTimerProcessFunction                  TimerProcessFunction

address     size       variable name                            type
0x20000e24  0x200      GameThreadStack                          array[512] of unsigned char

address     size       variable name                            type
0x20000824  0x200      LogicThreadStack                         array[512] of unsigned char

address     size       variable name                            type
0x20000a24  0x200      MenuThreadStack                          array[512] of unsigned char

address     size       variable name                            type
0x20000c24  0x200      PlayerThreadStack                        array[512] of unsigned char

address     size       variable name                            type
0x20000804  0x20       g_tGameThread                            rt_thread
0x20000804  0x4        g_tGameThread.name                       pointer to char
0x20000808  0x4        g_tGameThread.sp                         pointer to unknown Type 
0x2000080c  0x4        g_tGameThread.entry                      pointer to unknown Type 
0x20000810  0x4        g_tGameThread.parameter                  pointer to unknown Type 
0x20000814  0x4        g_tGameThread.stack_addr                 pointer to unknown Type 
0x20000818  0x4        g_tGameThread.stack_size                 rt_uint32_t
0x2000081c  0x8        g_tGameThread.tlist                      rt_list_t
0x2000081c  0x4        g_tGameThread.tlist.next                 pointer to rt_list_node
0x20000820  0x4        g_tGameThread.tlist.prev                 pointer to rt_list_node

address     size       variable name                            type
0x200007a4  0x20       g_tLogicThread                           rt_thread
0x200007a4  0x4        g_tLogicThread.name                      pointer to char
0x200007a8  0x4        g_tLogicThread.sp                        pointer to unknown Type 
0x200007ac  0x4        g_tLogicThread.entry                     pointer to unknown Type 
0x200007b0  0x4        g_tLogicThread.parameter                 pointer to unknown Type 
0x200007b4  0x4        g_tLogicThread.stack_addr                pointer to unknown Type 
0x200007b8  0x4        g_tLogicThread.stack_size                rt_uint32_t
0x200007bc  0x8        g_tLogicThread.tlist                     rt_list_t
0x200007bc  0x4        g_tLogicThread.tlist.next                pointer to rt_list_node
0x200007c0  0x4        g_tLogicThread.tlist.prev                pointer to rt_list_node

address     size       variable name                            type
0x200007c4  0x20       g_tMenuThread                            rt_thread
0x200007c4  0x4        g_tMenuThread.name                       pointer to char
0x200007c8  0x4        g_tMenuThread.sp                         pointer to unknown Type 
0x200007cc  0x4        g_tMenuThread.entry                      pointer to unknown Type 
0x200007d0  0x4        g_tMenuThread.parameter                  pointer to unknown Type 
0x200007d4  0x4        g_tMenuThread.stack_addr                 pointer to unknown Type 
0x200007d8  0x4        g_tMenuThread.stack_size                 rt_uint32_t
0x200007dc  0x8        g_tMenuThread.tlist                      rt_list_t
0x200007dc  0x4        g_tMenuThread.tlist.next                 pointer to rt_list_node
0x200007e0  0x4        g_tMenuThread.tlist.prev                 pointer to rt_list_node

address     size       variable name                            type
0x200007e4  0x20       g_tPlayerThread                          rt_thread
0x200007e4  0x4        g_tPlayerThread.name                     pointer to char
0x200007e8  0x4        g_tPlayerThread.sp                       pointer to unknown Type 
0x200007ec  0x4        g_tPlayerThread.entry                    pointer to unknown Type 
0x200007f0  0x4        g_tPlayerThread.parameter                pointer to unknown Type 
0x200007f4  0x4        g_tPlayerThread.stack_addr               pointer to unknown Type 
0x200007f8  0x4        g_tPlayerThread.stack_size               rt_uint32_t
0x200007fc  0x8        g_tPlayerThread.tlist                    rt_list_t
0x200007fc  0x4        g_tPlayerThread.tlist.next               pointer to rt_list_node
0x20000800  0x4        g_tPlayerThread.tlist.prev               pointer to rt_list_node

address     size       variable name                            type
0x20000010  0x4        ADCPrescTable                            array[4] of volatile const uint8_t

address     size       variable name                            type
0x20000000  0x10       APBAHBPrescTable                         array[16] of volatile const uint8_t

